
stm32h747-gameboy_CM7.elf:     file format elf32-littlearm

Sections:
Idx Name          Size      VMA       LMA       File off  Algn
  0 .isr_vector   00000298  08000000  08000000  00010000  2**0
                  CONTENTS, ALLOC, LOAD, READONLY, DATA
  1 .text         0000741c  080002a0  080002a0  000102a0  2**4
                  CONTENTS, ALLOC, LOAD, READONLY, CODE
  2 .rodata       00001e1c  080076bc  080076bc  000176bc  2**2
                  CONTENTS, ALLOC, LOAD, READONLY, DATA
  3 .ARM.extab    00000000  080094d8  080094d8  000208c8  2**0
                  CONTENTS
  4 .ARM          00000000  080094d8  080094d8  000208c8  2**0
                  CONTENTS
  5 .preinit_array 00000000  080094d8  080094d8  000208c8  2**0
                  CONTENTS, ALLOC, LOAD, DATA
  6 .init_array   00000004  080094d8  080094d8  000194d8  2**2
                  CONTENTS, ALLOC, LOAD, DATA
  7 .fini_array   00000004  080094dc  080094dc  000194dc  2**2
                  CONTENTS, ALLOC, LOAD, DATA
  8 .data         000008c8  24000000  080094e0  00020000  2**2
                  CONTENTS, ALLOC, LOAD, DATA
  9 .bss          00010308  240008c8  08009da8  000208c8  2**2
                  ALLOC
 10 ._user_heap_stack 00000600  24010bd0  08009da8  00020bd0  2**0
                  ALLOC
 11 .ARM.attributes 0000002e  00000000  00000000  000208c8  2**0
                  CONTENTS, READONLY
 12 .debug_info   0003c093  00000000  00000000  000208f6  2**0
                  CONTENTS, READONLY, DEBUGGING, OCTETS
 13 .debug_abbrev 00005d5c  00000000  00000000  0005c989  2**0
                  CONTENTS, READONLY, DEBUGGING, OCTETS
 14 .debug_loc    00013f1c  00000000  00000000  000626e5  2**0
                  CONTENTS, READONLY, DEBUGGING, OCTETS
 15 .debug_aranges 00001a28  00000000  00000000  00076608  2**3
                  CONTENTS, READONLY, DEBUGGING, OCTETS
 16 .debug_ranges 000028c8  00000000  00000000  00078030  2**3
                  CONTENTS, READONLY, DEBUGGING, OCTETS
 17 .debug_macro  000448bd  00000000  00000000  0007a8f8  2**0
                  CONTENTS, READONLY, DEBUGGING, OCTETS
 18 .debug_line   00023d6e  00000000  00000000  000bf1b5  2**0
                  CONTENTS, READONLY, DEBUGGING, OCTETS
 19 .debug_str    001b791f  00000000  00000000  000e2f23  2**0
                  CONTENTS, READONLY, DEBUGGING, OCTETS
 20 .comment      00000053  00000000  00000000  0029a842  2**0
                  CONTENTS, READONLY
 21 .debug_frame  000051f4  00000000  00000000  0029a898  2**2
                  CONTENTS, READONLY, DEBUGGING, OCTETS

Disassembly of section .text:

080002a0 <__do_global_dtors_aux>:
 80002a0:	b510      	push	{r4, lr}
 80002a2:	4c05      	ldr	r4, [pc, #20]	; (80002b8 <__do_global_dtors_aux+0x18>)
 80002a4:	7823      	ldrb	r3, [r4, #0]
 80002a6:	b933      	cbnz	r3, 80002b6 <__do_global_dtors_aux+0x16>
 80002a8:	4b04      	ldr	r3, [pc, #16]	; (80002bc <__do_global_dtors_aux+0x1c>)
 80002aa:	b113      	cbz	r3, 80002b2 <__do_global_dtors_aux+0x12>
 80002ac:	4804      	ldr	r0, [pc, #16]	; (80002c0 <__do_global_dtors_aux+0x20>)
 80002ae:	f3af 8000 	nop.w
 80002b2:	2301      	movs	r3, #1
 80002b4:	7023      	strb	r3, [r4, #0]
 80002b6:	bd10      	pop	{r4, pc}
 80002b8:	240008c8 	.word	0x240008c8
 80002bc:	00000000 	.word	0x00000000
 80002c0:	080076a4 	.word	0x080076a4

080002c4 <frame_dummy>:
 80002c4:	b508      	push	{r3, lr}
 80002c6:	4b03      	ldr	r3, [pc, #12]	; (80002d4 <frame_dummy+0x10>)
 80002c8:	b11b      	cbz	r3, 80002d2 <frame_dummy+0xe>
 80002ca:	4903      	ldr	r1, [pc, #12]	; (80002d8 <frame_dummy+0x14>)
 80002cc:	4803      	ldr	r0, [pc, #12]	; (80002dc <frame_dummy+0x18>)
 80002ce:	f3af 8000 	nop.w
 80002d2:	bd08      	pop	{r3, pc}
 80002d4:	00000000 	.word	0x00000000
 80002d8:	240008cc 	.word	0x240008cc
 80002dc:	080076a4 	.word	0x080076a4

080002e0 <memchr>:
 80002e0:	f001 01ff 	and.w	r1, r1, #255	; 0xff
 80002e4:	2a10      	cmp	r2, #16
 80002e6:	db2b      	blt.n	8000340 <memchr+0x60>
 80002e8:	f010 0f07 	tst.w	r0, #7
 80002ec:	d008      	beq.n	8000300 <memchr+0x20>
 80002ee:	f810 3b01 	ldrb.w	r3, [r0], #1
 80002f2:	3a01      	subs	r2, #1
 80002f4:	428b      	cmp	r3, r1
 80002f6:	d02d      	beq.n	8000354 <memchr+0x74>
 80002f8:	f010 0f07 	tst.w	r0, #7
 80002fc:	b342      	cbz	r2, 8000350 <memchr+0x70>
 80002fe:	d1f6      	bne.n	80002ee <memchr+0xe>
 8000300:	b4f0      	push	{r4, r5, r6, r7}
 8000302:	ea41 2101 	orr.w	r1, r1, r1, lsl #8
 8000306:	ea41 4101 	orr.w	r1, r1, r1, lsl #16
 800030a:	f022 0407 	bic.w	r4, r2, #7
 800030e:	f07f 0700 	mvns.w	r7, #0
 8000312:	2300      	movs	r3, #0
 8000314:	e8f0 5602 	ldrd	r5, r6, [r0], #8
 8000318:	3c08      	subs	r4, #8
 800031a:	ea85 0501 	eor.w	r5, r5, r1
 800031e:	ea86 0601 	eor.w	r6, r6, r1
 8000322:	fa85 f547 	uadd8	r5, r5, r7
 8000326:	faa3 f587 	sel	r5, r3, r7
 800032a:	fa86 f647 	uadd8	r6, r6, r7
 800032e:	faa5 f687 	sel	r6, r5, r7
 8000332:	b98e      	cbnz	r6, 8000358 <memchr+0x78>
 8000334:	d1ee      	bne.n	8000314 <memchr+0x34>
 8000336:	bcf0      	pop	{r4, r5, r6, r7}
 8000338:	f001 01ff 	and.w	r1, r1, #255	; 0xff
 800033c:	f002 0207 	and.w	r2, r2, #7
 8000340:	b132      	cbz	r2, 8000350 <memchr+0x70>
 8000342:	f810 3b01 	ldrb.w	r3, [r0], #1
 8000346:	3a01      	subs	r2, #1
 8000348:	ea83 0301 	eor.w	r3, r3, r1
 800034c:	b113      	cbz	r3, 8000354 <memchr+0x74>
 800034e:	d1f8      	bne.n	8000342 <memchr+0x62>
 8000350:	2000      	movs	r0, #0
 8000352:	4770      	bx	lr
 8000354:	3801      	subs	r0, #1
 8000356:	4770      	bx	lr
 8000358:	2d00      	cmp	r5, #0
 800035a:	bf06      	itte	eq
 800035c:	4635      	moveq	r5, r6
 800035e:	3803      	subeq	r0, #3
 8000360:	3807      	subne	r0, #7
 8000362:	f015 0f01 	tst.w	r5, #1
 8000366:	d107      	bne.n	8000378 <memchr+0x98>
 8000368:	3001      	adds	r0, #1
 800036a:	f415 7f80 	tst.w	r5, #256	; 0x100
 800036e:	bf02      	ittt	eq
 8000370:	3001      	addeq	r0, #1
 8000372:	f415 3fc0 	tsteq.w	r5, #98304	; 0x18000
 8000376:	3001      	addeq	r0, #1
 8000378:	bcf0      	pop	{r4, r5, r6, r7}
 800037a:	3801      	subs	r0, #1
 800037c:	4770      	bx	lr
 800037e:	bf00      	nop

08000380 <SystemInit>:
  */
void SystemInit (void)
{
  /* FPU settings ------------------------------------------------------------*/
  #if (__FPU_PRESENT == 1) && (__FPU_USED == 1)
    SCB->CPACR |= ((3UL << (10*2))|(3UL << (11*2)));  /* set CP10 and CP11 Full Access */
 8000380:	4b2d      	ldr	r3, [pc, #180]	; (8000438 <SystemInit+0xb8>)
 SCB->SCR |= SCB_SCR_SEVONPEND_Msk;

#ifdef CORE_CM7
  /* Reset the RCC clock configuration to the default reset state ------------*/
   /* Increasing the CPU frequency */
  if(FLASH_LATENCY_DEFAULT  > (READ_BIT((FLASH->ACR), FLASH_ACR_LATENCY)))
 8000382:	492e      	ldr	r1, [pc, #184]	; (800043c <SystemInit+0xbc>)
    SCB->CPACR |= ((3UL << (10*2))|(3UL << (11*2)));  /* set CP10 and CP11 Full Access */
 8000384:	f8d3 2088 	ldr.w	r2, [r3, #136]	; 0x88
 8000388:	f442 0270 	orr.w	r2, r2, #15728640	; 0xf00000
{
 800038c:	b430      	push	{r4, r5}
    SCB->CPACR |= ((3UL << (10*2))|(3UL << (11*2)));  /* set CP10 and CP11 Full Access */
 800038e:	f8c3 2088 	str.w	r2, [r3, #136]	; 0x88
 SCB->SCR |= SCB_SCR_SEVONPEND_Msk;
 8000392:	691a      	ldr	r2, [r3, #16]
 8000394:	f042 0210 	orr.w	r2, r2, #16
 8000398:	611a      	str	r2, [r3, #16]
  if(FLASH_LATENCY_DEFAULT  > (READ_BIT((FLASH->ACR), FLASH_ACR_LATENCY)))
 800039a:	680b      	ldr	r3, [r1, #0]
 800039c:	f003 030f 	and.w	r3, r3, #15
 80003a0:	2b06      	cmp	r3, #6
 80003a2:	d805      	bhi.n	80003b0 <SystemInit+0x30>
  {
    /* Program the new number of wait states to the LATENCY bits in the FLASH_ACR register */
	MODIFY_REG(FLASH->ACR, FLASH_ACR_LATENCY, (uint32_t)(FLASH_LATENCY_DEFAULT));
 80003a4:	680b      	ldr	r3, [r1, #0]
 80003a6:	f023 030f 	bic.w	r3, r3, #15
 80003aa:	f043 0307 	orr.w	r3, r3, #7
 80003ae:	600b      	str	r3, [r1, #0]
  }

  /* Set HSION bit */
  RCC->CR |= RCC_CR_HSION;
 80003b0:	4b23      	ldr	r3, [pc, #140]	; (8000440 <SystemInit+0xc0>)

  /* Reset CFGR register */
  RCC->CFGR = 0x00000000;
 80003b2:	2400      	movs	r4, #0

  /* Reset HSEON, HSECSSON, CSION, RC48ON, CSIKERON, PLL1ON, PLL2ON and PLL3ON bits */
  RCC->CR &= 0xEAF6ED7FU;
 80003b4:	4a23      	ldr	r2, [pc, #140]	; (8000444 <SystemInit+0xc4>)
  RCC->CR |= RCC_CR_HSION;
 80003b6:	6819      	ldr	r1, [r3, #0]

   /* Decreasing the number of wait states because of lower CPU frequency */
  if(FLASH_LATENCY_DEFAULT  < (READ_BIT((FLASH->ACR), FLASH_ACR_LATENCY)))
 80003b8:	4820      	ldr	r0, [pc, #128]	; (800043c <SystemInit+0xbc>)
  RCC->CR |= RCC_CR_HSION;
 80003ba:	f041 0101 	orr.w	r1, r1, #1
 80003be:	6019      	str	r1, [r3, #0]
  RCC->CFGR = 0x00000000;
 80003c0:	611c      	str	r4, [r3, #16]
  RCC->CR &= 0xEAF6ED7FU;
 80003c2:	6819      	ldr	r1, [r3, #0]
 80003c4:	400a      	ands	r2, r1
 80003c6:	601a      	str	r2, [r3, #0]
  if(FLASH_LATENCY_DEFAULT  < (READ_BIT((FLASH->ACR), FLASH_ACR_LATENCY)))
 80003c8:	6803      	ldr	r3, [r0, #0]
 80003ca:	071b      	lsls	r3, r3, #28
 80003cc:	d505      	bpl.n	80003da <SystemInit+0x5a>
  {
    /* Program the new number of wait states to the LATENCY bits in the FLASH_ACR register */
	MODIFY_REG(FLASH->ACR, FLASH_ACR_LATENCY, (uint32_t)(FLASH_LATENCY_DEFAULT));
 80003ce:	6803      	ldr	r3, [r0, #0]
 80003d0:	f023 030f 	bic.w	r3, r3, #15
 80003d4:	f043 0307 	orr.w	r3, r3, #7
 80003d8:	6003      	str	r3, [r0, #0]
  }

  /* Reset D1CFGR register */
  RCC->D1CFGR = 0x00000000;
 80003da:	4b19      	ldr	r3, [pc, #100]	; (8000440 <SystemInit+0xc0>)
 80003dc:	2200      	movs	r2, #0
  RCC->PLLCKSELR = 0x02020200;

  /* Reset PLLCFGR register */
  RCC->PLLCFGR = 0x01FF0000;
  /* Reset PLL1DIVR register */
  RCC->PLL1DIVR = 0x01010280;
 80003de:	491a      	ldr	r1, [pc, #104]	; (8000448 <SystemInit+0xc8>)
  RCC->PLLCKSELR = 0x02020200;
 80003e0:	4c1a      	ldr	r4, [pc, #104]	; (800044c <SystemInit+0xcc>)
  RCC->PLLCFGR = 0x01FF0000;
 80003e2:	481b      	ldr	r0, [pc, #108]	; (8000450 <SystemInit+0xd0>)
  RCC->D1CFGR = 0x00000000;
 80003e4:	619a      	str	r2, [r3, #24]
  RCC->D2CFGR = 0x00000000;
 80003e6:	61da      	str	r2, [r3, #28]
  RCC->D3CFGR = 0x00000000;
 80003e8:	621a      	str	r2, [r3, #32]
  RCC->PLLCKSELR = 0x02020200;
 80003ea:	629c      	str	r4, [r3, #40]	; 0x28
  RCC->PLLCFGR = 0x01FF0000;
 80003ec:	62d8      	str	r0, [r3, #44]	; 0x2c
  RCC->PLL1DIVR = 0x01010280;
 80003ee:	6319      	str	r1, [r3, #48]	; 0x30
  /* Reset PLL1FRACR register */
  RCC->PLL1FRACR = 0x00000000;
 80003f0:	635a      	str	r2, [r3, #52]	; 0x34

  /* Reset PLL2DIVR register */
  RCC->PLL2DIVR = 0x01010280;
 80003f2:	6399      	str	r1, [r3, #56]	; 0x38

  /* Reset PLL2FRACR register */

  RCC->PLL2FRACR = 0x00000000;
 80003f4:	63da      	str	r2, [r3, #60]	; 0x3c
  /* Reset PLL3DIVR register */
  RCC->PLL3DIVR = 0x01010280;
 80003f6:	6419      	str	r1, [r3, #64]	; 0x40

  /* Reset PLL3FRACR register */
  RCC->PLL3FRACR = 0x00000000;
 80003f8:	645a      	str	r2, [r3, #68]	; 0x44

  /* Reset HSEBYP bit */
  RCC->CR &= 0xFFFBFFFFU;
 80003fa:	6818      	ldr	r0, [r3, #0]

  /* Disable all interrupts */
  RCC->CIER = 0x00000000;

  /* Enable CortexM7 HSEM EXTI line (line 78)*/
  EXTI_D2->EMR3 |= 0x4000UL;
 80003fc:	4c15      	ldr	r4, [pc, #84]	; (8000454 <SystemInit+0xd4>)
  RCC->CR &= 0xFFFBFFFFU;
 80003fe:	f420 2080 	bic.w	r0, r0, #262144	; 0x40000


  if((DBGMCU->IDCODE & 0xFFFF0000U) < 0x20000000U)
 8000402:	4d15      	ldr	r5, [pc, #84]	; (8000458 <SystemInit+0xd8>)
 8000404:	4915      	ldr	r1, [pc, #84]	; (800045c <SystemInit+0xdc>)
  RCC->CR &= 0xFFFBFFFFU;
 8000406:	6018      	str	r0, [r3, #0]
  RCC->CIER = 0x00000000;
 8000408:	661a      	str	r2, [r3, #96]	; 0x60
  EXTI_D2->EMR3 |= 0x4000UL;
 800040a:	6a63      	ldr	r3, [r4, #36]	; 0x24
 800040c:	f443 4380 	orr.w	r3, r3, #16384	; 0x4000
 8000410:	6263      	str	r3, [r4, #36]	; 0x24
  if((DBGMCU->IDCODE & 0xFFFF0000U) < 0x20000000U)
 8000412:	682b      	ldr	r3, [r5, #0]
 8000414:	4019      	ands	r1, r3
 8000416:	f1b1 5f00 	cmp.w	r1, #536870912	; 0x20000000
 800041a:	d202      	bcs.n	8000422 <SystemInit+0xa2>
  {
    /* if stm32h7 revY*/
    /* Change  the switch matrix read issuing capability to 1 for the AXI SRAM target (Target 7) */
    *((__IO uint32_t*)0x51008108) = 0x000000001U;
 800041c:	4b10      	ldr	r3, [pc, #64]	; (8000460 <SystemInit+0xe0>)
 800041e:	2201      	movs	r2, #1
 8000420:	601a      	str	r2, [r3, #0]
  /*
   * Disable the FMC bank1 (enabled after reset).
   * This, prevents CPU speculation access on this bank which blocks the use of FMC during
   * 24us. During this time the others FMC master (such as LTDC) cannot use it!
   */
  FMC_Bank1_R->BTCR[0] = 0x000030D2;
 8000422:	4910      	ldr	r1, [pc, #64]	; (8000464 <SystemInit+0xe4>)
 8000424:	f243 00d2 	movw	r0, #12498	; 0x30d2

  /* Configure the Vector Table location add offset address ------------------*/
#ifdef VECT_TAB_SRAM
  SCB->VTOR = D1_AXISRAM_BASE  | VECT_TAB_OFFSET; /* Vector Table Relocation in Internal D1 AXI-RAM */
#else
  SCB->VTOR = FLASH_BANK1_BASE | VECT_TAB_OFFSET;       /* Vector Table Relocation in Internal FLASH */
 8000428:	4b03      	ldr	r3, [pc, #12]	; (8000438 <SystemInit+0xb8>)
 800042a:	f04f 6200 	mov.w	r2, #134217728	; 0x8000000
  FMC_Bank1_R->BTCR[0] = 0x000030D2;
 800042e:	6008      	str	r0, [r1, #0]
  SCB->VTOR = FLASH_BANK1_BASE | VECT_TAB_OFFSET;       /* Vector Table Relocation in Internal FLASH */
 8000430:	609a      	str	r2, [r3, #8]
#else
#error Please #define CORE_CM4 or CORE_CM7
#endif
#endif

}
 8000432:	bc30      	pop	{r4, r5}
 8000434:	4770      	bx	lr
 8000436:	bf00      	nop
 8000438:	e000ed00 	.word	0xe000ed00
 800043c:	52002000 	.word	0x52002000
 8000440:	58024400 	.word	0x58024400
 8000444:	eaf6ed7f 	.word	0xeaf6ed7f
 8000448:	01010280 	.word	0x01010280
 800044c:	02020200 	.word	0x02020200
 8000450:	01ff0000 	.word	0x01ff0000
 8000454:	580000c0 	.word	0x580000c0
 8000458:	5c001000 	.word	0x5c001000
 800045c:	ffff0000 	.word	0xffff0000
 8000460:	51008108 	.word	0x51008108
 8000464:	52004000 	.word	0x52004000

08000468 <vNOP>:
};

/* Implementation*/

/*********************0x0X*/
void vNOP(){          }
 8000468:	4770      	bx	lr
 800046a:	bf00      	nop

0800046c <vINCs_BC>:
void vLDs_BC_d16(){   reg.BC = concat_16bit_bigEndian(ucGBMemoryRead(reg.PC - 2), ucGBMemoryRead(reg.PC - 1));}
void vLD_BC_A(){      vGBMemoryWrite(reg.BC, reg.A);}
void vINCs_BC(){      reg.BC++;}
 800046c:	4a02      	ldr	r2, [pc, #8]	; (8000478 <vINCs_BC+0xc>)
 800046e:	8853      	ldrh	r3, [r2, #2]
 8000470:	3301      	adds	r3, #1
 8000472:	8053      	strh	r3, [r2, #2]
 8000474:	4770      	bx	lr
 8000476:	bf00      	nop
 8000478:	24000a34 	.word	0x24000a34

0800047c <vDECs_BC>:
void vLD_B_d8(){      reg.B = ucGBMemoryRead(reg.PC - 1);}
void vRLCA(){         vGBFunctionRLCA(&reg.A, &reg.F);}
void vLDs_a16_SP(){   vGBMemoryWrite(concat_16bit_bigEndian(ucGBMemoryRead(reg.PC -2), ucGBMemoryRead(reg.PC - 1)), reg.SP);}
void vADDs_HL_BC(){   vGBFunction16bitADD(&reg.HL, reg.BC, &reg.F);}
void vLD_A_BC(){      reg.A = ucGBMemoryRead(reg.BC);}
void vDECs_BC(){      reg.BC--;}
 800047c:	4a02      	ldr	r2, [pc, #8]	; (8000488 <vDECs_BC+0xc>)
 800047e:	8853      	ldrh	r3, [r2, #2]
 8000480:	3b01      	subs	r3, #1
 8000482:	8053      	strh	r3, [r2, #2]
 8000484:	4770      	bx	lr
 8000486:	bf00      	nop
 8000488:	24000a34 	.word	0x24000a34

0800048c <vSTOP>:
void vDEC_C(){        v8bitRegisterDEC(&reg.C, &reg.F);}
void vLD_C_d8(){      reg.C = ucGBMemoryRead(reg.PC - 1);}
void vRRCA(){         vGBFunctionRRCA(&reg.A, &reg.F);}

/*********************0x1X*/
void vSTOP(){         ucSTOPPED = 1;}                                    // MORE NEEDED TO IMPLEMENT LATER
 800048c:	4b01      	ldr	r3, [pc, #4]	; (8000494 <vSTOP+0x8>)
 800048e:	2201      	movs	r2, #1
 8000490:	701a      	strb	r2, [r3, #0]
 8000492:	4770      	bx	lr
 8000494:	240008e7 	.word	0x240008e7

08000498 <vINCs_DE>:
void vLDs_DE_d16(){   reg.DE = concat_16bit_bigEndian(ucGBMemoryRead(reg.PC - 2), ucGBMemoryRead(reg.PC - 1));}
void vLD_DE_A(){      vGBMemoryWrite(reg.DE, reg.A);}
void vINCs_DE(){      reg.DE++;}
 8000498:	4a02      	ldr	r2, [pc, #8]	; (80004a4 <vINCs_DE+0xc>)
 800049a:	8893      	ldrh	r3, [r2, #4]
 800049c:	3301      	adds	r3, #1
 800049e:	8093      	strh	r3, [r2, #4]
 80004a0:	4770      	bx	lr
 80004a2:	bf00      	nop
 80004a4:	24000a34 	.word	0x24000a34

080004a8 <vDECs_DE>:
void vLD_D_d8(){      reg.D = ucGBMemoryRead(reg.PC - 1);}
void vRLA(){          vGBFunctionRLA(&reg.A, &reg.F);}
void vJR_r8(){        reg.PC += (int8_t) ucGBMemoryRead(reg.PC - 1);}
void vADDs_HL_DE(){   vGBFunction16bitADD(&reg.HL, reg.DE, &reg.F);}
void vLD_A_DE(){      reg.A = ucGBMemoryRead(reg.DE);}
void vDECs_DE(){      reg.DE--;}
 80004a8:	4a02      	ldr	r2, [pc, #8]	; (80004b4 <vDECs_DE+0xc>)
 80004aa:	8893      	ldrh	r3, [r2, #4]
 80004ac:	3b01      	subs	r3, #1
 80004ae:	8093      	strh	r3, [r2, #4]
 80004b0:	4770      	bx	lr
 80004b2:	bf00      	nop
 80004b4:	24000a34 	.word	0x24000a34

080004b8 <vINCs_HL>:

/*********************0x2X*/
void vJR_NZ_r8(){     customDuration = vGBFunctionJR_NZ(&reg.PC, &reg.F, ucGBMemoryRead(reg.PC - 1));}
void vLDs_HL_d16(){   reg.HL = concat_16bit_bigEndian(ucGBMemoryRead(reg.PC - 2), ucGBMemoryRead(reg.PC - 1));}
void vLD_HLI_A(){     vGBMemoryWrite(reg.HL, reg.A); reg.HL++;}
void vINCs_HL(){      reg.HL++;}
 80004b8:	4a02      	ldr	r2, [pc, #8]	; (80004c4 <vINCs_HL+0xc>)
 80004ba:	88d3      	ldrh	r3, [r2, #6]
 80004bc:	3301      	adds	r3, #1
 80004be:	80d3      	strh	r3, [r2, #6]
 80004c0:	4770      	bx	lr
 80004c2:	bf00      	nop
 80004c4:	24000a34 	.word	0x24000a34

080004c8 <vDECs_HL>:
void vLD_H_d8(){      reg.H = ucGBMemoryRead(reg.PC - 1);}
void vDAA(){          vGBFunctionDAA(&reg.A, &reg.F);}
void vJR_Z_r8(){      customDuration = vGBFunctionJR_Z(&reg.PC, &reg.F, ucGBMemoryRead(reg.PC - 1));}
void vADDs_HL_HL(){   vGBFunction16bitADD(&reg.HL, reg.HL, &reg.F);}
void vLD_A_HLI(){     reg.A = ucGBMemoryRead(reg.HL); reg.HL++;}
void vDECs_HL(){      reg.HL--;}
 80004c8:	4a02      	ldr	r2, [pc, #8]	; (80004d4 <vDECs_HL+0xc>)
 80004ca:	88d3      	ldrh	r3, [r2, #6]
 80004cc:	3b01      	subs	r3, #1
 80004ce:	80d3      	strh	r3, [r2, #6]
 80004d0:	4770      	bx	lr
 80004d2:	bf00      	nop
 80004d4:	24000a34 	.word	0x24000a34

080004d8 <vINCs_SP>:

/*********************0x3X*/
void vJR_NC_r8(){     customDuration = vGBFunctionJR_NC(&reg.PC, &reg.F, ucGBMemoryRead(reg.PC - 1));}
void vLDs_SP_d16(){   reg.SP = concat_16bit_bigEndian(ucGBMemoryRead(reg.PC - 2), ucGBMemoryRead(reg.PC - 1));}
void vLD_HLD_A(){     vGBMemoryWrite(reg.HL, reg.A); reg.HL--;}
void vINCs_SP(){      reg.SP++;}
 80004d8:	4a02      	ldr	r2, [pc, #8]	; (80004e4 <vINCs_SP+0xc>)
 80004da:	8913      	ldrh	r3, [r2, #8]
 80004dc:	3301      	adds	r3, #1
 80004de:	8113      	strh	r3, [r2, #8]
 80004e0:	4770      	bx	lr
 80004e2:	bf00      	nop
 80004e4:	24000a34 	.word	0x24000a34

080004e8 <vDECs_SP>:
void vLD_HL_d8(){     vGBMemoryWrite(reg.HL, ucGBMemoryRead(reg.PC - 1));}
void vSCF(){          resetbit(&reg.F, N_FLAG); resetbit(&reg.F, H_FLAG); setbit(&reg.F, C_FLAG);}
void vJR_C_r8(){      customDuration = vGBFunctionJR_C(&reg.PC, &reg.F, ucGBMemoryRead(reg.PC - 1));}
void vADDs_HL_SP(){   vGBFunction16bitADD(&reg.HL, reg.SP, &reg.F);}
void vLD_A_HLD(){     reg.A = ucGBMemoryRead(reg.HL); reg.HL--;}
void vDECs_SP(){      reg.SP--;}
 80004e8:	4a02      	ldr	r2, [pc, #8]	; (80004f4 <vDECs_SP+0xc>)
 80004ea:	8913      	ldrh	r3, [r2, #8]
 80004ec:	3b01      	subs	r3, #1
 80004ee:	8113      	strh	r3, [r2, #8]
 80004f0:	4770      	bx	lr
 80004f2:	bf00      	nop
 80004f4:	24000a34 	.word	0x24000a34

080004f8 <vLD_B_C>:
void vLD_A_d8(){      reg.A = ucGBMemoryRead(reg.PC - 1);}
void vCCF(){          resetbit(&reg.F, N_FLAG); resetbit(&reg.F, H_FLAG); (checkbit(reg.F, C_FLAG)) ? resetbit(&reg.F, C_FLAG) : setbit(&reg.F, C_FLAG);}

/*********************0x4X*/
void vLD_B_B(){       reg.B = reg.B;}
void vLD_B_C(){       reg.B = reg.C;}
 80004f8:	4b01      	ldr	r3, [pc, #4]	; (8000500 <vLD_B_C+0x8>)
 80004fa:	789a      	ldrb	r2, [r3, #2]
 80004fc:	70da      	strb	r2, [r3, #3]
 80004fe:	4770      	bx	lr
 8000500:	24000a34 	.word	0x24000a34

08000504 <vLD_B_D>:
void vLD_B_D(){       reg.B = reg.D;}
 8000504:	4b01      	ldr	r3, [pc, #4]	; (800050c <vLD_B_D+0x8>)
 8000506:	795a      	ldrb	r2, [r3, #5]
 8000508:	70da      	strb	r2, [r3, #3]
 800050a:	4770      	bx	lr
 800050c:	24000a34 	.word	0x24000a34

08000510 <vLD_B_E>:
void vLD_B_E(){       reg.B = reg.E;}
 8000510:	4b01      	ldr	r3, [pc, #4]	; (8000518 <vLD_B_E+0x8>)
 8000512:	791a      	ldrb	r2, [r3, #4]
 8000514:	70da      	strb	r2, [r3, #3]
 8000516:	4770      	bx	lr
 8000518:	24000a34 	.word	0x24000a34

0800051c <vLD_B_H>:
void vLD_B_H(){       reg.B = reg.H;}
 800051c:	4b01      	ldr	r3, [pc, #4]	; (8000524 <vLD_B_H+0x8>)
 800051e:	79da      	ldrb	r2, [r3, #7]
 8000520:	70da      	strb	r2, [r3, #3]
 8000522:	4770      	bx	lr
 8000524:	24000a34 	.word	0x24000a34

08000528 <vLD_B_L>:
void vLD_B_L(){       reg.B = reg.L;}
 8000528:	4b01      	ldr	r3, [pc, #4]	; (8000530 <vLD_B_L+0x8>)
 800052a:	799a      	ldrb	r2, [r3, #6]
 800052c:	70da      	strb	r2, [r3, #3]
 800052e:	4770      	bx	lr
 8000530:	24000a34 	.word	0x24000a34

08000534 <vLD_B_A>:
void vLD_B_HL(){      reg.B = ucGBMemoryRead(reg.HL);}
void vLD_B_A(){       reg.B = reg.A;}
 8000534:	4b01      	ldr	r3, [pc, #4]	; (800053c <vLD_B_A+0x8>)
 8000536:	785a      	ldrb	r2, [r3, #1]
 8000538:	70da      	strb	r2, [r3, #3]
 800053a:	4770      	bx	lr
 800053c:	24000a34 	.word	0x24000a34

08000540 <vLD_C_B>:
void vLD_C_B(){       reg.C = reg.B;}
 8000540:	4b01      	ldr	r3, [pc, #4]	; (8000548 <vLD_C_B+0x8>)
 8000542:	78da      	ldrb	r2, [r3, #3]
 8000544:	709a      	strb	r2, [r3, #2]
 8000546:	4770      	bx	lr
 8000548:	24000a34 	.word	0x24000a34

0800054c <vLD_C_D>:
void vLD_C_C(){       reg.C = reg.C;}
void vLD_C_D(){       reg.C = reg.D;}
 800054c:	4b01      	ldr	r3, [pc, #4]	; (8000554 <vLD_C_D+0x8>)
 800054e:	795a      	ldrb	r2, [r3, #5]
 8000550:	709a      	strb	r2, [r3, #2]
 8000552:	4770      	bx	lr
 8000554:	24000a34 	.word	0x24000a34

08000558 <vLD_C_E>:
void vLD_C_E(){       reg.C = reg.E;}
 8000558:	4b01      	ldr	r3, [pc, #4]	; (8000560 <vLD_C_E+0x8>)
 800055a:	791a      	ldrb	r2, [r3, #4]
 800055c:	709a      	strb	r2, [r3, #2]
 800055e:	4770      	bx	lr
 8000560:	24000a34 	.word	0x24000a34

08000564 <vLD_C_H>:
void vLD_C_H(){       reg.C = reg.H;}
 8000564:	4b01      	ldr	r3, [pc, #4]	; (800056c <vLD_C_H+0x8>)
 8000566:	79da      	ldrb	r2, [r3, #7]
 8000568:	709a      	strb	r2, [r3, #2]
 800056a:	4770      	bx	lr
 800056c:	24000a34 	.word	0x24000a34

08000570 <vLD_C_L>:
void vLD_C_L(){       reg.C = reg.L;}
 8000570:	4b01      	ldr	r3, [pc, #4]	; (8000578 <vLD_C_L+0x8>)
 8000572:	799a      	ldrb	r2, [r3, #6]
 8000574:	709a      	strb	r2, [r3, #2]
 8000576:	4770      	bx	lr
 8000578:	24000a34 	.word	0x24000a34

0800057c <vLD_C_A>:
void vLD_C_HL(){      reg.C = ucGBMemoryRead(reg.HL);}
void vLD_C_A(){       reg.C = reg.A;}
 800057c:	4b01      	ldr	r3, [pc, #4]	; (8000584 <vLD_C_A+0x8>)
 800057e:	785a      	ldrb	r2, [r3, #1]
 8000580:	709a      	strb	r2, [r3, #2]
 8000582:	4770      	bx	lr
 8000584:	24000a34 	.word	0x24000a34

08000588 <vLD_D_B>:

/*********************0x5X*/
void vLD_D_B(){       reg.D = reg.B;}
 8000588:	4b01      	ldr	r3, [pc, #4]	; (8000590 <vLD_D_B+0x8>)
 800058a:	78da      	ldrb	r2, [r3, #3]
 800058c:	715a      	strb	r2, [r3, #5]
 800058e:	4770      	bx	lr
 8000590:	24000a34 	.word	0x24000a34

08000594 <vLD_D_C>:
void vLD_D_C(){       reg.D = reg.C;}
 8000594:	4b01      	ldr	r3, [pc, #4]	; (800059c <vLD_D_C+0x8>)
 8000596:	789a      	ldrb	r2, [r3, #2]
 8000598:	715a      	strb	r2, [r3, #5]
 800059a:	4770      	bx	lr
 800059c:	24000a34 	.word	0x24000a34

080005a0 <vLD_D_E>:
void vLD_D_D(){       reg.D = reg.D;}
void vLD_D_E(){       reg.D = reg.E;}
 80005a0:	4b01      	ldr	r3, [pc, #4]	; (80005a8 <vLD_D_E+0x8>)
 80005a2:	791a      	ldrb	r2, [r3, #4]
 80005a4:	715a      	strb	r2, [r3, #5]
 80005a6:	4770      	bx	lr
 80005a8:	24000a34 	.word	0x24000a34

080005ac <vLD_D_H>:
void vLD_D_H(){       reg.D = reg.H;}
 80005ac:	4b01      	ldr	r3, [pc, #4]	; (80005b4 <vLD_D_H+0x8>)
 80005ae:	79da      	ldrb	r2, [r3, #7]
 80005b0:	715a      	strb	r2, [r3, #5]
 80005b2:	4770      	bx	lr
 80005b4:	24000a34 	.word	0x24000a34

080005b8 <vLD_D_L>:
void vLD_D_L(){       reg.D = reg.L;}
 80005b8:	4b01      	ldr	r3, [pc, #4]	; (80005c0 <vLD_D_L+0x8>)
 80005ba:	799a      	ldrb	r2, [r3, #6]
 80005bc:	715a      	strb	r2, [r3, #5]
 80005be:	4770      	bx	lr
 80005c0:	24000a34 	.word	0x24000a34

080005c4 <vLD_D_A>:
void vLD_D_HL(){      reg.D = ucGBMemoryRead(reg.HL);}
void vLD_D_A(){       reg.D = reg.A;}
 80005c4:	4b01      	ldr	r3, [pc, #4]	; (80005cc <vLD_D_A+0x8>)
 80005c6:	785a      	ldrb	r2, [r3, #1]
 80005c8:	715a      	strb	r2, [r3, #5]
 80005ca:	4770      	bx	lr
 80005cc:	24000a34 	.word	0x24000a34

080005d0 <vLD_E_B>:
void vLD_E_B(){       reg.E = reg.B;}
 80005d0:	4b01      	ldr	r3, [pc, #4]	; (80005d8 <vLD_E_B+0x8>)
 80005d2:	78da      	ldrb	r2, [r3, #3]
 80005d4:	711a      	strb	r2, [r3, #4]
 80005d6:	4770      	bx	lr
 80005d8:	24000a34 	.word	0x24000a34

080005dc <vLD_E_C>:
void vLD_E_C(){       reg.E = reg.C;}
 80005dc:	4b01      	ldr	r3, [pc, #4]	; (80005e4 <vLD_E_C+0x8>)
 80005de:	789a      	ldrb	r2, [r3, #2]
 80005e0:	711a      	strb	r2, [r3, #4]
 80005e2:	4770      	bx	lr
 80005e4:	24000a34 	.word	0x24000a34

080005e8 <vLD_E_D>:
void vLD_E_D(){       reg.E = reg.D;}
 80005e8:	4b01      	ldr	r3, [pc, #4]	; (80005f0 <vLD_E_D+0x8>)
 80005ea:	795a      	ldrb	r2, [r3, #5]
 80005ec:	711a      	strb	r2, [r3, #4]
 80005ee:	4770      	bx	lr
 80005f0:	24000a34 	.word	0x24000a34

080005f4 <vLD_E_H>:
void vLD_E_E(){       reg.E = reg.E;}
void vLD_E_H(){       reg.E = reg.H;}
 80005f4:	4b01      	ldr	r3, [pc, #4]	; (80005fc <vLD_E_H+0x8>)
 80005f6:	79da      	ldrb	r2, [r3, #7]
 80005f8:	711a      	strb	r2, [r3, #4]
 80005fa:	4770      	bx	lr
 80005fc:	24000a34 	.word	0x24000a34

08000600 <vLD_E_L>:
void vLD_E_L(){       reg.E = reg.L;}
 8000600:	4b01      	ldr	r3, [pc, #4]	; (8000608 <vLD_E_L+0x8>)
 8000602:	799a      	ldrb	r2, [r3, #6]
 8000604:	711a      	strb	r2, [r3, #4]
 8000606:	4770      	bx	lr
 8000608:	24000a34 	.word	0x24000a34

0800060c <vLD_E_A>:
void vLD_E_HL(){      reg.E = ucGBMemoryRead(reg.HL);}
void vLD_E_A(){       reg.E = reg.A;}
 800060c:	4b01      	ldr	r3, [pc, #4]	; (8000614 <vLD_E_A+0x8>)
 800060e:	785a      	ldrb	r2, [r3, #1]
 8000610:	711a      	strb	r2, [r3, #4]
 8000612:	4770      	bx	lr
 8000614:	24000a34 	.word	0x24000a34

08000618 <vLD_H_B>:

/*********************0x6X*/
void vLD_H_B(){       reg.H = reg.B;}
 8000618:	4b01      	ldr	r3, [pc, #4]	; (8000620 <vLD_H_B+0x8>)
 800061a:	78da      	ldrb	r2, [r3, #3]
 800061c:	71da      	strb	r2, [r3, #7]
 800061e:	4770      	bx	lr
 8000620:	24000a34 	.word	0x24000a34

08000624 <vLD_H_C>:
void vLD_H_C(){       reg.H = reg.C;}
 8000624:	4b01      	ldr	r3, [pc, #4]	; (800062c <vLD_H_C+0x8>)
 8000626:	789a      	ldrb	r2, [r3, #2]
 8000628:	71da      	strb	r2, [r3, #7]
 800062a:	4770      	bx	lr
 800062c:	24000a34 	.word	0x24000a34

08000630 <vLD_H_D>:
void vLD_H_D(){       reg.H = reg.D;}
 8000630:	4b01      	ldr	r3, [pc, #4]	; (8000638 <vLD_H_D+0x8>)
 8000632:	795a      	ldrb	r2, [r3, #5]
 8000634:	71da      	strb	r2, [r3, #7]
 8000636:	4770      	bx	lr
 8000638:	24000a34 	.word	0x24000a34

0800063c <vLD_H_E>:
void vLD_H_E(){       reg.H = reg.E;}
 800063c:	4b01      	ldr	r3, [pc, #4]	; (8000644 <vLD_H_E+0x8>)
 800063e:	791a      	ldrb	r2, [r3, #4]
 8000640:	71da      	strb	r2, [r3, #7]
 8000642:	4770      	bx	lr
 8000644:	24000a34 	.word	0x24000a34

08000648 <vLD_H_L>:
void vLD_H_H(){       reg.H = reg.H;}
void vLD_H_L(){       reg.H = reg.L;}
 8000648:	4b01      	ldr	r3, [pc, #4]	; (8000650 <vLD_H_L+0x8>)
 800064a:	799a      	ldrb	r2, [r3, #6]
 800064c:	71da      	strb	r2, [r3, #7]
 800064e:	4770      	bx	lr
 8000650:	24000a34 	.word	0x24000a34

08000654 <vLD_H_A>:
void vLD_H_HL(){      reg.H = ucGBMemoryRead(reg.HL);}
void vLD_H_A(){       reg.H = reg.A;}
 8000654:	4b01      	ldr	r3, [pc, #4]	; (800065c <vLD_H_A+0x8>)
 8000656:	785a      	ldrb	r2, [r3, #1]
 8000658:	71da      	strb	r2, [r3, #7]
 800065a:	4770      	bx	lr
 800065c:	24000a34 	.word	0x24000a34

08000660 <vLD_L_B>:
void vLD_L_B(){       reg.L = reg.B;}
 8000660:	4b01      	ldr	r3, [pc, #4]	; (8000668 <vLD_L_B+0x8>)
 8000662:	78da      	ldrb	r2, [r3, #3]
 8000664:	719a      	strb	r2, [r3, #6]
 8000666:	4770      	bx	lr
 8000668:	24000a34 	.word	0x24000a34

0800066c <vLD_L_C>:
void vLD_L_C(){       reg.L = reg.C;}
 800066c:	4b01      	ldr	r3, [pc, #4]	; (8000674 <vLD_L_C+0x8>)
 800066e:	789a      	ldrb	r2, [r3, #2]
 8000670:	719a      	strb	r2, [r3, #6]
 8000672:	4770      	bx	lr
 8000674:	24000a34 	.word	0x24000a34

08000678 <vLD_L_D>:
void vLD_L_D(){       reg.L = reg.D;}
 8000678:	4b01      	ldr	r3, [pc, #4]	; (8000680 <vLD_L_D+0x8>)
 800067a:	795a      	ldrb	r2, [r3, #5]
 800067c:	719a      	strb	r2, [r3, #6]
 800067e:	4770      	bx	lr
 8000680:	24000a34 	.word	0x24000a34

08000684 <vLD_L_E>:
void vLD_L_E(){       reg.L = reg.E;}
 8000684:	4b01      	ldr	r3, [pc, #4]	; (800068c <vLD_L_E+0x8>)
 8000686:	791a      	ldrb	r2, [r3, #4]
 8000688:	719a      	strb	r2, [r3, #6]
 800068a:	4770      	bx	lr
 800068c:	24000a34 	.word	0x24000a34

08000690 <vLD_L_H>:
void vLD_L_H(){       reg.L = reg.H;}
 8000690:	4b01      	ldr	r3, [pc, #4]	; (8000698 <vLD_L_H+0x8>)
 8000692:	79da      	ldrb	r2, [r3, #7]
 8000694:	719a      	strb	r2, [r3, #6]
 8000696:	4770      	bx	lr
 8000698:	24000a34 	.word	0x24000a34

0800069c <vLD_L_A>:
void vLD_L_L(){       reg.L = reg.L;}
void vLD_L_HL(){      reg.L = ucGBMemoryRead(reg.HL);}
void vLD_L_A(){       reg.L = reg.A;}
 800069c:	4b01      	ldr	r3, [pc, #4]	; (80006a4 <vLD_L_A+0x8>)
 800069e:	785a      	ldrb	r2, [r3, #1]
 80006a0:	719a      	strb	r2, [r3, #6]
 80006a2:	4770      	bx	lr
 80006a4:	24000a34 	.word	0x24000a34

080006a8 <vHALT>:
void vLD_HL_C(){      vGBMemoryWrite(reg.HL, reg.C);}
void vLD_HL_D(){      vGBMemoryWrite(reg.HL, reg.D);}
void vLD_HL_E(){      vGBMemoryWrite(reg.HL, reg.E);}
void vLD_HL_H(){      vGBMemoryWrite(reg.HL, reg.H);}
void vLD_HL_L(){      vGBMemoryWrite(reg.HL, reg.L);}
void vHALT(){         ucHALTED = 1;}
 80006a8:	4b01      	ldr	r3, [pc, #4]	; (80006b0 <vHALT+0x8>)
 80006aa:	2201      	movs	r2, #1
 80006ac:	701a      	strb	r2, [r3, #0]
 80006ae:	4770      	bx	lr
 80006b0:	240008e6 	.word	0x240008e6

080006b4 <vLD_A_B>:
void vLD_HL_A(){      vGBMemoryWrite(reg.HL, reg.A);}
void vLD_A_B(){       reg.A = reg.B;}
 80006b4:	4b01      	ldr	r3, [pc, #4]	; (80006bc <vLD_A_B+0x8>)
 80006b6:	78da      	ldrb	r2, [r3, #3]
 80006b8:	705a      	strb	r2, [r3, #1]
 80006ba:	4770      	bx	lr
 80006bc:	24000a34 	.word	0x24000a34

080006c0 <vLD_A_C>:
void vLD_A_C(){       reg.A = reg.C;}
 80006c0:	4b01      	ldr	r3, [pc, #4]	; (80006c8 <vLD_A_C+0x8>)
 80006c2:	789a      	ldrb	r2, [r3, #2]
 80006c4:	705a      	strb	r2, [r3, #1]
 80006c6:	4770      	bx	lr
 80006c8:	24000a34 	.word	0x24000a34

080006cc <vLD_A_D>:
void vLD_A_D(){       reg.A = reg.D;}
 80006cc:	4b01      	ldr	r3, [pc, #4]	; (80006d4 <vLD_A_D+0x8>)
 80006ce:	795a      	ldrb	r2, [r3, #5]
 80006d0:	705a      	strb	r2, [r3, #1]
 80006d2:	4770      	bx	lr
 80006d4:	24000a34 	.word	0x24000a34

080006d8 <vLD_A_E>:
void vLD_A_E(){       reg.A = reg.E;}
 80006d8:	4b01      	ldr	r3, [pc, #4]	; (80006e0 <vLD_A_E+0x8>)
 80006da:	791a      	ldrb	r2, [r3, #4]
 80006dc:	705a      	strb	r2, [r3, #1]
 80006de:	4770      	bx	lr
 80006e0:	24000a34 	.word	0x24000a34

080006e4 <vLD_A_H>:
void vLD_A_H(){       reg.A = reg.H;}
 80006e4:	4b01      	ldr	r3, [pc, #4]	; (80006ec <vLD_A_H+0x8>)
 80006e6:	79da      	ldrb	r2, [r3, #7]
 80006e8:	705a      	strb	r2, [r3, #1]
 80006ea:	4770      	bx	lr
 80006ec:	24000a34 	.word	0x24000a34

080006f0 <vLD_A_L>:
void vLD_A_L(){       reg.A = reg.L;}
 80006f0:	4b01      	ldr	r3, [pc, #4]	; (80006f8 <vLD_A_L+0x8>)
 80006f2:	799a      	ldrb	r2, [r3, #6]
 80006f4:	705a      	strb	r2, [r3, #1]
 80006f6:	4770      	bx	lr
 80006f8:	24000a34 	.word	0x24000a34

080006fc <vAND_B>:
void vSBC_A_L(){      vGBFunctionSBC(&reg.A, &reg.F, reg.L);}
void vSBC_A_HL(){     vGBFunctionSBC(&reg.A, &reg.F, ucGBMemoryRead(reg.HL));}
void vSBC_A_A(){      vGBFunctionSBC(&reg.A, &reg.F, reg.A);}

/*********************0xAX*/
void vAND_B(){        reg.A &= reg.B; reg.F = (reg.A == 0) ? 0xA0 : 0x20;}
 80006fc:	4b05      	ldr	r3, [pc, #20]	; (8000714 <vAND_B+0x18>)
 80006fe:	785a      	ldrb	r2, [r3, #1]
 8000700:	78d9      	ldrb	r1, [r3, #3]
 8000702:	400a      	ands	r2, r1
 8000704:	2a00      	cmp	r2, #0
 8000706:	705a      	strb	r2, [r3, #1]
 8000708:	bf0c      	ite	eq
 800070a:	22a0      	moveq	r2, #160	; 0xa0
 800070c:	2220      	movne	r2, #32
 800070e:	701a      	strb	r2, [r3, #0]
 8000710:	4770      	bx	lr
 8000712:	bf00      	nop
 8000714:	24000a34 	.word	0x24000a34

08000718 <vAND_C>:
void vAND_C(){        reg.A &= reg.C; reg.F = (reg.A == 0) ? 0xA0 : 0x20;}
 8000718:	4b05      	ldr	r3, [pc, #20]	; (8000730 <vAND_C+0x18>)
 800071a:	785a      	ldrb	r2, [r3, #1]
 800071c:	7899      	ldrb	r1, [r3, #2]
 800071e:	400a      	ands	r2, r1
 8000720:	2a00      	cmp	r2, #0
 8000722:	705a      	strb	r2, [r3, #1]
 8000724:	bf0c      	ite	eq
 8000726:	22a0      	moveq	r2, #160	; 0xa0
 8000728:	2220      	movne	r2, #32
 800072a:	701a      	strb	r2, [r3, #0]
 800072c:	4770      	bx	lr
 800072e:	bf00      	nop
 8000730:	24000a34 	.word	0x24000a34

08000734 <vAND_D>:
void vAND_D(){        reg.A &= reg.D; reg.F = (reg.A == 0) ? 0xA0 : 0x20;}
 8000734:	4b05      	ldr	r3, [pc, #20]	; (800074c <vAND_D+0x18>)
 8000736:	785a      	ldrb	r2, [r3, #1]
 8000738:	7959      	ldrb	r1, [r3, #5]
 800073a:	400a      	ands	r2, r1
 800073c:	2a00      	cmp	r2, #0
 800073e:	705a      	strb	r2, [r3, #1]
 8000740:	bf0c      	ite	eq
 8000742:	22a0      	moveq	r2, #160	; 0xa0
 8000744:	2220      	movne	r2, #32
 8000746:	701a      	strb	r2, [r3, #0]
 8000748:	4770      	bx	lr
 800074a:	bf00      	nop
 800074c:	24000a34 	.word	0x24000a34

08000750 <vAND_E>:
void vAND_E(){        reg.A &= reg.E; reg.F = (reg.A == 0) ? 0xA0 : 0x20;}
 8000750:	4b05      	ldr	r3, [pc, #20]	; (8000768 <vAND_E+0x18>)
 8000752:	785a      	ldrb	r2, [r3, #1]
 8000754:	7919      	ldrb	r1, [r3, #4]
 8000756:	400a      	ands	r2, r1
 8000758:	2a00      	cmp	r2, #0
 800075a:	705a      	strb	r2, [r3, #1]
 800075c:	bf0c      	ite	eq
 800075e:	22a0      	moveq	r2, #160	; 0xa0
 8000760:	2220      	movne	r2, #32
 8000762:	701a      	strb	r2, [r3, #0]
 8000764:	4770      	bx	lr
 8000766:	bf00      	nop
 8000768:	24000a34 	.word	0x24000a34

0800076c <vAND_H>:
void vAND_H(){        reg.A &= reg.H; reg.F = (reg.A == 0) ? 0xA0 : 0x20;}
 800076c:	4b05      	ldr	r3, [pc, #20]	; (8000784 <vAND_H+0x18>)
 800076e:	785a      	ldrb	r2, [r3, #1]
 8000770:	79d9      	ldrb	r1, [r3, #7]
 8000772:	400a      	ands	r2, r1
 8000774:	2a00      	cmp	r2, #0
 8000776:	705a      	strb	r2, [r3, #1]
 8000778:	bf0c      	ite	eq
 800077a:	22a0      	moveq	r2, #160	; 0xa0
 800077c:	2220      	movne	r2, #32
 800077e:	701a      	strb	r2, [r3, #0]
 8000780:	4770      	bx	lr
 8000782:	bf00      	nop
 8000784:	24000a34 	.word	0x24000a34

08000788 <vAND_L>:
void vAND_L(){        reg.A &= reg.L; reg.F = (reg.A == 0) ? 0xA0 : 0x20;}
 8000788:	4b05      	ldr	r3, [pc, #20]	; (80007a0 <vAND_L+0x18>)
 800078a:	785a      	ldrb	r2, [r3, #1]
 800078c:	7999      	ldrb	r1, [r3, #6]
 800078e:	400a      	ands	r2, r1
 8000790:	2a00      	cmp	r2, #0
 8000792:	705a      	strb	r2, [r3, #1]
 8000794:	bf0c      	ite	eq
 8000796:	22a0      	moveq	r2, #160	; 0xa0
 8000798:	2220      	movne	r2, #32
 800079a:	701a      	strb	r2, [r3, #0]
 800079c:	4770      	bx	lr
 800079e:	bf00      	nop
 80007a0:	24000a34 	.word	0x24000a34

080007a4 <vAND_A>:
void vAND_HL(){       reg.A &= ucGBMemoryRead(reg.HL); reg.F = (reg.A == 0) ? 0xA0 : 0x20;}
void vAND_A(){        reg.A &= reg.A; reg.F = (reg.A == 0) ? 0xA0 : 0x20;}
 80007a4:	4b03      	ldr	r3, [pc, #12]	; (80007b4 <vAND_A+0x10>)
 80007a6:	785a      	ldrb	r2, [r3, #1]
 80007a8:	2a00      	cmp	r2, #0
 80007aa:	bf0c      	ite	eq
 80007ac:	22a0      	moveq	r2, #160	; 0xa0
 80007ae:	2220      	movne	r2, #32
 80007b0:	701a      	strb	r2, [r3, #0]
 80007b2:	4770      	bx	lr
 80007b4:	24000a34 	.word	0x24000a34

080007b8 <vXOR_B>:
void vXOR_B(){        reg.A ^= reg.B; reg.F = (reg.A == 0) ? 0x80 : 0x00;}
 80007b8:	4b05      	ldr	r3, [pc, #20]	; (80007d0 <vXOR_B+0x18>)
 80007ba:	785a      	ldrb	r2, [r3, #1]
 80007bc:	78d9      	ldrb	r1, [r3, #3]
 80007be:	ea82 0001 	eor.w	r0, r2, r1
 80007c2:	428a      	cmp	r2, r1
 80007c4:	bf0c      	ite	eq
 80007c6:	2280      	moveq	r2, #128	; 0x80
 80007c8:	2200      	movne	r2, #0
 80007ca:	7058      	strb	r0, [r3, #1]
 80007cc:	701a      	strb	r2, [r3, #0]
 80007ce:	4770      	bx	lr
 80007d0:	24000a34 	.word	0x24000a34

080007d4 <vXOR_C>:
void vXOR_C(){        reg.A ^= reg.C; reg.F = (reg.A == 0) ? 0x80 : 0x00;}
 80007d4:	4b05      	ldr	r3, [pc, #20]	; (80007ec <vXOR_C+0x18>)
 80007d6:	785a      	ldrb	r2, [r3, #1]
 80007d8:	7899      	ldrb	r1, [r3, #2]
 80007da:	ea82 0001 	eor.w	r0, r2, r1
 80007de:	428a      	cmp	r2, r1
 80007e0:	bf0c      	ite	eq
 80007e2:	2280      	moveq	r2, #128	; 0x80
 80007e4:	2200      	movne	r2, #0
 80007e6:	7058      	strb	r0, [r3, #1]
 80007e8:	701a      	strb	r2, [r3, #0]
 80007ea:	4770      	bx	lr
 80007ec:	24000a34 	.word	0x24000a34

080007f0 <vXOR_D>:
void vXOR_D(){        reg.A ^= reg.D; reg.F = (reg.A == 0) ? 0x80 : 0x00;}
 80007f0:	4b05      	ldr	r3, [pc, #20]	; (8000808 <vXOR_D+0x18>)
 80007f2:	785a      	ldrb	r2, [r3, #1]
 80007f4:	7959      	ldrb	r1, [r3, #5]
 80007f6:	ea82 0001 	eor.w	r0, r2, r1
 80007fa:	428a      	cmp	r2, r1
 80007fc:	bf0c      	ite	eq
 80007fe:	2280      	moveq	r2, #128	; 0x80
 8000800:	2200      	movne	r2, #0
 8000802:	7058      	strb	r0, [r3, #1]
 8000804:	701a      	strb	r2, [r3, #0]
 8000806:	4770      	bx	lr
 8000808:	24000a34 	.word	0x24000a34

0800080c <vXOR_E>:
void vXOR_E(){        reg.A ^= reg.E; reg.F = (reg.A == 0) ? 0x80 : 0x00;}
 800080c:	4b05      	ldr	r3, [pc, #20]	; (8000824 <vXOR_E+0x18>)
 800080e:	785a      	ldrb	r2, [r3, #1]
 8000810:	7919      	ldrb	r1, [r3, #4]
 8000812:	ea82 0001 	eor.w	r0, r2, r1
 8000816:	428a      	cmp	r2, r1
 8000818:	bf0c      	ite	eq
 800081a:	2280      	moveq	r2, #128	; 0x80
 800081c:	2200      	movne	r2, #0
 800081e:	7058      	strb	r0, [r3, #1]
 8000820:	701a      	strb	r2, [r3, #0]
 8000822:	4770      	bx	lr
 8000824:	24000a34 	.word	0x24000a34

08000828 <vXOR_H>:
void vXOR_H(){        reg.A ^= reg.H; reg.F = (reg.A == 0) ? 0x80 : 0x00;}
 8000828:	4b05      	ldr	r3, [pc, #20]	; (8000840 <vXOR_H+0x18>)
 800082a:	785a      	ldrb	r2, [r3, #1]
 800082c:	79d9      	ldrb	r1, [r3, #7]
 800082e:	ea82 0001 	eor.w	r0, r2, r1
 8000832:	428a      	cmp	r2, r1
 8000834:	bf0c      	ite	eq
 8000836:	2280      	moveq	r2, #128	; 0x80
 8000838:	2200      	movne	r2, #0
 800083a:	7058      	strb	r0, [r3, #1]
 800083c:	701a      	strb	r2, [r3, #0]
 800083e:	4770      	bx	lr
 8000840:	24000a34 	.word	0x24000a34

08000844 <vXOR_L>:
void vXOR_L(){        reg.A ^= reg.L; reg.F = (reg.A == 0) ? 0x80 : 0x00;}
 8000844:	4b05      	ldr	r3, [pc, #20]	; (800085c <vXOR_L+0x18>)
 8000846:	785a      	ldrb	r2, [r3, #1]
 8000848:	7999      	ldrb	r1, [r3, #6]
 800084a:	ea82 0001 	eor.w	r0, r2, r1
 800084e:	428a      	cmp	r2, r1
 8000850:	bf0c      	ite	eq
 8000852:	2280      	moveq	r2, #128	; 0x80
 8000854:	2200      	movne	r2, #0
 8000856:	7058      	strb	r0, [r3, #1]
 8000858:	701a      	strb	r2, [r3, #0]
 800085a:	4770      	bx	lr
 800085c:	24000a34 	.word	0x24000a34

08000860 <vXOR_A>:
void vXOR_HL(){       reg.A ^= ucGBMemoryRead(reg.HL); reg.F = (reg.A == 0) ? 0x80 : 0x00;}
void vXOR_A(){        reg.A ^= reg.A; reg.F = (reg.A == 0) ? 0x80 : 0x00;}
 8000860:	4b01      	ldr	r3, [pc, #4]	; (8000868 <vXOR_A+0x8>)
 8000862:	2280      	movs	r2, #128	; 0x80
 8000864:	801a      	strh	r2, [r3, #0]
 8000866:	4770      	bx	lr
 8000868:	24000a34 	.word	0x24000a34

0800086c <vOR_B>:

/*********************0xBX*/
void vOR_B(){         reg.A |= reg.B; reg.F = (reg.A == 0) ? 0x80 : 0x00;}
 800086c:	4b05      	ldr	r3, [pc, #20]	; (8000884 <vOR_B+0x18>)
 800086e:	785a      	ldrb	r2, [r3, #1]
 8000870:	78d9      	ldrb	r1, [r3, #3]
 8000872:	430a      	orrs	r2, r1
 8000874:	2a00      	cmp	r2, #0
 8000876:	705a      	strb	r2, [r3, #1]
 8000878:	bf0c      	ite	eq
 800087a:	2280      	moveq	r2, #128	; 0x80
 800087c:	2200      	movne	r2, #0
 800087e:	701a      	strb	r2, [r3, #0]
 8000880:	4770      	bx	lr
 8000882:	bf00      	nop
 8000884:	24000a34 	.word	0x24000a34

08000888 <vOR_C>:
void vOR_C(){         reg.A |= reg.C; reg.F = (reg.A == 0) ? 0x80 : 0x00;}
 8000888:	4b05      	ldr	r3, [pc, #20]	; (80008a0 <vOR_C+0x18>)
 800088a:	785a      	ldrb	r2, [r3, #1]
 800088c:	7899      	ldrb	r1, [r3, #2]
 800088e:	430a      	orrs	r2, r1
 8000890:	2a00      	cmp	r2, #0
 8000892:	705a      	strb	r2, [r3, #1]
 8000894:	bf0c      	ite	eq
 8000896:	2280      	moveq	r2, #128	; 0x80
 8000898:	2200      	movne	r2, #0
 800089a:	701a      	strb	r2, [r3, #0]
 800089c:	4770      	bx	lr
 800089e:	bf00      	nop
 80008a0:	24000a34 	.word	0x24000a34

080008a4 <vOR_D>:
void vOR_D(){         reg.A |= reg.D; reg.F = (reg.A == 0) ? 0x80 : 0x00;}
 80008a4:	4b05      	ldr	r3, [pc, #20]	; (80008bc <vOR_D+0x18>)
 80008a6:	785a      	ldrb	r2, [r3, #1]
 80008a8:	7959      	ldrb	r1, [r3, #5]
 80008aa:	430a      	orrs	r2, r1
 80008ac:	2a00      	cmp	r2, #0
 80008ae:	705a      	strb	r2, [r3, #1]
 80008b0:	bf0c      	ite	eq
 80008b2:	2280      	moveq	r2, #128	; 0x80
 80008b4:	2200      	movne	r2, #0
 80008b6:	701a      	strb	r2, [r3, #0]
 80008b8:	4770      	bx	lr
 80008ba:	bf00      	nop
 80008bc:	24000a34 	.word	0x24000a34

080008c0 <vOR_E>:
void vOR_E(){         reg.A |= reg.E; reg.F = (reg.A == 0) ? 0x80 : 0x00;}
 80008c0:	4b05      	ldr	r3, [pc, #20]	; (80008d8 <vOR_E+0x18>)
 80008c2:	785a      	ldrb	r2, [r3, #1]
 80008c4:	7919      	ldrb	r1, [r3, #4]
 80008c6:	430a      	orrs	r2, r1
 80008c8:	2a00      	cmp	r2, #0
 80008ca:	705a      	strb	r2, [r3, #1]
 80008cc:	bf0c      	ite	eq
 80008ce:	2280      	moveq	r2, #128	; 0x80
 80008d0:	2200      	movne	r2, #0
 80008d2:	701a      	strb	r2, [r3, #0]
 80008d4:	4770      	bx	lr
 80008d6:	bf00      	nop
 80008d8:	24000a34 	.word	0x24000a34

080008dc <vOR_H>:
void vOR_H(){         reg.A |= reg.H; reg.F = (reg.A == 0) ? 0x80 : 0x00;}
 80008dc:	4b05      	ldr	r3, [pc, #20]	; (80008f4 <vOR_H+0x18>)
 80008de:	785a      	ldrb	r2, [r3, #1]
 80008e0:	79d9      	ldrb	r1, [r3, #7]
 80008e2:	430a      	orrs	r2, r1
 80008e4:	2a00      	cmp	r2, #0
 80008e6:	705a      	strb	r2, [r3, #1]
 80008e8:	bf0c      	ite	eq
 80008ea:	2280      	moveq	r2, #128	; 0x80
 80008ec:	2200      	movne	r2, #0
 80008ee:	701a      	strb	r2, [r3, #0]
 80008f0:	4770      	bx	lr
 80008f2:	bf00      	nop
 80008f4:	24000a34 	.word	0x24000a34

080008f8 <vOR_L>:
void vOR_L(){         reg.A |= reg.L; reg.F = (reg.A == 0) ? 0x80 : 0x00;}
 80008f8:	4b05      	ldr	r3, [pc, #20]	; (8000910 <vOR_L+0x18>)
 80008fa:	785a      	ldrb	r2, [r3, #1]
 80008fc:	7999      	ldrb	r1, [r3, #6]
 80008fe:	430a      	orrs	r2, r1
 8000900:	2a00      	cmp	r2, #0
 8000902:	705a      	strb	r2, [r3, #1]
 8000904:	bf0c      	ite	eq
 8000906:	2280      	moveq	r2, #128	; 0x80
 8000908:	2200      	movne	r2, #0
 800090a:	701a      	strb	r2, [r3, #0]
 800090c:	4770      	bx	lr
 800090e:	bf00      	nop
 8000910:	24000a34 	.word	0x24000a34

08000914 <vOR_A>:
void vOR_HL(){        reg.A |= ucGBMemoryRead(reg.HL); reg.F = (reg.A == 0) ? 0x80 : 0x00;}
void vOR_A(){         reg.A |= reg.A; reg.F = (reg.A == 0) ? 0x80 : 0x00;}
 8000914:	4b03      	ldr	r3, [pc, #12]	; (8000924 <vOR_A+0x10>)
 8000916:	785a      	ldrb	r2, [r3, #1]
 8000918:	2a00      	cmp	r2, #0
 800091a:	bf0c      	ite	eq
 800091c:	2280      	moveq	r2, #128	; 0x80
 800091e:	2200      	movne	r2, #0
 8000920:	701a      	strb	r2, [r3, #0]
 8000922:	4770      	bx	lr
 8000924:	24000a34 	.word	0x24000a34

08000928 <vJP_HL>:
// -----------
void vPUSH_HL(){      vGBFunctionPUSH(&reg.SP, &reg.HL);}
void vAND_d8(){       reg.A &= ucGBMemoryRead(reg.PC - 1); reg.F = (reg.A == 0) ? 0xA0 : 0x20;}
void vRST20H(){       vGBFunctionPUSH(&reg.SP, &reg.PC); reg.PC = 0x0020;}
void vADDs_SP_r8(){   vGBFunctionADD_SP_r8(&reg.SP, &reg.F, ucGBMemoryRead(reg.PC - 1));}
void vJP_HL(){        reg.PC = reg.HL;}
 8000928:	4b01      	ldr	r3, [pc, #4]	; (8000930 <vJP_HL+0x8>)
 800092a:	88da      	ldrh	r2, [r3, #6]
 800092c:	815a      	strh	r2, [r3, #10]
 800092e:	4770      	bx	lr
 8000930:	24000a34 	.word	0x24000a34

08000934 <vDI>:

/*0xFX*/
void vLDH_A_a8(){     reg.A = ucGBMemoryRead(0xFF00 + ucGBMemoryRead(reg.PC - 1));}
void vPOP_AF(){       vGBFunctionPOP(&reg.SP, &reg.AF);}
void vLD_A_fC(){      reg.A = ucGBMemoryRead(0xFF00 + reg.C);}
void vDI(){           InterruptDisabled = 1;}
 8000934:	4b01      	ldr	r3, [pc, #4]	; (800093c <vDI+0x8>)
 8000936:	2201      	movs	r2, #1
 8000938:	701a      	strb	r2, [r3, #0]
 800093a:	4770      	bx	lr
 800093c:	240008e4 	.word	0x240008e4

08000940 <vLDs_SP_HL>:
// -----------
void vPUSH_AF(){      vGBFunctionPUSH(&reg.SP, &reg.AF);}
void vOR_d8(){        reg.A |= ucGBMemoryRead(reg.PC - 1); reg.F = (reg.A == 0) ? 0x80 : 0x00;}
void vRST_30H(){      vGBFunctionPUSH(&reg.SP, &reg.PC); reg.PC = 0x0030;}
void vLDs_HL_SP_r8(){ vGBFunctionLD_HL_SP_r8(&reg.HL, &reg.SP, &reg.F, ucGBMemoryRead(reg.PC - 1));}
void vLDs_SP_HL(){    reg.SP = reg.HL;}
 8000940:	4b01      	ldr	r3, [pc, #4]	; (8000948 <vLDs_SP_HL+0x8>)
 8000942:	88da      	ldrh	r2, [r3, #6]
 8000944:	811a      	strh	r2, [r3, #8]
 8000946:	4770      	bx	lr
 8000948:	24000a34 	.word	0x24000a34

0800094c <vEI>:
void vLD_A_a16(){     reg.A = ucGBMemoryRead(concat_16bit_bigEndian(ucGBMemoryRead(reg.PC - 2), ucGBMemoryRead(reg.PC - 1)));}
void vEI(){           InterruptDisabled = 0;}
 800094c:	4b01      	ldr	r3, [pc, #4]	; (8000954 <vEI+0x8>)
 800094e:	2200      	movs	r2, #0
 8000950:	701a      	strb	r2, [r3, #0]
 8000952:	4770      	bx	lr
 8000954:	240008e4 	.word	0x240008e4

08000958 <vLD_B_d8>:
void vLD_B_d8(){      reg.B = ucGBMemoryRead(reg.PC - 1);}
 8000958:	b510      	push	{r4, lr}
 800095a:	4c04      	ldr	r4, [pc, #16]	; (800096c <vLD_B_d8+0x14>)
 800095c:	8960      	ldrh	r0, [r4, #10]
 800095e:	3801      	subs	r0, #1
 8000960:	b280      	uxth	r0, r0
 8000962:	f001 fb33 	bl	8001fcc <ucGBMemoryRead>
 8000966:	70e0      	strb	r0, [r4, #3]
 8000968:	bd10      	pop	{r4, pc}
 800096a:	bf00      	nop
 800096c:	24000a34 	.word	0x24000a34

08000970 <vLD_A_BC>:
void vLD_A_BC(){      reg.A = ucGBMemoryRead(reg.BC);}
 8000970:	b510      	push	{r4, lr}
 8000972:	4c03      	ldr	r4, [pc, #12]	; (8000980 <vLD_A_BC+0x10>)
 8000974:	8860      	ldrh	r0, [r4, #2]
 8000976:	f001 fb29 	bl	8001fcc <ucGBMemoryRead>
 800097a:	7060      	strb	r0, [r4, #1]
 800097c:	bd10      	pop	{r4, pc}
 800097e:	bf00      	nop
 8000980:	24000a34 	.word	0x24000a34

08000984 <vLD_C_d8>:
void vLD_C_d8(){      reg.C = ucGBMemoryRead(reg.PC - 1);}
 8000984:	b510      	push	{r4, lr}
 8000986:	4c04      	ldr	r4, [pc, #16]	; (8000998 <vLD_C_d8+0x14>)
 8000988:	8960      	ldrh	r0, [r4, #10]
 800098a:	3801      	subs	r0, #1
 800098c:	b280      	uxth	r0, r0
 800098e:	f001 fb1d 	bl	8001fcc <ucGBMemoryRead>
 8000992:	70a0      	strb	r0, [r4, #2]
 8000994:	bd10      	pop	{r4, pc}
 8000996:	bf00      	nop
 8000998:	24000a34 	.word	0x24000a34

0800099c <vLD_D_d8>:
void vLD_D_d8(){      reg.D = ucGBMemoryRead(reg.PC - 1);}
 800099c:	b510      	push	{r4, lr}
 800099e:	4c04      	ldr	r4, [pc, #16]	; (80009b0 <vLD_D_d8+0x14>)
 80009a0:	8960      	ldrh	r0, [r4, #10]
 80009a2:	3801      	subs	r0, #1
 80009a4:	b280      	uxth	r0, r0
 80009a6:	f001 fb11 	bl	8001fcc <ucGBMemoryRead>
 80009aa:	7160      	strb	r0, [r4, #5]
 80009ac:	bd10      	pop	{r4, pc}
 80009ae:	bf00      	nop
 80009b0:	24000a34 	.word	0x24000a34

080009b4 <vJR_r8>:
void vJR_r8(){        reg.PC += (int8_t) ucGBMemoryRead(reg.PC - 1);}
 80009b4:	b510      	push	{r4, lr}
 80009b6:	4c05      	ldr	r4, [pc, #20]	; (80009cc <vJR_r8+0x18>)
 80009b8:	8960      	ldrh	r0, [r4, #10]
 80009ba:	3801      	subs	r0, #1
 80009bc:	b280      	uxth	r0, r0
 80009be:	f001 fb05 	bl	8001fcc <ucGBMemoryRead>
 80009c2:	8963      	ldrh	r3, [r4, #10]
 80009c4:	fa43 f080 	sxtab	r0, r3, r0
 80009c8:	8160      	strh	r0, [r4, #10]
 80009ca:	bd10      	pop	{r4, pc}
 80009cc:	24000a34 	.word	0x24000a34

080009d0 <vLD_A_DE>:
void vLD_A_DE(){      reg.A = ucGBMemoryRead(reg.DE);}
 80009d0:	b510      	push	{r4, lr}
 80009d2:	4c03      	ldr	r4, [pc, #12]	; (80009e0 <vLD_A_DE+0x10>)
 80009d4:	88a0      	ldrh	r0, [r4, #4]
 80009d6:	f001 faf9 	bl	8001fcc <ucGBMemoryRead>
 80009da:	7060      	strb	r0, [r4, #1]
 80009dc:	bd10      	pop	{r4, pc}
 80009de:	bf00      	nop
 80009e0:	24000a34 	.word	0x24000a34

080009e4 <vLD_E_d8>:
void vLD_E_d8(){      reg.E = ucGBMemoryRead(reg.PC - 1);}
 80009e4:	b510      	push	{r4, lr}
 80009e6:	4c04      	ldr	r4, [pc, #16]	; (80009f8 <vLD_E_d8+0x14>)
 80009e8:	8960      	ldrh	r0, [r4, #10]
 80009ea:	3801      	subs	r0, #1
 80009ec:	b280      	uxth	r0, r0
 80009ee:	f001 faed 	bl	8001fcc <ucGBMemoryRead>
 80009f2:	7120      	strb	r0, [r4, #4]
 80009f4:	bd10      	pop	{r4, pc}
 80009f6:	bf00      	nop
 80009f8:	24000a34 	.word	0x24000a34

080009fc <vLD_H_d8>:
void vLD_H_d8(){      reg.H = ucGBMemoryRead(reg.PC - 1);}
 80009fc:	b510      	push	{r4, lr}
 80009fe:	4c04      	ldr	r4, [pc, #16]	; (8000a10 <vLD_H_d8+0x14>)
 8000a00:	8960      	ldrh	r0, [r4, #10]
 8000a02:	3801      	subs	r0, #1
 8000a04:	b280      	uxth	r0, r0
 8000a06:	f001 fae1 	bl	8001fcc <ucGBMemoryRead>
 8000a0a:	71e0      	strb	r0, [r4, #7]
 8000a0c:	bd10      	pop	{r4, pc}
 8000a0e:	bf00      	nop
 8000a10:	24000a34 	.word	0x24000a34

08000a14 <vLD_L_d8>:
 8000a14:	f7ff bff2 	b.w	80009fc <vLD_H_d8>

08000a18 <vLD_A_HLI>:
void vLD_A_HLI(){     reg.A = ucGBMemoryRead(reg.HL); reg.HL++;}
 8000a18:	b510      	push	{r4, lr}
 8000a1a:	4c04      	ldr	r4, [pc, #16]	; (8000a2c <vLD_A_HLI+0x14>)
 8000a1c:	88e0      	ldrh	r0, [r4, #6]
 8000a1e:	f001 fad5 	bl	8001fcc <ucGBMemoryRead>
 8000a22:	88e3      	ldrh	r3, [r4, #6]
 8000a24:	7060      	strb	r0, [r4, #1]
 8000a26:	3301      	adds	r3, #1
 8000a28:	80e3      	strh	r3, [r4, #6]
 8000a2a:	bd10      	pop	{r4, pc}
 8000a2c:	24000a34 	.word	0x24000a34

08000a30 <vLD_A_HLD>:
void vLD_A_HLD(){     reg.A = ucGBMemoryRead(reg.HL); reg.HL--;}
 8000a30:	b510      	push	{r4, lr}
 8000a32:	4c04      	ldr	r4, [pc, #16]	; (8000a44 <vLD_A_HLD+0x14>)
 8000a34:	88e0      	ldrh	r0, [r4, #6]
 8000a36:	f001 fac9 	bl	8001fcc <ucGBMemoryRead>
 8000a3a:	88e3      	ldrh	r3, [r4, #6]
 8000a3c:	7060      	strb	r0, [r4, #1]
 8000a3e:	3b01      	subs	r3, #1
 8000a40:	80e3      	strh	r3, [r4, #6]
 8000a42:	bd10      	pop	{r4, pc}
 8000a44:	24000a34 	.word	0x24000a34

08000a48 <vLD_A_d8>:
void vLD_A_d8(){      reg.A = ucGBMemoryRead(reg.PC - 1);}
 8000a48:	b510      	push	{r4, lr}
 8000a4a:	4c04      	ldr	r4, [pc, #16]	; (8000a5c <vLD_A_d8+0x14>)
 8000a4c:	8960      	ldrh	r0, [r4, #10]
 8000a4e:	3801      	subs	r0, #1
 8000a50:	b280      	uxth	r0, r0
 8000a52:	f001 fabb 	bl	8001fcc <ucGBMemoryRead>
 8000a56:	7060      	strb	r0, [r4, #1]
 8000a58:	bd10      	pop	{r4, pc}
 8000a5a:	bf00      	nop
 8000a5c:	24000a34 	.word	0x24000a34

08000a60 <vLD_B_HL>:
void vLD_B_HL(){      reg.B = ucGBMemoryRead(reg.HL);}
 8000a60:	b510      	push	{r4, lr}
 8000a62:	4c03      	ldr	r4, [pc, #12]	; (8000a70 <vLD_B_HL+0x10>)
 8000a64:	88e0      	ldrh	r0, [r4, #6]
 8000a66:	f001 fab1 	bl	8001fcc <ucGBMemoryRead>
 8000a6a:	70e0      	strb	r0, [r4, #3]
 8000a6c:	bd10      	pop	{r4, pc}
 8000a6e:	bf00      	nop
 8000a70:	24000a34 	.word	0x24000a34

08000a74 <vLD_C_HL>:
void vLD_C_HL(){      reg.C = ucGBMemoryRead(reg.HL);}
 8000a74:	b510      	push	{r4, lr}
 8000a76:	4c03      	ldr	r4, [pc, #12]	; (8000a84 <vLD_C_HL+0x10>)
 8000a78:	88e0      	ldrh	r0, [r4, #6]
 8000a7a:	f001 faa7 	bl	8001fcc <ucGBMemoryRead>
 8000a7e:	70a0      	strb	r0, [r4, #2]
 8000a80:	bd10      	pop	{r4, pc}
 8000a82:	bf00      	nop
 8000a84:	24000a34 	.word	0x24000a34

08000a88 <vLD_D_HL>:
void vLD_D_HL(){      reg.D = ucGBMemoryRead(reg.HL);}
 8000a88:	b510      	push	{r4, lr}
 8000a8a:	4c03      	ldr	r4, [pc, #12]	; (8000a98 <vLD_D_HL+0x10>)
 8000a8c:	88e0      	ldrh	r0, [r4, #6]
 8000a8e:	f001 fa9d 	bl	8001fcc <ucGBMemoryRead>
 8000a92:	7160      	strb	r0, [r4, #5]
 8000a94:	bd10      	pop	{r4, pc}
 8000a96:	bf00      	nop
 8000a98:	24000a34 	.word	0x24000a34

08000a9c <vLD_E_HL>:
void vLD_E_HL(){      reg.E = ucGBMemoryRead(reg.HL);}
 8000a9c:	b510      	push	{r4, lr}
 8000a9e:	4c03      	ldr	r4, [pc, #12]	; (8000aac <vLD_E_HL+0x10>)
 8000aa0:	88e0      	ldrh	r0, [r4, #6]
 8000aa2:	f001 fa93 	bl	8001fcc <ucGBMemoryRead>
 8000aa6:	7120      	strb	r0, [r4, #4]
 8000aa8:	bd10      	pop	{r4, pc}
 8000aaa:	bf00      	nop
 8000aac:	24000a34 	.word	0x24000a34

08000ab0 <vLD_H_HL>:
void vLD_H_HL(){      reg.H = ucGBMemoryRead(reg.HL);}
 8000ab0:	b510      	push	{r4, lr}
 8000ab2:	4c03      	ldr	r4, [pc, #12]	; (8000ac0 <vLD_H_HL+0x10>)
 8000ab4:	88e0      	ldrh	r0, [r4, #6]
 8000ab6:	f001 fa89 	bl	8001fcc <ucGBMemoryRead>
 8000aba:	71e0      	strb	r0, [r4, #7]
 8000abc:	bd10      	pop	{r4, pc}
 8000abe:	bf00      	nop
 8000ac0:	24000a34 	.word	0x24000a34

08000ac4 <vLD_L_HL>:
void vLD_L_HL(){      reg.L = ucGBMemoryRead(reg.HL);}
 8000ac4:	b510      	push	{r4, lr}
 8000ac6:	4c03      	ldr	r4, [pc, #12]	; (8000ad4 <vLD_L_HL+0x10>)
 8000ac8:	88e0      	ldrh	r0, [r4, #6]
 8000aca:	f001 fa7f 	bl	8001fcc <ucGBMemoryRead>
 8000ace:	71a0      	strb	r0, [r4, #6]
 8000ad0:	bd10      	pop	{r4, pc}
 8000ad2:	bf00      	nop
 8000ad4:	24000a34 	.word	0x24000a34

08000ad8 <vLD_A_HL>:
void vLD_A_HL(){      reg.A = ucGBMemoryRead(reg.HL);}
 8000ad8:	b510      	push	{r4, lr}
 8000ada:	4c03      	ldr	r4, [pc, #12]	; (8000ae8 <vLD_A_HL+0x10>)
 8000adc:	88e0      	ldrh	r0, [r4, #6]
 8000ade:	f001 fa75 	bl	8001fcc <ucGBMemoryRead>
 8000ae2:	7060      	strb	r0, [r4, #1]
 8000ae4:	bd10      	pop	{r4, pc}
 8000ae6:	bf00      	nop
 8000ae8:	24000a34 	.word	0x24000a34

08000aec <vAND_HL>:
void vAND_HL(){       reg.A &= ucGBMemoryRead(reg.HL); reg.F = (reg.A == 0) ? 0xA0 : 0x20;}
 8000aec:	b510      	push	{r4, lr}
 8000aee:	4c06      	ldr	r4, [pc, #24]	; (8000b08 <vAND_HL+0x1c>)
 8000af0:	88e0      	ldrh	r0, [r4, #6]
 8000af2:	f001 fa6b 	bl	8001fcc <ucGBMemoryRead>
 8000af6:	7863      	ldrb	r3, [r4, #1]
 8000af8:	4018      	ands	r0, r3
 8000afa:	2800      	cmp	r0, #0
 8000afc:	7060      	strb	r0, [r4, #1]
 8000afe:	bf0c      	ite	eq
 8000b00:	23a0      	moveq	r3, #160	; 0xa0
 8000b02:	2320      	movne	r3, #32
 8000b04:	7023      	strb	r3, [r4, #0]
 8000b06:	bd10      	pop	{r4, pc}
 8000b08:	24000a34 	.word	0x24000a34

08000b0c <vXOR_HL>:
void vXOR_HL(){       reg.A ^= ucGBMemoryRead(reg.HL); reg.F = (reg.A == 0) ? 0x80 : 0x00;}
 8000b0c:	b510      	push	{r4, lr}
 8000b0e:	4c07      	ldr	r4, [pc, #28]	; (8000b2c <vXOR_HL+0x20>)
 8000b10:	88e0      	ldrh	r0, [r4, #6]
 8000b12:	f001 fa5b 	bl	8001fcc <ucGBMemoryRead>
 8000b16:	7863      	ldrb	r3, [r4, #1]
 8000b18:	ea83 0200 	eor.w	r2, r3, r0
 8000b1c:	4283      	cmp	r3, r0
 8000b1e:	bf0c      	ite	eq
 8000b20:	2080      	moveq	r0, #128	; 0x80
 8000b22:	2000      	movne	r0, #0
 8000b24:	7062      	strb	r2, [r4, #1]
 8000b26:	7020      	strb	r0, [r4, #0]
 8000b28:	bd10      	pop	{r4, pc}
 8000b2a:	bf00      	nop
 8000b2c:	24000a34 	.word	0x24000a34

08000b30 <vOR_HL>:
void vOR_HL(){        reg.A |= ucGBMemoryRead(reg.HL); reg.F = (reg.A == 0) ? 0x80 : 0x00;}
 8000b30:	b510      	push	{r4, lr}
 8000b32:	4c07      	ldr	r4, [pc, #28]	; (8000b50 <vOR_HL+0x20>)
 8000b34:	88e0      	ldrh	r0, [r4, #6]
 8000b36:	f001 fa49 	bl	8001fcc <ucGBMemoryRead>
 8000b3a:	7863      	ldrb	r3, [r4, #1]
 8000b3c:	4318      	orrs	r0, r3
 8000b3e:	b2c0      	uxtb	r0, r0
 8000b40:	2800      	cmp	r0, #0
 8000b42:	7060      	strb	r0, [r4, #1]
 8000b44:	bf0c      	ite	eq
 8000b46:	2380      	moveq	r3, #128	; 0x80
 8000b48:	2300      	movne	r3, #0
 8000b4a:	7023      	strb	r3, [r4, #0]
 8000b4c:	bd10      	pop	{r4, pc}
 8000b4e:	bf00      	nop
 8000b50:	24000a34 	.word	0x24000a34

08000b54 <vAND_d8>:
void vAND_d8(){       reg.A &= ucGBMemoryRead(reg.PC - 1); reg.F = (reg.A == 0) ? 0xA0 : 0x20;}
 8000b54:	b510      	push	{r4, lr}
 8000b56:	4c07      	ldr	r4, [pc, #28]	; (8000b74 <vAND_d8+0x20>)
 8000b58:	8960      	ldrh	r0, [r4, #10]
 8000b5a:	3801      	subs	r0, #1
 8000b5c:	b280      	uxth	r0, r0
 8000b5e:	f001 fa35 	bl	8001fcc <ucGBMemoryRead>
 8000b62:	7863      	ldrb	r3, [r4, #1]
 8000b64:	4018      	ands	r0, r3
 8000b66:	2800      	cmp	r0, #0
 8000b68:	7060      	strb	r0, [r4, #1]
 8000b6a:	bf0c      	ite	eq
 8000b6c:	23a0      	moveq	r3, #160	; 0xa0
 8000b6e:	2320      	movne	r3, #32
 8000b70:	7023      	strb	r3, [r4, #0]
 8000b72:	bd10      	pop	{r4, pc}
 8000b74:	24000a34 	.word	0x24000a34

08000b78 <vXOR_d8>:
void vXOR_d8(){       reg.A ^= ucGBMemoryRead(reg.PC - 1); reg.F = (reg.A == 0) ? 0x80 : 0x00;}
 8000b78:	b510      	push	{r4, lr}
 8000b7a:	4c08      	ldr	r4, [pc, #32]	; (8000b9c <vXOR_d8+0x24>)
 8000b7c:	8960      	ldrh	r0, [r4, #10]
 8000b7e:	3801      	subs	r0, #1
 8000b80:	b280      	uxth	r0, r0
 8000b82:	f001 fa23 	bl	8001fcc <ucGBMemoryRead>
 8000b86:	7863      	ldrb	r3, [r4, #1]
 8000b88:	ea83 0200 	eor.w	r2, r3, r0
 8000b8c:	4283      	cmp	r3, r0
 8000b8e:	bf0c      	ite	eq
 8000b90:	2080      	moveq	r0, #128	; 0x80
 8000b92:	2000      	movne	r0, #0
 8000b94:	7062      	strb	r2, [r4, #1]
 8000b96:	7020      	strb	r0, [r4, #0]
 8000b98:	bd10      	pop	{r4, pc}
 8000b9a:	bf00      	nop
 8000b9c:	24000a34 	.word	0x24000a34

08000ba0 <vLDH_A_a8>:
void vLDH_A_a8(){     reg.A = ucGBMemoryRead(0xFF00 + ucGBMemoryRead(reg.PC - 1));}
 8000ba0:	b510      	push	{r4, lr}
 8000ba2:	4c06      	ldr	r4, [pc, #24]	; (8000bbc <vLDH_A_a8+0x1c>)
 8000ba4:	8960      	ldrh	r0, [r4, #10]
 8000ba6:	3801      	subs	r0, #1
 8000ba8:	b280      	uxth	r0, r0
 8000baa:	f001 fa0f 	bl	8001fcc <ucGBMemoryRead>
 8000bae:	f5a0 7080 	sub.w	r0, r0, #256	; 0x100
 8000bb2:	b280      	uxth	r0, r0
 8000bb4:	f001 fa0a 	bl	8001fcc <ucGBMemoryRead>
 8000bb8:	7060      	strb	r0, [r4, #1]
 8000bba:	bd10      	pop	{r4, pc}
 8000bbc:	24000a34 	.word	0x24000a34

08000bc0 <vLD_A_fC>:
void vLD_A_fC(){      reg.A = ucGBMemoryRead(0xFF00 + reg.C);}
 8000bc0:	b510      	push	{r4, lr}
 8000bc2:	4c04      	ldr	r4, [pc, #16]	; (8000bd4 <vLD_A_fC+0x14>)
 8000bc4:	78a0      	ldrb	r0, [r4, #2]
 8000bc6:	f5a0 7080 	sub.w	r0, r0, #256	; 0x100
 8000bca:	b280      	uxth	r0, r0
 8000bcc:	f001 f9fe 	bl	8001fcc <ucGBMemoryRead>
 8000bd0:	7060      	strb	r0, [r4, #1]
 8000bd2:	bd10      	pop	{r4, pc}
 8000bd4:	24000a34 	.word	0x24000a34

08000bd8 <vOR_d8>:
void vOR_d8(){        reg.A |= ucGBMemoryRead(reg.PC - 1); reg.F = (reg.A == 0) ? 0x80 : 0x00;}
 8000bd8:	b510      	push	{r4, lr}
 8000bda:	4c08      	ldr	r4, [pc, #32]	; (8000bfc <vOR_d8+0x24>)
 8000bdc:	8960      	ldrh	r0, [r4, #10]
 8000bde:	3801      	subs	r0, #1
 8000be0:	b280      	uxth	r0, r0
 8000be2:	f001 f9f3 	bl	8001fcc <ucGBMemoryRead>
 8000be6:	7863      	ldrb	r3, [r4, #1]
 8000be8:	4318      	orrs	r0, r3
 8000bea:	b2c0      	uxtb	r0, r0
 8000bec:	2800      	cmp	r0, #0
 8000bee:	7060      	strb	r0, [r4, #1]
 8000bf0:	bf0c      	ite	eq
 8000bf2:	2380      	moveq	r3, #128	; 0x80
 8000bf4:	2300      	movne	r3, #0
 8000bf6:	7023      	strb	r3, [r4, #0]
 8000bf8:	bd10      	pop	{r4, pc}
 8000bfa:	bf00      	nop
 8000bfc:	24000a34 	.word	0x24000a34

08000c00 <vLDs_BC_d16>:
void vLDs_BC_d16(){   reg.BC = concat_16bit_bigEndian(ucGBMemoryRead(reg.PC - 2), ucGBMemoryRead(reg.PC - 1));}
 8000c00:	b538      	push	{r3, r4, r5, lr}
 8000c02:	4c09      	ldr	r4, [pc, #36]	; (8000c28 <vLDs_BC_d16+0x28>)
 8000c04:	8960      	ldrh	r0, [r4, #10]
 8000c06:	3802      	subs	r0, #2
 8000c08:	b280      	uxth	r0, r0
 8000c0a:	f001 f9df 	bl	8001fcc <ucGBMemoryRead>
 8000c0e:	8963      	ldrh	r3, [r4, #10]
 8000c10:	4605      	mov	r5, r0
 8000c12:	1e58      	subs	r0, r3, #1
 8000c14:	b280      	uxth	r0, r0
 8000c16:	f001 f9d9 	bl	8001fcc <ucGBMemoryRead>
 8000c1a:	4601      	mov	r1, r0
 8000c1c:	4628      	mov	r0, r5
 8000c1e:	f000 fe55 	bl	80018cc <concat_16bit_bigEndian>
 8000c22:	8060      	strh	r0, [r4, #2]
 8000c24:	bd38      	pop	{r3, r4, r5, pc}
 8000c26:	bf00      	nop
 8000c28:	24000a34 	.word	0x24000a34

08000c2c <vLDs_DE_d16>:
void vLDs_DE_d16(){   reg.DE = concat_16bit_bigEndian(ucGBMemoryRead(reg.PC - 2), ucGBMemoryRead(reg.PC - 1));}
 8000c2c:	b538      	push	{r3, r4, r5, lr}
 8000c2e:	4c09      	ldr	r4, [pc, #36]	; (8000c54 <vLDs_DE_d16+0x28>)
 8000c30:	8960      	ldrh	r0, [r4, #10]
 8000c32:	3802      	subs	r0, #2
 8000c34:	b280      	uxth	r0, r0
 8000c36:	f001 f9c9 	bl	8001fcc <ucGBMemoryRead>
 8000c3a:	8963      	ldrh	r3, [r4, #10]
 8000c3c:	4605      	mov	r5, r0
 8000c3e:	1e58      	subs	r0, r3, #1
 8000c40:	b280      	uxth	r0, r0
 8000c42:	f001 f9c3 	bl	8001fcc <ucGBMemoryRead>
 8000c46:	4601      	mov	r1, r0
 8000c48:	4628      	mov	r0, r5
 8000c4a:	f000 fe3f 	bl	80018cc <concat_16bit_bigEndian>
 8000c4e:	80a0      	strh	r0, [r4, #4]
 8000c50:	bd38      	pop	{r3, r4, r5, pc}
 8000c52:	bf00      	nop
 8000c54:	24000a34 	.word	0x24000a34

08000c58 <vLDs_HL_d16>:
void vLDs_HL_d16(){   reg.HL = concat_16bit_bigEndian(ucGBMemoryRead(reg.PC - 2), ucGBMemoryRead(reg.PC - 1));}
 8000c58:	b538      	push	{r3, r4, r5, lr}
 8000c5a:	4c09      	ldr	r4, [pc, #36]	; (8000c80 <vLDs_HL_d16+0x28>)
 8000c5c:	8960      	ldrh	r0, [r4, #10]
 8000c5e:	3802      	subs	r0, #2
 8000c60:	b280      	uxth	r0, r0
 8000c62:	f001 f9b3 	bl	8001fcc <ucGBMemoryRead>
 8000c66:	8963      	ldrh	r3, [r4, #10]
 8000c68:	4605      	mov	r5, r0
 8000c6a:	1e58      	subs	r0, r3, #1
 8000c6c:	b280      	uxth	r0, r0
 8000c6e:	f001 f9ad 	bl	8001fcc <ucGBMemoryRead>
 8000c72:	4601      	mov	r1, r0
 8000c74:	4628      	mov	r0, r5
 8000c76:	f000 fe29 	bl	80018cc <concat_16bit_bigEndian>
 8000c7a:	80e0      	strh	r0, [r4, #6]
 8000c7c:	bd38      	pop	{r3, r4, r5, pc}
 8000c7e:	bf00      	nop
 8000c80:	24000a34 	.word	0x24000a34

08000c84 <vLDs_SP_d16>:
void vLDs_SP_d16(){   reg.SP = concat_16bit_bigEndian(ucGBMemoryRead(reg.PC - 2), ucGBMemoryRead(reg.PC - 1));}
 8000c84:	b538      	push	{r3, r4, r5, lr}
 8000c86:	4c09      	ldr	r4, [pc, #36]	; (8000cac <vLDs_SP_d16+0x28>)
 8000c88:	8960      	ldrh	r0, [r4, #10]
 8000c8a:	3802      	subs	r0, #2
 8000c8c:	b280      	uxth	r0, r0
 8000c8e:	f001 f99d 	bl	8001fcc <ucGBMemoryRead>
 8000c92:	8963      	ldrh	r3, [r4, #10]
 8000c94:	4605      	mov	r5, r0
 8000c96:	1e58      	subs	r0, r3, #1
 8000c98:	b280      	uxth	r0, r0
 8000c9a:	f001 f997 	bl	8001fcc <ucGBMemoryRead>
 8000c9e:	4601      	mov	r1, r0
 8000ca0:	4628      	mov	r0, r5
 8000ca2:	f000 fe13 	bl	80018cc <concat_16bit_bigEndian>
 8000ca6:	8120      	strh	r0, [r4, #8]
 8000ca8:	bd38      	pop	{r3, r4, r5, pc}
 8000caa:	bf00      	nop
 8000cac:	24000a34 	.word	0x24000a34

08000cb0 <vJP_a16>:
void vJP_a16(){       reg.PC = concat_16bit_bigEndian(ucGBMemoryRead(reg.PC - 2), ucGBMemoryRead(reg.PC - 1));}
 8000cb0:	b538      	push	{r3, r4, r5, lr}
 8000cb2:	4c09      	ldr	r4, [pc, #36]	; (8000cd8 <vJP_a16+0x28>)
 8000cb4:	8960      	ldrh	r0, [r4, #10]
 8000cb6:	3802      	subs	r0, #2
 8000cb8:	b280      	uxth	r0, r0
 8000cba:	f001 f987 	bl	8001fcc <ucGBMemoryRead>
 8000cbe:	8963      	ldrh	r3, [r4, #10]
 8000cc0:	4605      	mov	r5, r0
 8000cc2:	1e58      	subs	r0, r3, #1
 8000cc4:	b280      	uxth	r0, r0
 8000cc6:	f001 f981 	bl	8001fcc <ucGBMemoryRead>
 8000cca:	4601      	mov	r1, r0
 8000ccc:	4628      	mov	r0, r5
 8000cce:	f000 fdfd 	bl	80018cc <concat_16bit_bigEndian>
 8000cd2:	8160      	strh	r0, [r4, #10]
 8000cd4:	bd38      	pop	{r3, r4, r5, pc}
 8000cd6:	bf00      	nop
 8000cd8:	24000a34 	.word	0x24000a34

08000cdc <vLD_A_a16>:
void vLD_A_a16(){     reg.A = ucGBMemoryRead(concat_16bit_bigEndian(ucGBMemoryRead(reg.PC - 2), ucGBMemoryRead(reg.PC - 1)));}
 8000cdc:	b538      	push	{r3, r4, r5, lr}
 8000cde:	4c0a      	ldr	r4, [pc, #40]	; (8000d08 <vLD_A_a16+0x2c>)
 8000ce0:	8960      	ldrh	r0, [r4, #10]
 8000ce2:	3802      	subs	r0, #2
 8000ce4:	b280      	uxth	r0, r0
 8000ce6:	f001 f971 	bl	8001fcc <ucGBMemoryRead>
 8000cea:	8963      	ldrh	r3, [r4, #10]
 8000cec:	4605      	mov	r5, r0
 8000cee:	1e58      	subs	r0, r3, #1
 8000cf0:	b280      	uxth	r0, r0
 8000cf2:	f001 f96b 	bl	8001fcc <ucGBMemoryRead>
 8000cf6:	4601      	mov	r1, r0
 8000cf8:	4628      	mov	r0, r5
 8000cfa:	f000 fde7 	bl	80018cc <concat_16bit_bigEndian>
 8000cfe:	f001 f965 	bl	8001fcc <ucGBMemoryRead>
 8000d02:	7060      	strb	r0, [r4, #1]
 8000d04:	bd38      	pop	{r3, r4, r5, pc}
 8000d06:	bf00      	nop
 8000d08:	24000a34 	.word	0x24000a34

08000d0c <vLD_BC_A>:
void vLD_BC_A(){      vGBMemoryWrite(reg.BC, reg.A);}
 8000d0c:	4b02      	ldr	r3, [pc, #8]	; (8000d18 <vLD_BC_A+0xc>)
 8000d0e:	7859      	ldrb	r1, [r3, #1]
 8000d10:	8858      	ldrh	r0, [r3, #2]
 8000d12:	f001 b955 	b.w	8001fc0 <vGBMemoryWrite>
 8000d16:	bf00      	nop
 8000d18:	24000a34 	.word	0x24000a34

08000d1c <vLDs_a16_SP>:
void vLDs_a16_SP(){   vGBMemoryWrite(concat_16bit_bigEndian(ucGBMemoryRead(reg.PC -2), ucGBMemoryRead(reg.PC - 1)), reg.SP);}
 8000d1c:	b538      	push	{r3, r4, r5, lr}
 8000d1e:	4c0a      	ldr	r4, [pc, #40]	; (8000d48 <vLDs_a16_SP+0x2c>)
 8000d20:	8960      	ldrh	r0, [r4, #10]
 8000d22:	3802      	subs	r0, #2
 8000d24:	b280      	uxth	r0, r0
 8000d26:	f001 f951 	bl	8001fcc <ucGBMemoryRead>
 8000d2a:	8963      	ldrh	r3, [r4, #10]
 8000d2c:	4605      	mov	r5, r0
 8000d2e:	1e58      	subs	r0, r3, #1
 8000d30:	b280      	uxth	r0, r0
 8000d32:	f001 f94b 	bl	8001fcc <ucGBMemoryRead>
 8000d36:	4601      	mov	r1, r0
 8000d38:	4628      	mov	r0, r5
 8000d3a:	f000 fdc7 	bl	80018cc <concat_16bit_bigEndian>
 8000d3e:	7a21      	ldrb	r1, [r4, #8]
 8000d40:	e8bd 4038 	ldmia.w	sp!, {r3, r4, r5, lr}
 8000d44:	f001 b93c 	b.w	8001fc0 <vGBMemoryWrite>
 8000d48:	24000a34 	.word	0x24000a34

08000d4c <vLD_DE_A>:
void vLD_DE_A(){      vGBMemoryWrite(reg.DE, reg.A);}
 8000d4c:	4b02      	ldr	r3, [pc, #8]	; (8000d58 <vLD_DE_A+0xc>)
 8000d4e:	7859      	ldrb	r1, [r3, #1]
 8000d50:	8898      	ldrh	r0, [r3, #4]
 8000d52:	f001 b935 	b.w	8001fc0 <vGBMemoryWrite>
 8000d56:	bf00      	nop
 8000d58:	24000a34 	.word	0x24000a34

08000d5c <vLD_HLI_A>:
void vLD_HLI_A(){     vGBMemoryWrite(reg.HL, reg.A); reg.HL++;}
 8000d5c:	b510      	push	{r4, lr}
 8000d5e:	4c04      	ldr	r4, [pc, #16]	; (8000d70 <vLD_HLI_A+0x14>)
 8000d60:	7861      	ldrb	r1, [r4, #1]
 8000d62:	88e0      	ldrh	r0, [r4, #6]
 8000d64:	f001 f92c 	bl	8001fc0 <vGBMemoryWrite>
 8000d68:	88e3      	ldrh	r3, [r4, #6]
 8000d6a:	3301      	adds	r3, #1
 8000d6c:	80e3      	strh	r3, [r4, #6]
 8000d6e:	bd10      	pop	{r4, pc}
 8000d70:	24000a34 	.word	0x24000a34

08000d74 <vLD_HLD_A>:
void vLD_HLD_A(){     vGBMemoryWrite(reg.HL, reg.A); reg.HL--;}
 8000d74:	b510      	push	{r4, lr}
 8000d76:	4c04      	ldr	r4, [pc, #16]	; (8000d88 <vLD_HLD_A+0x14>)
 8000d78:	7861      	ldrb	r1, [r4, #1]
 8000d7a:	88e0      	ldrh	r0, [r4, #6]
 8000d7c:	f001 f920 	bl	8001fc0 <vGBMemoryWrite>
 8000d80:	88e3      	ldrh	r3, [r4, #6]
 8000d82:	3b01      	subs	r3, #1
 8000d84:	80e3      	strh	r3, [r4, #6]
 8000d86:	bd10      	pop	{r4, pc}
 8000d88:	24000a34 	.word	0x24000a34

08000d8c <vLD_HL_d8>:
void vLD_HL_d8(){     vGBMemoryWrite(reg.HL, ucGBMemoryRead(reg.PC - 1));}
 8000d8c:	4b06      	ldr	r3, [pc, #24]	; (8000da8 <vLD_HL_d8+0x1c>)
 8000d8e:	8958      	ldrh	r0, [r3, #10]
 8000d90:	3801      	subs	r0, #1
 8000d92:	b510      	push	{r4, lr}
 8000d94:	88dc      	ldrh	r4, [r3, #6]
 8000d96:	b280      	uxth	r0, r0
 8000d98:	f001 f918 	bl	8001fcc <ucGBMemoryRead>
 8000d9c:	4601      	mov	r1, r0
 8000d9e:	4620      	mov	r0, r4
 8000da0:	e8bd 4010 	ldmia.w	sp!, {r4, lr}
 8000da4:	f001 b90c 	b.w	8001fc0 <vGBMemoryWrite>
 8000da8:	24000a34 	.word	0x24000a34

08000dac <vLD_HL_B>:
void vLD_HL_B(){      vGBMemoryWrite(reg.HL, reg.B);}
 8000dac:	4b02      	ldr	r3, [pc, #8]	; (8000db8 <vLD_HL_B+0xc>)
 8000dae:	78d9      	ldrb	r1, [r3, #3]
 8000db0:	88d8      	ldrh	r0, [r3, #6]
 8000db2:	f001 b905 	b.w	8001fc0 <vGBMemoryWrite>
 8000db6:	bf00      	nop
 8000db8:	24000a34 	.word	0x24000a34

08000dbc <vLD_HL_C>:
void vLD_HL_C(){      vGBMemoryWrite(reg.HL, reg.C);}
 8000dbc:	4b02      	ldr	r3, [pc, #8]	; (8000dc8 <vLD_HL_C+0xc>)
 8000dbe:	7899      	ldrb	r1, [r3, #2]
 8000dc0:	88d8      	ldrh	r0, [r3, #6]
 8000dc2:	f001 b8fd 	b.w	8001fc0 <vGBMemoryWrite>
 8000dc6:	bf00      	nop
 8000dc8:	24000a34 	.word	0x24000a34

08000dcc <vLD_HL_D>:
void vLD_HL_D(){      vGBMemoryWrite(reg.HL, reg.D);}
 8000dcc:	4b02      	ldr	r3, [pc, #8]	; (8000dd8 <vLD_HL_D+0xc>)
 8000dce:	7959      	ldrb	r1, [r3, #5]
 8000dd0:	88d8      	ldrh	r0, [r3, #6]
 8000dd2:	f001 b8f5 	b.w	8001fc0 <vGBMemoryWrite>
 8000dd6:	bf00      	nop
 8000dd8:	24000a34 	.word	0x24000a34

08000ddc <vLD_HL_E>:
void vLD_HL_E(){      vGBMemoryWrite(reg.HL, reg.E);}
 8000ddc:	4b02      	ldr	r3, [pc, #8]	; (8000de8 <vLD_HL_E+0xc>)
 8000dde:	7919      	ldrb	r1, [r3, #4]
 8000de0:	88d8      	ldrh	r0, [r3, #6]
 8000de2:	f001 b8ed 	b.w	8001fc0 <vGBMemoryWrite>
 8000de6:	bf00      	nop
 8000de8:	24000a34 	.word	0x24000a34

08000dec <vLD_HL_H>:
void vLD_HL_H(){      vGBMemoryWrite(reg.HL, reg.H);}
 8000dec:	4b02      	ldr	r3, [pc, #8]	; (8000df8 <vLD_HL_H+0xc>)
 8000dee:	79d9      	ldrb	r1, [r3, #7]
 8000df0:	88d8      	ldrh	r0, [r3, #6]
 8000df2:	f001 b8e5 	b.w	8001fc0 <vGBMemoryWrite>
 8000df6:	bf00      	nop
 8000df8:	24000a34 	.word	0x24000a34

08000dfc <vLD_HL_L>:
void vLD_HL_L(){      vGBMemoryWrite(reg.HL, reg.L);}
 8000dfc:	4b02      	ldr	r3, [pc, #8]	; (8000e08 <vLD_HL_L+0xc>)
 8000dfe:	7999      	ldrb	r1, [r3, #6]
 8000e00:	88d8      	ldrh	r0, [r3, #6]
 8000e02:	f001 b8dd 	b.w	8001fc0 <vGBMemoryWrite>
 8000e06:	bf00      	nop
 8000e08:	24000a34 	.word	0x24000a34

08000e0c <vLD_HL_A>:
void vLD_HL_A(){      vGBMemoryWrite(reg.HL, reg.A);}
 8000e0c:	4b02      	ldr	r3, [pc, #8]	; (8000e18 <vLD_HL_A+0xc>)
 8000e0e:	7859      	ldrb	r1, [r3, #1]
 8000e10:	88d8      	ldrh	r0, [r3, #6]
 8000e12:	f001 b8d5 	b.w	8001fc0 <vGBMemoryWrite>
 8000e16:	bf00      	nop
 8000e18:	24000a34 	.word	0x24000a34

08000e1c <vLDH_a8_A>:
void vLDH_a8_A(){     vGBMemoryWrite(0xFF00 + ucGBMemoryRead(reg.PC - 1), reg.A);}
 8000e1c:	b510      	push	{r4, lr}
 8000e1e:	4c07      	ldr	r4, [pc, #28]	; (8000e3c <vLDH_a8_A+0x20>)
 8000e20:	8960      	ldrh	r0, [r4, #10]
 8000e22:	3801      	subs	r0, #1
 8000e24:	b280      	uxth	r0, r0
 8000e26:	f001 f8d1 	bl	8001fcc <ucGBMemoryRead>
 8000e2a:	f5a0 7080 	sub.w	r0, r0, #256	; 0x100
 8000e2e:	7861      	ldrb	r1, [r4, #1]
 8000e30:	b280      	uxth	r0, r0
 8000e32:	e8bd 4010 	ldmia.w	sp!, {r4, lr}
 8000e36:	f001 b8c3 	b.w	8001fc0 <vGBMemoryWrite>
 8000e3a:	bf00      	nop
 8000e3c:	24000a34 	.word	0x24000a34

08000e40 <vLD_fC_A>:
void vLD_fC_A(){      vGBMemoryWrite(0xFF00 + reg.C, reg.A);}
 8000e40:	4b03      	ldr	r3, [pc, #12]	; (8000e50 <vLD_fC_A+0x10>)
 8000e42:	7898      	ldrb	r0, [r3, #2]
 8000e44:	7859      	ldrb	r1, [r3, #1]
 8000e46:	f5a0 7080 	sub.w	r0, r0, #256	; 0x100
 8000e4a:	b280      	uxth	r0, r0
 8000e4c:	f001 b8b8 	b.w	8001fc0 <vGBMemoryWrite>
 8000e50:	24000a34 	.word	0x24000a34

08000e54 <vLD_a16_A>:
void vLD_a16_A(){     vGBMemoryWrite(concat_16bit_bigEndian(ucGBMemoryRead(reg.PC - 2), ucGBMemoryRead(reg.PC - 1)), reg.A);}
 8000e54:	b538      	push	{r3, r4, r5, lr}
 8000e56:	4c0a      	ldr	r4, [pc, #40]	; (8000e80 <vLD_a16_A+0x2c>)
 8000e58:	8960      	ldrh	r0, [r4, #10]
 8000e5a:	3802      	subs	r0, #2
 8000e5c:	b280      	uxth	r0, r0
 8000e5e:	f001 f8b5 	bl	8001fcc <ucGBMemoryRead>
 8000e62:	8963      	ldrh	r3, [r4, #10]
 8000e64:	4605      	mov	r5, r0
 8000e66:	1e58      	subs	r0, r3, #1
 8000e68:	b280      	uxth	r0, r0
 8000e6a:	f001 f8af 	bl	8001fcc <ucGBMemoryRead>
 8000e6e:	4601      	mov	r1, r0
 8000e70:	4628      	mov	r0, r5
 8000e72:	f000 fd2b 	bl	80018cc <concat_16bit_bigEndian>
 8000e76:	7861      	ldrb	r1, [r4, #1]
 8000e78:	e8bd 4038 	ldmia.w	sp!, {r3, r4, r5, lr}
 8000e7c:	f001 b8a0 	b.w	8001fc0 <vGBMemoryWrite>
 8000e80:	24000a34 	.word	0x24000a34

08000e84 <vINC_B>:
void vINC_B(){        v8bitRegisterINC(&reg.B, &reg.F);}
 8000e84:	4901      	ldr	r1, [pc, #4]	; (8000e8c <vINC_B+0x8>)
 8000e86:	1cc8      	adds	r0, r1, #3
 8000e88:	f000 bd3e 	b.w	8001908 <v8bitRegisterINC>
 8000e8c:	24000a34 	.word	0x24000a34

08000e90 <vINC_C>:
void vINC_C(){        v8bitRegisterINC(&reg.C, &reg.F);}
 8000e90:	4901      	ldr	r1, [pc, #4]	; (8000e98 <vINC_C+0x8>)
 8000e92:	1c88      	adds	r0, r1, #2
 8000e94:	f000 bd38 	b.w	8001908 <v8bitRegisterINC>
 8000e98:	24000a34 	.word	0x24000a34

08000e9c <vINC_D>:
void vINC_D(){        v8bitRegisterINC(&reg.D, &reg.F);}
 8000e9c:	4901      	ldr	r1, [pc, #4]	; (8000ea4 <vINC_D+0x8>)
 8000e9e:	1d48      	adds	r0, r1, #5
 8000ea0:	f000 bd32 	b.w	8001908 <v8bitRegisterINC>
 8000ea4:	24000a34 	.word	0x24000a34

08000ea8 <vINC_E>:
void vINC_E(){        v8bitRegisterINC(&reg.E, &reg.F);}
 8000ea8:	4901      	ldr	r1, [pc, #4]	; (8000eb0 <vINC_E+0x8>)
 8000eaa:	1d08      	adds	r0, r1, #4
 8000eac:	f000 bd2c 	b.w	8001908 <v8bitRegisterINC>
 8000eb0:	24000a34 	.word	0x24000a34

08000eb4 <vINC_H>:
void vINC_H(){        v8bitRegisterINC(&reg.H, &reg.F);}
 8000eb4:	4901      	ldr	r1, [pc, #4]	; (8000ebc <vINC_H+0x8>)
 8000eb6:	1dc8      	adds	r0, r1, #7
 8000eb8:	f000 bd26 	b.w	8001908 <v8bitRegisterINC>
 8000ebc:	24000a34 	.word	0x24000a34

08000ec0 <vINC_L>:
void vINC_L(){        v8bitRegisterINC(&reg.L, &reg.F);}
 8000ec0:	4901      	ldr	r1, [pc, #4]	; (8000ec8 <vINC_L+0x8>)
 8000ec2:	1d88      	adds	r0, r1, #6
 8000ec4:	f000 bd20 	b.w	8001908 <v8bitRegisterINC>
 8000ec8:	24000a34 	.word	0x24000a34

08000ecc <vINC_A>:
void vINC_A(){        v8bitRegisterINC(&reg.A, &reg.F);}
 8000ecc:	4901      	ldr	r1, [pc, #4]	; (8000ed4 <vINC_A+0x8>)
 8000ece:	1c48      	adds	r0, r1, #1
 8000ed0:	f000 bd1a 	b.w	8001908 <v8bitRegisterINC>
 8000ed4:	24000a34 	.word	0x24000a34

08000ed8 <vDEC_B>:
void vDEC_B(){        v8bitRegisterDEC(&reg.B, &reg.F);}
 8000ed8:	4901      	ldr	r1, [pc, #4]	; (8000ee0 <vDEC_B+0x8>)
 8000eda:	1cc8      	adds	r0, r1, #3
 8000edc:	f000 bd32 	b.w	8001944 <v8bitRegisterDEC>
 8000ee0:	24000a34 	.word	0x24000a34

08000ee4 <vDEC_C>:
void vDEC_C(){        v8bitRegisterDEC(&reg.C, &reg.F);}
 8000ee4:	4901      	ldr	r1, [pc, #4]	; (8000eec <vDEC_C+0x8>)
 8000ee6:	1c88      	adds	r0, r1, #2
 8000ee8:	f000 bd2c 	b.w	8001944 <v8bitRegisterDEC>
 8000eec:	24000a34 	.word	0x24000a34

08000ef0 <vDEC_D>:
void vDEC_D(){        v8bitRegisterDEC(&reg.D, &reg.F);}
 8000ef0:	4901      	ldr	r1, [pc, #4]	; (8000ef8 <vDEC_D+0x8>)
 8000ef2:	1d48      	adds	r0, r1, #5
 8000ef4:	f000 bd26 	b.w	8001944 <v8bitRegisterDEC>
 8000ef8:	24000a34 	.word	0x24000a34

08000efc <vDEC_E>:
void vDEC_E(){        v8bitRegisterDEC(&reg.E, &reg.F);}
 8000efc:	4901      	ldr	r1, [pc, #4]	; (8000f04 <vDEC_E+0x8>)
 8000efe:	1d08      	adds	r0, r1, #4
 8000f00:	f000 bd20 	b.w	8001944 <v8bitRegisterDEC>
 8000f04:	24000a34 	.word	0x24000a34

08000f08 <vDEC_H>:
void vDEC_H(){        v8bitRegisterDEC(&reg.H, &reg.F);}
 8000f08:	4901      	ldr	r1, [pc, #4]	; (8000f10 <vDEC_H+0x8>)
 8000f0a:	1dc8      	adds	r0, r1, #7
 8000f0c:	f000 bd1a 	b.w	8001944 <v8bitRegisterDEC>
 8000f10:	24000a34 	.word	0x24000a34

08000f14 <vDEC_L>:
void vDEC_L(){        v8bitRegisterDEC(&reg.L, &reg.F);}
 8000f14:	4901      	ldr	r1, [pc, #4]	; (8000f1c <vDEC_L+0x8>)
 8000f16:	1d88      	adds	r0, r1, #6
 8000f18:	f000 bd14 	b.w	8001944 <v8bitRegisterDEC>
 8000f1c:	24000a34 	.word	0x24000a34

08000f20 <vDEC_A>:
void vDEC_A(){        v8bitRegisterDEC(&reg.A, &reg.F);}
 8000f20:	4901      	ldr	r1, [pc, #4]	; (8000f28 <vDEC_A+0x8>)
 8000f22:	1c48      	adds	r0, r1, #1
 8000f24:	f000 bd0e 	b.w	8001944 <v8bitRegisterDEC>
 8000f28:	24000a34 	.word	0x24000a34

08000f2c <vRLCA>:
void vRLCA(){         vGBFunctionRLCA(&reg.A, &reg.F);}
 8000f2c:	4901      	ldr	r1, [pc, #4]	; (8000f34 <vRLCA+0x8>)
 8000f2e:	1c48      	adds	r0, r1, #1
 8000f30:	f000 bd28 	b.w	8001984 <vGBFunctionRLCA>
 8000f34:	24000a34 	.word	0x24000a34

08000f38 <vADDs_HL_BC>:
void vADDs_HL_BC(){   vGBFunction16bitADD(&reg.HL, reg.BC, &reg.F);}
 8000f38:	4a02      	ldr	r2, [pc, #8]	; (8000f44 <vADDs_HL_BC+0xc>)
 8000f3a:	8851      	ldrh	r1, [r2, #2]
 8000f3c:	1d90      	adds	r0, r2, #6
 8000f3e:	f000 bd3f 	b.w	80019c0 <vGBFunction16bitADD>
 8000f42:	bf00      	nop
 8000f44:	24000a34 	.word	0x24000a34

08000f48 <vADDs_HL_DE>:
void vADDs_HL_DE(){   vGBFunction16bitADD(&reg.HL, reg.DE, &reg.F);}
 8000f48:	4a02      	ldr	r2, [pc, #8]	; (8000f54 <vADDs_HL_DE+0xc>)
 8000f4a:	8891      	ldrh	r1, [r2, #4]
 8000f4c:	1d90      	adds	r0, r2, #6
 8000f4e:	f000 bd37 	b.w	80019c0 <vGBFunction16bitADD>
 8000f52:	bf00      	nop
 8000f54:	24000a34 	.word	0x24000a34

08000f58 <vADDs_HL_HL>:
void vADDs_HL_HL(){   vGBFunction16bitADD(&reg.HL, reg.HL, &reg.F);}
 8000f58:	4802      	ldr	r0, [pc, #8]	; (8000f64 <vADDs_HL_HL+0xc>)
 8000f5a:	4602      	mov	r2, r0
 8000f5c:	f830 1f06 	ldrh.w	r1, [r0, #6]!
 8000f60:	f000 bd2e 	b.w	80019c0 <vGBFunction16bitADD>
 8000f64:	24000a34 	.word	0x24000a34

08000f68 <vADDs_HL_SP>:
void vADDs_HL_SP(){   vGBFunction16bitADD(&reg.HL, reg.SP, &reg.F);}
 8000f68:	4a02      	ldr	r2, [pc, #8]	; (8000f74 <vADDs_HL_SP+0xc>)
 8000f6a:	8911      	ldrh	r1, [r2, #8]
 8000f6c:	1d90      	adds	r0, r2, #6
 8000f6e:	f000 bd27 	b.w	80019c0 <vGBFunction16bitADD>
 8000f72:	bf00      	nop
 8000f74:	24000a34 	.word	0x24000a34

08000f78 <vRRCA>:
void vRRCA(){         vGBFunctionRRCA(&reg.A, &reg.F);}
 8000f78:	4901      	ldr	r1, [pc, #4]	; (8000f80 <vRRCA+0x8>)
 8000f7a:	1c48      	adds	r0, r1, #1
 8000f7c:	f000 bd0e 	b.w	800199c <vGBFunctionRRCA>
 8000f80:	24000a34 	.word	0x24000a34

08000f84 <vRLA>:
void vRLA(){          vGBFunctionRLA(&reg.A, &reg.F);}
 8000f84:	4901      	ldr	r1, [pc, #4]	; (8000f8c <vRLA+0x8>)
 8000f86:	1c48      	adds	r0, r1, #1
 8000f88:	f000 bd42 	b.w	8001a10 <vGBFunctionRLA>
 8000f8c:	24000a34 	.word	0x24000a34

08000f90 <vRRA>:
void vRRA(){          vGBFunctionRRA(&reg.A, &reg.F);}
 8000f90:	4901      	ldr	r1, [pc, #4]	; (8000f98 <vRRA+0x8>)
 8000f92:	1c48      	adds	r0, r1, #1
 8000f94:	f000 bd4a 	b.w	8001a2c <vGBFunctionRRA>
 8000f98:	24000a34 	.word	0x24000a34

08000f9c <vJR_NZ_r8>:
void vJR_NZ_r8(){     customDuration = vGBFunctionJR_NZ(&reg.PC, &reg.F, ucGBMemoryRead(reg.PC - 1));}
 8000f9c:	b538      	push	{r3, r4, r5, lr}
 8000f9e:	4d08      	ldr	r5, [pc, #32]	; (8000fc0 <vJR_NZ_r8+0x24>)
 8000fa0:	462c      	mov	r4, r5
 8000fa2:	f834 0f0a 	ldrh.w	r0, [r4, #10]!
 8000fa6:	3801      	subs	r0, #1
 8000fa8:	b280      	uxth	r0, r0
 8000faa:	f001 f80f 	bl	8001fcc <ucGBMemoryRead>
 8000fae:	4629      	mov	r1, r5
 8000fb0:	4602      	mov	r2, r0
 8000fb2:	4620      	mov	r0, r4
 8000fb4:	f000 fd48 	bl	8001a48 <vGBFunctionJR_NZ>
 8000fb8:	4b02      	ldr	r3, [pc, #8]	; (8000fc4 <vJR_NZ_r8+0x28>)
 8000fba:	7018      	strb	r0, [r3, #0]
 8000fbc:	bd38      	pop	{r3, r4, r5, pc}
 8000fbe:	bf00      	nop
 8000fc0:	24000a34 	.word	0x24000a34
 8000fc4:	240008e5 	.word	0x240008e5

08000fc8 <vDAA>:
void vDAA(){          vGBFunctionDAA(&reg.A, &reg.F);}
 8000fc8:	4901      	ldr	r1, [pc, #4]	; (8000fd0 <vDAA+0x8>)
 8000fca:	1c48      	adds	r0, r1, #1
 8000fcc:	f000 bd48 	b.w	8001a60 <vGBFunctionDAA>
 8000fd0:	24000a34 	.word	0x24000a34

08000fd4 <vJR_Z_r8>:
void vJR_Z_r8(){      customDuration = vGBFunctionJR_Z(&reg.PC, &reg.F, ucGBMemoryRead(reg.PC - 1));}
 8000fd4:	b538      	push	{r3, r4, r5, lr}
 8000fd6:	4d08      	ldr	r5, [pc, #32]	; (8000ff8 <vJR_Z_r8+0x24>)
 8000fd8:	462c      	mov	r4, r5
 8000fda:	f834 0f0a 	ldrh.w	r0, [r4, #10]!
 8000fde:	3801      	subs	r0, #1
 8000fe0:	b280      	uxth	r0, r0
 8000fe2:	f000 fff3 	bl	8001fcc <ucGBMemoryRead>
 8000fe6:	4629      	mov	r1, r5
 8000fe8:	4602      	mov	r2, r0
 8000fea:	4620      	mov	r0, r4
 8000fec:	f000 fd6c 	bl	8001ac8 <vGBFunctionJR_Z>
 8000ff0:	4b02      	ldr	r3, [pc, #8]	; (8000ffc <vJR_Z_r8+0x28>)
 8000ff2:	7018      	strb	r0, [r3, #0]
 8000ff4:	bd38      	pop	{r3, r4, r5, pc}
 8000ff6:	bf00      	nop
 8000ff8:	24000a34 	.word	0x24000a34
 8000ffc:	240008e5 	.word	0x240008e5

08001000 <vCPL>:
void vCPL(){          reg.A = ~(reg.A); setbit(&reg.F, N_FLAG); setbit(&reg.F, H_FLAG);}
 8001000:	b510      	push	{r4, lr}
 8001002:	4c07      	ldr	r4, [pc, #28]	; (8001020 <vCPL+0x20>)
 8001004:	2106      	movs	r1, #6
 8001006:	7863      	ldrb	r3, [r4, #1]
 8001008:	4620      	mov	r0, r4
 800100a:	43db      	mvns	r3, r3
 800100c:	7063      	strb	r3, [r4, #1]
 800100e:	f000 fc67 	bl	80018e0 <setbit>
 8001012:	4620      	mov	r0, r4
 8001014:	2105      	movs	r1, #5
 8001016:	e8bd 4010 	ldmia.w	sp!, {r4, lr}
 800101a:	f000 bc61 	b.w	80018e0 <setbit>
 800101e:	bf00      	nop
 8001020:	24000a34 	.word	0x24000a34

08001024 <vJR_NC_r8>:
void vJR_NC_r8(){     customDuration = vGBFunctionJR_NC(&reg.PC, &reg.F, ucGBMemoryRead(reg.PC - 1));}
 8001024:	b538      	push	{r3, r4, r5, lr}
 8001026:	4d08      	ldr	r5, [pc, #32]	; (8001048 <vJR_NC_r8+0x24>)
 8001028:	462c      	mov	r4, r5
 800102a:	f834 0f0a 	ldrh.w	r0, [r4, #10]!
 800102e:	3801      	subs	r0, #1
 8001030:	b280      	uxth	r0, r0
 8001032:	f000 ffcb 	bl	8001fcc <ucGBMemoryRead>
 8001036:	4629      	mov	r1, r5
 8001038:	4602      	mov	r2, r0
 800103a:	4620      	mov	r0, r4
 800103c:	f000 fd50 	bl	8001ae0 <vGBFunctionJR_NC>
 8001040:	4b02      	ldr	r3, [pc, #8]	; (800104c <vJR_NC_r8+0x28>)
 8001042:	7018      	strb	r0, [r3, #0]
 8001044:	bd38      	pop	{r3, r4, r5, pc}
 8001046:	bf00      	nop
 8001048:	24000a34 	.word	0x24000a34
 800104c:	240008e5 	.word	0x240008e5

08001050 <vINC_HL>:
void vINC_HL(){       vMemoryLocationINC(reg.HL, &reg.F);}
 8001050:	4901      	ldr	r1, [pc, #4]	; (8001058 <vINC_HL+0x8>)
 8001052:	88c8      	ldrh	r0, [r1, #6]
 8001054:	f000 bd50 	b.w	8001af8 <vMemoryLocationINC>
 8001058:	24000a34 	.word	0x24000a34

0800105c <vDEC_HL>:
void vDEC_HL(){       vMemoryLocationDEC(reg.HL, &reg.F);}
 800105c:	4901      	ldr	r1, [pc, #4]	; (8001064 <vDEC_HL+0x8>)
 800105e:	88c8      	ldrh	r0, [r1, #6]
 8001060:	f000 bd74 	b.w	8001b4c <vMemoryLocationDEC>
 8001064:	24000a34 	.word	0x24000a34

08001068 <vSCF>:
void vSCF(){          resetbit(&reg.F, N_FLAG); resetbit(&reg.F, H_FLAG); setbit(&reg.F, C_FLAG);}
 8001068:	b508      	push	{r3, lr}
 800106a:	4807      	ldr	r0, [pc, #28]	; (8001088 <vSCF+0x20>)
 800106c:	2106      	movs	r1, #6
 800106e:	f000 fc3f 	bl	80018f0 <resetbit>
 8001072:	4805      	ldr	r0, [pc, #20]	; (8001088 <vSCF+0x20>)
 8001074:	2105      	movs	r1, #5
 8001076:	f000 fc3b 	bl	80018f0 <resetbit>
 800107a:	4803      	ldr	r0, [pc, #12]	; (8001088 <vSCF+0x20>)
 800107c:	2104      	movs	r1, #4
 800107e:	e8bd 4008 	ldmia.w	sp!, {r3, lr}
 8001082:	f000 bc2d 	b.w	80018e0 <setbit>
 8001086:	bf00      	nop
 8001088:	24000a34 	.word	0x24000a34

0800108c <vJR_C_r8>:
void vJR_C_r8(){      customDuration = vGBFunctionJR_C(&reg.PC, &reg.F, ucGBMemoryRead(reg.PC - 1));}
 800108c:	b538      	push	{r3, r4, r5, lr}
 800108e:	4d08      	ldr	r5, [pc, #32]	; (80010b0 <vJR_C_r8+0x24>)
 8001090:	462c      	mov	r4, r5
 8001092:	f834 0f0a 	ldrh.w	r0, [r4, #10]!
 8001096:	3801      	subs	r0, #1
 8001098:	b280      	uxth	r0, r0
 800109a:	f000 ff97 	bl	8001fcc <ucGBMemoryRead>
 800109e:	4629      	mov	r1, r5
 80010a0:	4602      	mov	r2, r0
 80010a2:	4620      	mov	r0, r4
 80010a4:	f000 fd7a 	bl	8001b9c <vGBFunctionJR_C>
 80010a8:	4b02      	ldr	r3, [pc, #8]	; (80010b4 <vJR_C_r8+0x28>)
 80010aa:	7018      	strb	r0, [r3, #0]
 80010ac:	bd38      	pop	{r3, r4, r5, pc}
 80010ae:	bf00      	nop
 80010b0:	24000a34 	.word	0x24000a34
 80010b4:	240008e5 	.word	0x240008e5

080010b8 <vADD_A_B>:
void vADD_A_B(){      vGBFunctionADD(&reg.A, &reg.F, reg.B);}
 80010b8:	4902      	ldr	r1, [pc, #8]	; (80010c4 <vADD_A_B+0xc>)
 80010ba:	78ca      	ldrb	r2, [r1, #3]
 80010bc:	1c48      	adds	r0, r1, #1
 80010be:	f000 bd79 	b.w	8001bb4 <vGBFunctionADD>
 80010c2:	bf00      	nop
 80010c4:	24000a34 	.word	0x24000a34

080010c8 <vADD_A_C>:
void vADD_A_C(){      vGBFunctionADD(&reg.A, &reg.F, reg.C);}
 80010c8:	4902      	ldr	r1, [pc, #8]	; (80010d4 <vADD_A_C+0xc>)
 80010ca:	788a      	ldrb	r2, [r1, #2]
 80010cc:	1c48      	adds	r0, r1, #1
 80010ce:	f000 bd71 	b.w	8001bb4 <vGBFunctionADD>
 80010d2:	bf00      	nop
 80010d4:	24000a34 	.word	0x24000a34

080010d8 <vADD_A_D>:
void vADD_A_D(){      vGBFunctionADD(&reg.A, &reg.F, reg.D);}
 80010d8:	4902      	ldr	r1, [pc, #8]	; (80010e4 <vADD_A_D+0xc>)
 80010da:	794a      	ldrb	r2, [r1, #5]
 80010dc:	1c48      	adds	r0, r1, #1
 80010de:	f000 bd69 	b.w	8001bb4 <vGBFunctionADD>
 80010e2:	bf00      	nop
 80010e4:	24000a34 	.word	0x24000a34

080010e8 <vADD_A_E>:
void vADD_A_E(){      vGBFunctionADD(&reg.A, &reg.F, reg.E);}
 80010e8:	4902      	ldr	r1, [pc, #8]	; (80010f4 <vADD_A_E+0xc>)
 80010ea:	790a      	ldrb	r2, [r1, #4]
 80010ec:	1c48      	adds	r0, r1, #1
 80010ee:	f000 bd61 	b.w	8001bb4 <vGBFunctionADD>
 80010f2:	bf00      	nop
 80010f4:	24000a34 	.word	0x24000a34

080010f8 <vADD_A_H>:
void vADD_A_H(){      vGBFunctionADD(&reg.A, &reg.F, reg.H);}
 80010f8:	4902      	ldr	r1, [pc, #8]	; (8001104 <vADD_A_H+0xc>)
 80010fa:	79ca      	ldrb	r2, [r1, #7]
 80010fc:	1c48      	adds	r0, r1, #1
 80010fe:	f000 bd59 	b.w	8001bb4 <vGBFunctionADD>
 8001102:	bf00      	nop
 8001104:	24000a34 	.word	0x24000a34

08001108 <vADD_A_L>:
void vADD_A_L(){      vGBFunctionADD(&reg.A, &reg.F, reg.L);}
 8001108:	4902      	ldr	r1, [pc, #8]	; (8001114 <vADD_A_L+0xc>)
 800110a:	798a      	ldrb	r2, [r1, #6]
 800110c:	1c48      	adds	r0, r1, #1
 800110e:	f000 bd51 	b.w	8001bb4 <vGBFunctionADD>
 8001112:	bf00      	nop
 8001114:	24000a34 	.word	0x24000a34

08001118 <vADD_A_HL>:
void vADD_A_HL(){     vGBFunctionADD(&reg.A, &reg.F, ucGBMemoryRead(reg.HL));}
 8001118:	b510      	push	{r4, lr}
 800111a:	4c05      	ldr	r4, [pc, #20]	; (8001130 <vADD_A_HL+0x18>)
 800111c:	88e0      	ldrh	r0, [r4, #6]
 800111e:	f000 ff55 	bl	8001fcc <ucGBMemoryRead>
 8001122:	4621      	mov	r1, r4
 8001124:	4602      	mov	r2, r0
 8001126:	1c60      	adds	r0, r4, #1
 8001128:	e8bd 4010 	ldmia.w	sp!, {r4, lr}
 800112c:	f000 bd42 	b.w	8001bb4 <vGBFunctionADD>
 8001130:	24000a34 	.word	0x24000a34

08001134 <vADD_A_A>:
void vADD_A_A(){      vGBFunctionADD(&reg.A, &reg.F, reg.A);}
 8001134:	4802      	ldr	r0, [pc, #8]	; (8001140 <vADD_A_A+0xc>)
 8001136:	4601      	mov	r1, r0
 8001138:	f810 2f01 	ldrb.w	r2, [r0, #1]!
 800113c:	f000 bd3a 	b.w	8001bb4 <vGBFunctionADD>
 8001140:	24000a34 	.word	0x24000a34

08001144 <vADD_A_d8>:
void vADD_A_d8(){     vGBFunctionADD(&reg.A, &reg.F, ucGBMemoryRead(reg.PC - 1));}
 8001144:	b510      	push	{r4, lr}
 8001146:	4c06      	ldr	r4, [pc, #24]	; (8001160 <vADD_A_d8+0x1c>)
 8001148:	8960      	ldrh	r0, [r4, #10]
 800114a:	3801      	subs	r0, #1
 800114c:	b280      	uxth	r0, r0
 800114e:	f000 ff3d 	bl	8001fcc <ucGBMemoryRead>
 8001152:	4621      	mov	r1, r4
 8001154:	4602      	mov	r2, r0
 8001156:	1c60      	adds	r0, r4, #1
 8001158:	e8bd 4010 	ldmia.w	sp!, {r4, lr}
 800115c:	f000 bd2a 	b.w	8001bb4 <vGBFunctionADD>
 8001160:	24000a34 	.word	0x24000a34

08001164 <vADC_A_d8>:
 8001164:	f7ff bfee 	b.w	8001144 <vADD_A_d8>

08001168 <vADC_A_B>:
void vADC_A_B(){      vGBFunctionADC(&reg.A, &reg.F, reg.B);}
 8001168:	4902      	ldr	r1, [pc, #8]	; (8001174 <vADC_A_B+0xc>)
 800116a:	78ca      	ldrb	r2, [r1, #3]
 800116c:	1c48      	adds	r0, r1, #1
 800116e:	f000 bd3f 	b.w	8001bf0 <vGBFunctionADC>
 8001172:	bf00      	nop
 8001174:	24000a34 	.word	0x24000a34

08001178 <vADC_A_C>:
void vADC_A_C(){      vGBFunctionADC(&reg.A, &reg.F, reg.C);}
 8001178:	4902      	ldr	r1, [pc, #8]	; (8001184 <vADC_A_C+0xc>)
 800117a:	788a      	ldrb	r2, [r1, #2]
 800117c:	1c48      	adds	r0, r1, #1
 800117e:	f000 bd37 	b.w	8001bf0 <vGBFunctionADC>
 8001182:	bf00      	nop
 8001184:	24000a34 	.word	0x24000a34

08001188 <vADC_A_D>:
void vADC_A_D(){      vGBFunctionADC(&reg.A, &reg.F, reg.D);}
 8001188:	4902      	ldr	r1, [pc, #8]	; (8001194 <vADC_A_D+0xc>)
 800118a:	794a      	ldrb	r2, [r1, #5]
 800118c:	1c48      	adds	r0, r1, #1
 800118e:	f000 bd2f 	b.w	8001bf0 <vGBFunctionADC>
 8001192:	bf00      	nop
 8001194:	24000a34 	.word	0x24000a34

08001198 <vADC_A_E>:
void vADC_A_E(){      vGBFunctionADC(&reg.A, &reg.F, reg.E);}
 8001198:	4902      	ldr	r1, [pc, #8]	; (80011a4 <vADC_A_E+0xc>)
 800119a:	790a      	ldrb	r2, [r1, #4]
 800119c:	1c48      	adds	r0, r1, #1
 800119e:	f000 bd27 	b.w	8001bf0 <vGBFunctionADC>
 80011a2:	bf00      	nop
 80011a4:	24000a34 	.word	0x24000a34

080011a8 <vADC_A_H>:
void vADC_A_H(){      vGBFunctionADC(&reg.A, &reg.F, reg.H);}
 80011a8:	4902      	ldr	r1, [pc, #8]	; (80011b4 <vADC_A_H+0xc>)
 80011aa:	79ca      	ldrb	r2, [r1, #7]
 80011ac:	1c48      	adds	r0, r1, #1
 80011ae:	f000 bd1f 	b.w	8001bf0 <vGBFunctionADC>
 80011b2:	bf00      	nop
 80011b4:	24000a34 	.word	0x24000a34

080011b8 <vADC_A_L>:
void vADC_A_L(){      vGBFunctionADC(&reg.A, &reg.F, reg.L);}
 80011b8:	4902      	ldr	r1, [pc, #8]	; (80011c4 <vADC_A_L+0xc>)
 80011ba:	798a      	ldrb	r2, [r1, #6]
 80011bc:	1c48      	adds	r0, r1, #1
 80011be:	f000 bd17 	b.w	8001bf0 <vGBFunctionADC>
 80011c2:	bf00      	nop
 80011c4:	24000a34 	.word	0x24000a34

080011c8 <vADC_A_HL>:
void vADC_A_HL(){     vGBFunctionADC(&reg.A, &reg.F, ucGBMemoryRead(reg.HL));}
 80011c8:	b510      	push	{r4, lr}
 80011ca:	4c05      	ldr	r4, [pc, #20]	; (80011e0 <vADC_A_HL+0x18>)
 80011cc:	88e0      	ldrh	r0, [r4, #6]
 80011ce:	f000 fefd 	bl	8001fcc <ucGBMemoryRead>
 80011d2:	4621      	mov	r1, r4
 80011d4:	4602      	mov	r2, r0
 80011d6:	1c60      	adds	r0, r4, #1
 80011d8:	e8bd 4010 	ldmia.w	sp!, {r4, lr}
 80011dc:	f000 bd08 	b.w	8001bf0 <vGBFunctionADC>
 80011e0:	24000a34 	.word	0x24000a34

080011e4 <vADC_A_A>:
void vADC_A_A(){      vGBFunctionADC(&reg.A, &reg.F, reg.A);}
 80011e4:	4802      	ldr	r0, [pc, #8]	; (80011f0 <vADC_A_A+0xc>)
 80011e6:	4601      	mov	r1, r0
 80011e8:	f810 2f01 	ldrb.w	r2, [r0, #1]!
 80011ec:	f000 bd00 	b.w	8001bf0 <vGBFunctionADC>
 80011f0:	24000a34 	.word	0x24000a34

080011f4 <vSUB_B>:
void vSUB_B(){        vGBFunctionSUB(&reg.A, &reg.F, reg.B);}
 80011f4:	4902      	ldr	r1, [pc, #8]	; (8001200 <vSUB_B+0xc>)
 80011f6:	78ca      	ldrb	r2, [r1, #3]
 80011f8:	1c48      	adds	r0, r1, #1
 80011fa:	f000 bd1b 	b.w	8001c34 <vGBFunctionSUB>
 80011fe:	bf00      	nop
 8001200:	24000a34 	.word	0x24000a34

08001204 <vSUB_C>:
void vSUB_C(){        vGBFunctionSUB(&reg.A, &reg.F, reg.C);}
 8001204:	4902      	ldr	r1, [pc, #8]	; (8001210 <vSUB_C+0xc>)
 8001206:	788a      	ldrb	r2, [r1, #2]
 8001208:	1c48      	adds	r0, r1, #1
 800120a:	f000 bd13 	b.w	8001c34 <vGBFunctionSUB>
 800120e:	bf00      	nop
 8001210:	24000a34 	.word	0x24000a34

08001214 <vSUB_D>:
void vSUB_D(){        vGBFunctionSUB(&reg.A, &reg.F, reg.D);}
 8001214:	4902      	ldr	r1, [pc, #8]	; (8001220 <vSUB_D+0xc>)
 8001216:	794a      	ldrb	r2, [r1, #5]
 8001218:	1c48      	adds	r0, r1, #1
 800121a:	f000 bd0b 	b.w	8001c34 <vGBFunctionSUB>
 800121e:	bf00      	nop
 8001220:	24000a34 	.word	0x24000a34

08001224 <vSUB_E>:
void vSUB_E(){        vGBFunctionSUB(&reg.A, &reg.F, reg.E);}
 8001224:	4902      	ldr	r1, [pc, #8]	; (8001230 <vSUB_E+0xc>)
 8001226:	790a      	ldrb	r2, [r1, #4]
 8001228:	1c48      	adds	r0, r1, #1
 800122a:	f000 bd03 	b.w	8001c34 <vGBFunctionSUB>
 800122e:	bf00      	nop
 8001230:	24000a34 	.word	0x24000a34

08001234 <vSUB_H>:
void vSUB_H(){        vGBFunctionSUB(&reg.A, &reg.F, reg.H);}
 8001234:	4902      	ldr	r1, [pc, #8]	; (8001240 <vSUB_H+0xc>)
 8001236:	79ca      	ldrb	r2, [r1, #7]
 8001238:	1c48      	adds	r0, r1, #1
 800123a:	f000 bcfb 	b.w	8001c34 <vGBFunctionSUB>
 800123e:	bf00      	nop
 8001240:	24000a34 	.word	0x24000a34

08001244 <vSUB_L>:
void vSUB_L(){        vGBFunctionSUB(&reg.A, &reg.F, reg.L);}
 8001244:	4902      	ldr	r1, [pc, #8]	; (8001250 <vSUB_L+0xc>)
 8001246:	798a      	ldrb	r2, [r1, #6]
 8001248:	1c48      	adds	r0, r1, #1
 800124a:	f000 bcf3 	b.w	8001c34 <vGBFunctionSUB>
 800124e:	bf00      	nop
 8001250:	24000a34 	.word	0x24000a34

08001254 <vSUB_HL>:
void vSUB_HL(){       vGBFunctionSUB(&reg.A, &reg.F, ucGBMemoryRead(reg.HL));}
 8001254:	b510      	push	{r4, lr}
 8001256:	4c05      	ldr	r4, [pc, #20]	; (800126c <vSUB_HL+0x18>)
 8001258:	88e0      	ldrh	r0, [r4, #6]
 800125a:	f000 feb7 	bl	8001fcc <ucGBMemoryRead>
 800125e:	4621      	mov	r1, r4
 8001260:	4602      	mov	r2, r0
 8001262:	1c60      	adds	r0, r4, #1
 8001264:	e8bd 4010 	ldmia.w	sp!, {r4, lr}
 8001268:	f000 bce4 	b.w	8001c34 <vGBFunctionSUB>
 800126c:	24000a34 	.word	0x24000a34

08001270 <vSUB_A>:
void vSUB_A(){        vGBFunctionSUB(&reg.A, &reg.F, reg.A);}
 8001270:	4802      	ldr	r0, [pc, #8]	; (800127c <vSUB_A+0xc>)
 8001272:	4601      	mov	r1, r0
 8001274:	f810 2f01 	ldrb.w	r2, [r0, #1]!
 8001278:	f000 bcdc 	b.w	8001c34 <vGBFunctionSUB>
 800127c:	24000a34 	.word	0x24000a34

08001280 <vSUB_d8>:
void vSUB_d8(){       vGBFunctionSUB(&reg.A, &reg.F, ucGBMemoryRead(reg.PC - 1));}
 8001280:	b510      	push	{r4, lr}
 8001282:	4c06      	ldr	r4, [pc, #24]	; (800129c <vSUB_d8+0x1c>)
 8001284:	8960      	ldrh	r0, [r4, #10]
 8001286:	3801      	subs	r0, #1
 8001288:	b280      	uxth	r0, r0
 800128a:	f000 fe9f 	bl	8001fcc <ucGBMemoryRead>
 800128e:	4621      	mov	r1, r4
 8001290:	4602      	mov	r2, r0
 8001292:	1c60      	adds	r0, r4, #1
 8001294:	e8bd 4010 	ldmia.w	sp!, {r4, lr}
 8001298:	f000 bccc 	b.w	8001c34 <vGBFunctionSUB>
 800129c:	24000a34 	.word	0x24000a34

080012a0 <vSBC_A_B>:
void vSBC_A_B(){      vGBFunctionSBC(&reg.A, &reg.F, reg.B);}
 80012a0:	4902      	ldr	r1, [pc, #8]	; (80012ac <vSBC_A_B+0xc>)
 80012a2:	78ca      	ldrb	r2, [r1, #3]
 80012a4:	1c48      	adds	r0, r1, #1
 80012a6:	f000 bcfb 	b.w	8001ca0 <vGBFunctionSBC>
 80012aa:	bf00      	nop
 80012ac:	24000a34 	.word	0x24000a34

080012b0 <vSBC_A_C>:
void vSBC_A_C(){      vGBFunctionSBC(&reg.A, &reg.F, reg.C);}
 80012b0:	4902      	ldr	r1, [pc, #8]	; (80012bc <vSBC_A_C+0xc>)
 80012b2:	788a      	ldrb	r2, [r1, #2]
 80012b4:	1c48      	adds	r0, r1, #1
 80012b6:	f000 bcf3 	b.w	8001ca0 <vGBFunctionSBC>
 80012ba:	bf00      	nop
 80012bc:	24000a34 	.word	0x24000a34

080012c0 <vSBC_A_D>:
void vSBC_A_D(){      vGBFunctionSBC(&reg.A, &reg.F, reg.D);}
 80012c0:	4902      	ldr	r1, [pc, #8]	; (80012cc <vSBC_A_D+0xc>)
 80012c2:	794a      	ldrb	r2, [r1, #5]
 80012c4:	1c48      	adds	r0, r1, #1
 80012c6:	f000 bceb 	b.w	8001ca0 <vGBFunctionSBC>
 80012ca:	bf00      	nop
 80012cc:	24000a34 	.word	0x24000a34

080012d0 <vSBC_A_E>:
void vSBC_A_E(){      vGBFunctionSBC(&reg.A, &reg.F, reg.E);}
 80012d0:	4902      	ldr	r1, [pc, #8]	; (80012dc <vSBC_A_E+0xc>)
 80012d2:	790a      	ldrb	r2, [r1, #4]
 80012d4:	1c48      	adds	r0, r1, #1
 80012d6:	f000 bce3 	b.w	8001ca0 <vGBFunctionSBC>
 80012da:	bf00      	nop
 80012dc:	24000a34 	.word	0x24000a34

080012e0 <vSBC_A_H>:
void vSBC_A_H(){      vGBFunctionSBC(&reg.A, &reg.F, reg.H);}
 80012e0:	4902      	ldr	r1, [pc, #8]	; (80012ec <vSBC_A_H+0xc>)
 80012e2:	79ca      	ldrb	r2, [r1, #7]
 80012e4:	1c48      	adds	r0, r1, #1
 80012e6:	f000 bcdb 	b.w	8001ca0 <vGBFunctionSBC>
 80012ea:	bf00      	nop
 80012ec:	24000a34 	.word	0x24000a34

080012f0 <vSBC_A_L>:
void vSBC_A_L(){      vGBFunctionSBC(&reg.A, &reg.F, reg.L);}
 80012f0:	4902      	ldr	r1, [pc, #8]	; (80012fc <vSBC_A_L+0xc>)
 80012f2:	798a      	ldrb	r2, [r1, #6]
 80012f4:	1c48      	adds	r0, r1, #1
 80012f6:	f000 bcd3 	b.w	8001ca0 <vGBFunctionSBC>
 80012fa:	bf00      	nop
 80012fc:	24000a34 	.word	0x24000a34

08001300 <vSBC_A_HL>:
void vSBC_A_HL(){     vGBFunctionSBC(&reg.A, &reg.F, ucGBMemoryRead(reg.HL));}
 8001300:	b510      	push	{r4, lr}
 8001302:	4c05      	ldr	r4, [pc, #20]	; (8001318 <vSBC_A_HL+0x18>)
 8001304:	88e0      	ldrh	r0, [r4, #6]
 8001306:	f000 fe61 	bl	8001fcc <ucGBMemoryRead>
 800130a:	4621      	mov	r1, r4
 800130c:	4602      	mov	r2, r0
 800130e:	1c60      	adds	r0, r4, #1
 8001310:	e8bd 4010 	ldmia.w	sp!, {r4, lr}
 8001314:	f000 bcc4 	b.w	8001ca0 <vGBFunctionSBC>
 8001318:	24000a34 	.word	0x24000a34

0800131c <vSBC_A_A>:
void vSBC_A_A(){      vGBFunctionSBC(&reg.A, &reg.F, reg.A);}
 800131c:	4802      	ldr	r0, [pc, #8]	; (8001328 <vSBC_A_A+0xc>)
 800131e:	4601      	mov	r1, r0
 8001320:	f810 2f01 	ldrb.w	r2, [r0, #1]!
 8001324:	f000 bcbc 	b.w	8001ca0 <vGBFunctionSBC>
 8001328:	24000a34 	.word	0x24000a34

0800132c <vSBC_A_d8>:
void vSBC_A_d8(){     vGBFunctionSBC(&reg.A, &reg.F, ucGBMemoryRead(reg.PC - 1));}
 800132c:	b510      	push	{r4, lr}
 800132e:	4c06      	ldr	r4, [pc, #24]	; (8001348 <vSBC_A_d8+0x1c>)
 8001330:	8960      	ldrh	r0, [r4, #10]
 8001332:	3801      	subs	r0, #1
 8001334:	b280      	uxth	r0, r0
 8001336:	f000 fe49 	bl	8001fcc <ucGBMemoryRead>
 800133a:	4621      	mov	r1, r4
 800133c:	4602      	mov	r2, r0
 800133e:	1c60      	adds	r0, r4, #1
 8001340:	e8bd 4010 	ldmia.w	sp!, {r4, lr}
 8001344:	f000 bcac 	b.w	8001ca0 <vGBFunctionSBC>
 8001348:	24000a34 	.word	0x24000a34

0800134c <vCP_B>:
void vCP_B(){         vGBFunctionCP(reg.A, &reg.F, reg.B);}
 800134c:	4902      	ldr	r1, [pc, #8]	; (8001358 <vCP_B+0xc>)
 800134e:	78ca      	ldrb	r2, [r1, #3]
 8001350:	7848      	ldrb	r0, [r1, #1]
 8001352:	f000 bcd9 	b.w	8001d08 <vGBFunctionCP>
 8001356:	bf00      	nop
 8001358:	24000a34 	.word	0x24000a34

0800135c <vCP_C>:
void vCP_C(){         vGBFunctionCP(reg.A, &reg.F, reg.C);}
 800135c:	4902      	ldr	r1, [pc, #8]	; (8001368 <vCP_C+0xc>)
 800135e:	788a      	ldrb	r2, [r1, #2]
 8001360:	7848      	ldrb	r0, [r1, #1]
 8001362:	f000 bcd1 	b.w	8001d08 <vGBFunctionCP>
 8001366:	bf00      	nop
 8001368:	24000a34 	.word	0x24000a34

0800136c <vCP_D>:
void vCP_D(){         vGBFunctionCP(reg.A, &reg.F, reg.D);}
 800136c:	4902      	ldr	r1, [pc, #8]	; (8001378 <vCP_D+0xc>)
 800136e:	794a      	ldrb	r2, [r1, #5]
 8001370:	7848      	ldrb	r0, [r1, #1]
 8001372:	f000 bcc9 	b.w	8001d08 <vGBFunctionCP>
 8001376:	bf00      	nop
 8001378:	24000a34 	.word	0x24000a34

0800137c <vCP_E>:
void vCP_E(){         vGBFunctionCP(reg.A, &reg.F, reg.E);}
 800137c:	4902      	ldr	r1, [pc, #8]	; (8001388 <vCP_E+0xc>)
 800137e:	790a      	ldrb	r2, [r1, #4]
 8001380:	7848      	ldrb	r0, [r1, #1]
 8001382:	f000 bcc1 	b.w	8001d08 <vGBFunctionCP>
 8001386:	bf00      	nop
 8001388:	24000a34 	.word	0x24000a34

0800138c <vCP_H>:
void vCP_H(){         vGBFunctionCP(reg.A, &reg.F, reg.H);}
 800138c:	4902      	ldr	r1, [pc, #8]	; (8001398 <vCP_H+0xc>)
 800138e:	79ca      	ldrb	r2, [r1, #7]
 8001390:	7848      	ldrb	r0, [r1, #1]
 8001392:	f000 bcb9 	b.w	8001d08 <vGBFunctionCP>
 8001396:	bf00      	nop
 8001398:	24000a34 	.word	0x24000a34

0800139c <vCP_L>:
void vCP_L(){         vGBFunctionCP(reg.A, &reg.F, reg.L);}
 800139c:	4902      	ldr	r1, [pc, #8]	; (80013a8 <vCP_L+0xc>)
 800139e:	798a      	ldrb	r2, [r1, #6]
 80013a0:	7848      	ldrb	r0, [r1, #1]
 80013a2:	f000 bcb1 	b.w	8001d08 <vGBFunctionCP>
 80013a6:	bf00      	nop
 80013a8:	24000a34 	.word	0x24000a34

080013ac <vCP_HL>:
void vCP_HL(){        vGBFunctionCP(reg.A, &reg.F, ucGBMemoryRead(reg.HL));}
 80013ac:	b538      	push	{r3, r4, r5, lr}
 80013ae:	4c06      	ldr	r4, [pc, #24]	; (80013c8 <vCP_HL+0x1c>)
 80013b0:	7865      	ldrb	r5, [r4, #1]
 80013b2:	88e0      	ldrh	r0, [r4, #6]
 80013b4:	f000 fe0a 	bl	8001fcc <ucGBMemoryRead>
 80013b8:	4621      	mov	r1, r4
 80013ba:	4602      	mov	r2, r0
 80013bc:	4628      	mov	r0, r5
 80013be:	e8bd 4038 	ldmia.w	sp!, {r3, r4, r5, lr}
 80013c2:	f000 bca1 	b.w	8001d08 <vGBFunctionCP>
 80013c6:	bf00      	nop
 80013c8:	24000a34 	.word	0x24000a34

080013cc <vCP_A>:
void vCP_A(){         vGBFunctionCP(reg.A, &reg.F, reg.A);}
 80013cc:	4902      	ldr	r1, [pc, #8]	; (80013d8 <vCP_A+0xc>)
 80013ce:	784a      	ldrb	r2, [r1, #1]
 80013d0:	4610      	mov	r0, r2
 80013d2:	f000 bc99 	b.w	8001d08 <vGBFunctionCP>
 80013d6:	bf00      	nop
 80013d8:	24000a34 	.word	0x24000a34

080013dc <vCP_d8>:
// -----------
// -----------
void vCP_d8(){        vGBFunctionCP(reg.A, &reg.F, ucGBMemoryRead(reg.PC - 1));}
 80013dc:	b538      	push	{r3, r4, r5, lr}
 80013de:	4c07      	ldr	r4, [pc, #28]	; (80013fc <vCP_d8+0x20>)
 80013e0:	8960      	ldrh	r0, [r4, #10]
 80013e2:	7865      	ldrb	r5, [r4, #1]
 80013e4:	3801      	subs	r0, #1
 80013e6:	b280      	uxth	r0, r0
 80013e8:	f000 fdf0 	bl	8001fcc <ucGBMemoryRead>
 80013ec:	4621      	mov	r1, r4
 80013ee:	4602      	mov	r2, r0
 80013f0:	4628      	mov	r0, r5
 80013f2:	e8bd 4038 	ldmia.w	sp!, {r3, r4, r5, lr}
 80013f6:	f000 bc87 	b.w	8001d08 <vGBFunctionCP>
 80013fa:	bf00      	nop
 80013fc:	24000a34 	.word	0x24000a34

08001400 <vRET>:
void vRET(){          vGBFunctionRET(&reg.SP, &reg.PC);}
 8001400:	4901      	ldr	r1, [pc, #4]	; (8001408 <vRET+0x8>)
 8001402:	1e88      	subs	r0, r1, #2
 8001404:	f000 bc9e 	b.w	8001d44 <vGBFunctionRET>
 8001408:	24000a3e 	.word	0x24000a3e

0800140c <vRETI>:
void vRETI(){         vGBFunctionRET(&reg.SP, &reg.PC); InterruptDisabled = 0;}
 800140c:	4904      	ldr	r1, [pc, #16]	; (8001420 <vRETI+0x14>)
 800140e:	b508      	push	{r3, lr}
 8001410:	1e88      	subs	r0, r1, #2
 8001412:	f000 fc97 	bl	8001d44 <vGBFunctionRET>
 8001416:	4b03      	ldr	r3, [pc, #12]	; (8001424 <vRETI+0x18>)
 8001418:	2200      	movs	r2, #0
 800141a:	701a      	strb	r2, [r3, #0]
 800141c:	bd08      	pop	{r3, pc}
 800141e:	bf00      	nop
 8001420:	24000a3e 	.word	0x24000a3e
 8001424:	240008e4 	.word	0x240008e4

08001428 <vPOP_BC>:
void vPOP_BC(){       vGBFunctionPOP(&reg.SP, &reg.BC);}
 8001428:	4901      	ldr	r1, [pc, #4]	; (8001430 <vPOP_BC+0x8>)
 800142a:	1d88      	adds	r0, r1, #6
 800142c:	f000 bca4 	b.w	8001d78 <vGBFunctionPOP>
 8001430:	24000a36 	.word	0x24000a36

08001434 <vPOP_DE>:
void vPOP_DE(){       vGBFunctionPOP(&reg.SP, &reg.DE);}
 8001434:	4901      	ldr	r1, [pc, #4]	; (800143c <vPOP_DE+0x8>)
 8001436:	1d08      	adds	r0, r1, #4
 8001438:	f000 bc9e 	b.w	8001d78 <vGBFunctionPOP>
 800143c:	24000a38 	.word	0x24000a38

08001440 <vPOP_HL>:
void vPOP_HL(){       vGBFunctionPOP(&reg.SP, &reg.HL);}
 8001440:	4901      	ldr	r1, [pc, #4]	; (8001448 <vPOP_HL+0x8>)
 8001442:	1c88      	adds	r0, r1, #2
 8001444:	f000 bc98 	b.w	8001d78 <vGBFunctionPOP>
 8001448:	24000a3a 	.word	0x24000a3a

0800144c <vPOP_AF>:
void vPOP_AF(){       vGBFunctionPOP(&reg.SP, &reg.AF);}
 800144c:	4902      	ldr	r1, [pc, #8]	; (8001458 <vPOP_AF+0xc>)
 800144e:	f101 0008 	add.w	r0, r1, #8
 8001452:	f000 bc91 	b.w	8001d78 <vGBFunctionPOP>
 8001456:	bf00      	nop
 8001458:	24000a34 	.word	0x24000a34

0800145c <vJP_NZ_a16>:
void vJP_NZ_a16(){    customDuration = vGBFunctionJP_NZ_a16(&reg.PC, &reg.F, concat_16bit_bigEndian(ucGBMemoryRead(reg.PC - 2), ucGBMemoryRead(reg.PC - 1)));}
 800145c:	b570      	push	{r4, r5, r6, lr}
 800145e:	4d0d      	ldr	r5, [pc, #52]	; (8001494 <vJP_NZ_a16+0x38>)
 8001460:	8968      	ldrh	r0, [r5, #10]
 8001462:	462c      	mov	r4, r5
 8001464:	3802      	subs	r0, #2
 8001466:	b280      	uxth	r0, r0
 8001468:	f000 fdb0 	bl	8001fcc <ucGBMemoryRead>
 800146c:	f834 3f0a 	ldrh.w	r3, [r4, #10]!
 8001470:	4606      	mov	r6, r0
 8001472:	1e58      	subs	r0, r3, #1
 8001474:	b280      	uxth	r0, r0
 8001476:	f000 fda9 	bl	8001fcc <ucGBMemoryRead>
 800147a:	4601      	mov	r1, r0
 800147c:	4630      	mov	r0, r6
 800147e:	f000 fa25 	bl	80018cc <concat_16bit_bigEndian>
 8001482:	4629      	mov	r1, r5
 8001484:	4602      	mov	r2, r0
 8001486:	4620      	mov	r0, r4
 8001488:	f000 fc78 	bl	8001d7c <vGBFunctionJP_NZ_a16>
 800148c:	4b02      	ldr	r3, [pc, #8]	; (8001498 <vJP_NZ_a16+0x3c>)
 800148e:	7018      	strb	r0, [r3, #0]
 8001490:	bd70      	pop	{r4, r5, r6, pc}
 8001492:	bf00      	nop
 8001494:	24000a34 	.word	0x24000a34
 8001498:	240008e5 	.word	0x240008e5

0800149c <vCALL_NZ_a16>:
void vCALL_NZ_a16(){  customDuration = vGBFunctionCALL_NZ_a16(&reg.PC, &reg.F, &reg.SP);}
 800149c:	4a04      	ldr	r2, [pc, #16]	; (80014b0 <vCALL_NZ_a16+0x14>)
 800149e:	b508      	push	{r3, lr}
 80014a0:	f1a2 0108 	sub.w	r1, r2, #8
 80014a4:	1c90      	adds	r0, r2, #2
 80014a6:	f000 fc85 	bl	8001db4 <vGBFunctionCALL_NZ_a16>
 80014aa:	4b02      	ldr	r3, [pc, #8]	; (80014b4 <vCALL_NZ_a16+0x18>)
 80014ac:	7018      	strb	r0, [r3, #0]
 80014ae:	bd08      	pop	{r3, pc}
 80014b0:	24000a3c 	.word	0x24000a3c
 80014b4:	240008e5 	.word	0x240008e5

080014b8 <vPUSH_BC>:
void vPUSH_BC(){      vGBFunctionPUSH(&reg.SP, &reg.BC);}
 80014b8:	4901      	ldr	r1, [pc, #4]	; (80014c0 <vPUSH_BC+0x8>)
 80014ba:	1d88      	adds	r0, r1, #6
 80014bc:	f000 bc66 	b.w	8001d8c <vGBFunctionPUSH>
 80014c0:	24000a36 	.word	0x24000a36

080014c4 <vRST_00H>:
void vRST_00H(){      vGBFunctionPUSH(&reg.SP, &reg.PC); reg.PC = 0x0000;}
 80014c4:	b510      	push	{r4, lr}
 80014c6:	4c04      	ldr	r4, [pc, #16]	; (80014d8 <vRST_00H+0x14>)
 80014c8:	4621      	mov	r1, r4
 80014ca:	1ea0      	subs	r0, r4, #2
 80014cc:	f000 fc5e 	bl	8001d8c <vGBFunctionPUSH>
 80014d0:	3c0a      	subs	r4, #10
 80014d2:	2300      	movs	r3, #0
 80014d4:	8163      	strh	r3, [r4, #10]
 80014d6:	bd10      	pop	{r4, pc}
 80014d8:	24000a3e 	.word	0x24000a3e

080014dc <vCALL_a16>:
void vCALL_a16(){     vGBFunctionPUSH(&reg.SP, &reg.PC); reg.PC = concat_16bit_bigEndian(ucGBMemoryRead(reg.PC - 2), ucGBMemoryRead(reg.PC - 1));}
 80014dc:	490b      	ldr	r1, [pc, #44]	; (800150c <vCALL_a16+0x30>)
 80014de:	b538      	push	{r3, r4, r5, lr}
 80014e0:	460c      	mov	r4, r1
 80014e2:	1e88      	subs	r0, r1, #2
 80014e4:	f000 fc52 	bl	8001d8c <vGBFunctionPUSH>
 80014e8:	f834 090a 	ldrh.w	r0, [r4], #-10
 80014ec:	3802      	subs	r0, #2
 80014ee:	b280      	uxth	r0, r0
 80014f0:	f000 fd6c 	bl	8001fcc <ucGBMemoryRead>
 80014f4:	8963      	ldrh	r3, [r4, #10]
 80014f6:	4605      	mov	r5, r0
 80014f8:	1e58      	subs	r0, r3, #1
 80014fa:	b280      	uxth	r0, r0
 80014fc:	f000 fd66 	bl	8001fcc <ucGBMemoryRead>
 8001500:	4601      	mov	r1, r0
 8001502:	4628      	mov	r0, r5
 8001504:	f000 f9e2 	bl	80018cc <concat_16bit_bigEndian>
 8001508:	8160      	strh	r0, [r4, #10]
 800150a:	bd38      	pop	{r3, r4, r5, pc}
 800150c:	24000a3e 	.word	0x24000a3e

08001510 <vRST_08H>:
void vRST_08H(){      vGBFunctionPUSH(&reg.SP, &reg.PC); reg.PC = 0x0008;}
 8001510:	b510      	push	{r4, lr}
 8001512:	4c04      	ldr	r4, [pc, #16]	; (8001524 <vRST_08H+0x14>)
 8001514:	4621      	mov	r1, r4
 8001516:	1ea0      	subs	r0, r4, #2
 8001518:	f000 fc38 	bl	8001d8c <vGBFunctionPUSH>
 800151c:	2308      	movs	r3, #8
 800151e:	8023      	strh	r3, [r4, #0]
 8001520:	bd10      	pop	{r4, pc}
 8001522:	bf00      	nop
 8001524:	24000a3e 	.word	0x24000a3e

08001528 <vPUSH_DE>:
void vPUSH_DE(){      vGBFunctionPUSH(&reg.SP, &reg.DE);}
 8001528:	4901      	ldr	r1, [pc, #4]	; (8001530 <vPUSH_DE+0x8>)
 800152a:	1d08      	adds	r0, r1, #4
 800152c:	f000 bc2e 	b.w	8001d8c <vGBFunctionPUSH>
 8001530:	24000a38 	.word	0x24000a38

08001534 <vRST_10H>:
void vRST_10H(){      vGBFunctionPUSH(&reg.SP, &reg.PC); reg.PC = 0x0010;}
 8001534:	b510      	push	{r4, lr}
 8001536:	4c04      	ldr	r4, [pc, #16]	; (8001548 <vRST_10H+0x14>)
 8001538:	4621      	mov	r1, r4
 800153a:	1ea0      	subs	r0, r4, #2
 800153c:	f000 fc26 	bl	8001d8c <vGBFunctionPUSH>
 8001540:	2310      	movs	r3, #16
 8001542:	8023      	strh	r3, [r4, #0]
 8001544:	bd10      	pop	{r4, pc}
 8001546:	bf00      	nop
 8001548:	24000a3e 	.word	0x24000a3e

0800154c <vRST_18H>:
void vRST_18H(){      vGBFunctionPUSH(&reg.SP, &reg.PC); reg.PC = 0x0018;}
 800154c:	b510      	push	{r4, lr}
 800154e:	4c04      	ldr	r4, [pc, #16]	; (8001560 <vRST_18H+0x14>)
 8001550:	4621      	mov	r1, r4
 8001552:	1ea0      	subs	r0, r4, #2
 8001554:	f000 fc1a 	bl	8001d8c <vGBFunctionPUSH>
 8001558:	2318      	movs	r3, #24
 800155a:	8023      	strh	r3, [r4, #0]
 800155c:	bd10      	pop	{r4, pc}
 800155e:	bf00      	nop
 8001560:	24000a3e 	.word	0x24000a3e

08001564 <vPUSH_HL>:
void vPUSH_HL(){      vGBFunctionPUSH(&reg.SP, &reg.HL);}
 8001564:	4901      	ldr	r1, [pc, #4]	; (800156c <vPUSH_HL+0x8>)
 8001566:	1c88      	adds	r0, r1, #2
 8001568:	f000 bc10 	b.w	8001d8c <vGBFunctionPUSH>
 800156c:	24000a3a 	.word	0x24000a3a

08001570 <vRST20H>:
void vRST20H(){       vGBFunctionPUSH(&reg.SP, &reg.PC); reg.PC = 0x0020;}
 8001570:	b510      	push	{r4, lr}
 8001572:	4c04      	ldr	r4, [pc, #16]	; (8001584 <vRST20H+0x14>)
 8001574:	4621      	mov	r1, r4
 8001576:	1ea0      	subs	r0, r4, #2
 8001578:	f000 fc08 	bl	8001d8c <vGBFunctionPUSH>
 800157c:	2320      	movs	r3, #32
 800157e:	8023      	strh	r3, [r4, #0]
 8001580:	bd10      	pop	{r4, pc}
 8001582:	bf00      	nop
 8001584:	24000a3e 	.word	0x24000a3e

08001588 <vRST_28H>:
void vRST_28H(){      vGBFunctionPUSH(&reg.SP, &reg.PC); reg.PC = 0x0028;}
 8001588:	b510      	push	{r4, lr}
 800158a:	4c04      	ldr	r4, [pc, #16]	; (800159c <vRST_28H+0x14>)
 800158c:	4621      	mov	r1, r4
 800158e:	1ea0      	subs	r0, r4, #2
 8001590:	f000 fbfc 	bl	8001d8c <vGBFunctionPUSH>
 8001594:	2328      	movs	r3, #40	; 0x28
 8001596:	8023      	strh	r3, [r4, #0]
 8001598:	bd10      	pop	{r4, pc}
 800159a:	bf00      	nop
 800159c:	24000a3e 	.word	0x24000a3e

080015a0 <vPUSH_AF>:
void vPUSH_AF(){      vGBFunctionPUSH(&reg.SP, &reg.AF);}
 80015a0:	4902      	ldr	r1, [pc, #8]	; (80015ac <vPUSH_AF+0xc>)
 80015a2:	f101 0008 	add.w	r0, r1, #8
 80015a6:	f000 bbf1 	b.w	8001d8c <vGBFunctionPUSH>
 80015aa:	bf00      	nop
 80015ac:	24000a34 	.word	0x24000a34

080015b0 <vRST_30H>:
void vRST_30H(){      vGBFunctionPUSH(&reg.SP, &reg.PC); reg.PC = 0x0030;}
 80015b0:	b510      	push	{r4, lr}
 80015b2:	4c04      	ldr	r4, [pc, #16]	; (80015c4 <vRST_30H+0x14>)
 80015b4:	4621      	mov	r1, r4
 80015b6:	1ea0      	subs	r0, r4, #2
 80015b8:	f000 fbe8 	bl	8001d8c <vGBFunctionPUSH>
 80015bc:	2330      	movs	r3, #48	; 0x30
 80015be:	8023      	strh	r3, [r4, #0]
 80015c0:	bd10      	pop	{r4, pc}
 80015c2:	bf00      	nop
 80015c4:	24000a3e 	.word	0x24000a3e

080015c8 <vRST_38H>:
void vRST_38H(){      vGBFunctionPUSH(&reg.SP, &reg.PC); reg.PC = 0x0038;}
 80015c8:	b510      	push	{r4, lr}
 80015ca:	4c04      	ldr	r4, [pc, #16]	; (80015dc <vRST_38H+0x14>)
 80015cc:	4621      	mov	r1, r4
 80015ce:	1ea0      	subs	r0, r4, #2
 80015d0:	f000 fbdc 	bl	8001d8c <vGBFunctionPUSH>
 80015d4:	2338      	movs	r3, #56	; 0x38
 80015d6:	8023      	strh	r3, [r4, #0]
 80015d8:	bd10      	pop	{r4, pc}
 80015da:	bf00      	nop
 80015dc:	24000a3e 	.word	0x24000a3e

080015e0 <vJP_Z_a16>:
void vJP_Z_a16(){     customDuration = vGBFunctionJP_Z_a16(&reg.PC, &reg.F, concat_16bit_bigEndian(ucGBMemoryRead(reg.PC - 2), ucGBMemoryRead(reg.PC - 1)));}
 80015e0:	b570      	push	{r4, r5, r6, lr}
 80015e2:	4d0d      	ldr	r5, [pc, #52]	; (8001618 <vJP_Z_a16+0x38>)
 80015e4:	8968      	ldrh	r0, [r5, #10]
 80015e6:	462c      	mov	r4, r5
 80015e8:	3802      	subs	r0, #2
 80015ea:	b280      	uxth	r0, r0
 80015ec:	f000 fcee 	bl	8001fcc <ucGBMemoryRead>
 80015f0:	f834 3f0a 	ldrh.w	r3, [r4, #10]!
 80015f4:	4606      	mov	r6, r0
 80015f6:	1e58      	subs	r0, r3, #1
 80015f8:	b280      	uxth	r0, r0
 80015fa:	f000 fce7 	bl	8001fcc <ucGBMemoryRead>
 80015fe:	4601      	mov	r1, r0
 8001600:	4630      	mov	r0, r6
 8001602:	f000 f963 	bl	80018cc <concat_16bit_bigEndian>
 8001606:	4629      	mov	r1, r5
 8001608:	4602      	mov	r2, r0
 800160a:	4620      	mov	r0, r4
 800160c:	f000 fbf6 	bl	8001dfc <vGBFunctionJP_Z_a16>
 8001610:	4b02      	ldr	r3, [pc, #8]	; (800161c <vJP_Z_a16+0x3c>)
 8001612:	7018      	strb	r0, [r3, #0]
 8001614:	bd70      	pop	{r4, r5, r6, pc}
 8001616:	bf00      	nop
 8001618:	24000a34 	.word	0x24000a34
 800161c:	240008e5 	.word	0x240008e5

08001620 <vCALL_Z_a16>:
void vCALL_Z_a16(){   customDuration = vGBFunctionCALL_Z_a16(&reg.PC, &reg.F, &reg.SP);}
 8001620:	4a04      	ldr	r2, [pc, #16]	; (8001634 <vCALL_Z_a16+0x14>)
 8001622:	b508      	push	{r3, lr}
 8001624:	f1a2 0108 	sub.w	r1, r2, #8
 8001628:	1c90      	adds	r0, r2, #2
 800162a:	f000 fbef 	bl	8001e0c <vGBFunctionCALL_Z_a16>
 800162e:	4b02      	ldr	r3, [pc, #8]	; (8001638 <vCALL_Z_a16+0x18>)
 8001630:	7018      	strb	r0, [r3, #0]
 8001632:	bd08      	pop	{r3, pc}
 8001634:	24000a3c 	.word	0x24000a3c
 8001638:	240008e5 	.word	0x240008e5

0800163c <vJP_NC_a16>:
void vJP_NC_a16(){    customDuration = vGBFunctionJP_NC_a16(&reg.PC, &reg.F, concat_16bit_bigEndian(ucGBMemoryRead(reg.PC - 2), ucGBMemoryRead(reg.PC - 1)));}
 800163c:	b570      	push	{r4, r5, r6, lr}
 800163e:	4d0d      	ldr	r5, [pc, #52]	; (8001674 <vJP_NC_a16+0x38>)
 8001640:	8968      	ldrh	r0, [r5, #10]
 8001642:	462c      	mov	r4, r5
 8001644:	3802      	subs	r0, #2
 8001646:	b280      	uxth	r0, r0
 8001648:	f000 fcc0 	bl	8001fcc <ucGBMemoryRead>
 800164c:	f834 3f0a 	ldrh.w	r3, [r4, #10]!
 8001650:	4606      	mov	r6, r0
 8001652:	1e58      	subs	r0, r3, #1
 8001654:	b280      	uxth	r0, r0
 8001656:	f000 fcb9 	bl	8001fcc <ucGBMemoryRead>
 800165a:	4601      	mov	r1, r0
 800165c:	4630      	mov	r0, r6
 800165e:	f000 f935 	bl	80018cc <concat_16bit_bigEndian>
 8001662:	4629      	mov	r1, r5
 8001664:	4602      	mov	r2, r0
 8001666:	4620      	mov	r0, r4
 8001668:	f000 fbf4 	bl	8001e54 <vGBFunctionJP_NC_a16>
 800166c:	4b02      	ldr	r3, [pc, #8]	; (8001678 <vJP_NC_a16+0x3c>)
 800166e:	7018      	strb	r0, [r3, #0]
 8001670:	bd70      	pop	{r4, r5, r6, pc}
 8001672:	bf00      	nop
 8001674:	24000a34 	.word	0x24000a34
 8001678:	240008e5 	.word	0x240008e5

0800167c <vCALL_NC_a16>:
void vCALL_NC_a16(){  customDuration = vGBFunctionCALL_NC_a16(&reg.PC, &reg.F, &reg.SP);}
 800167c:	4a04      	ldr	r2, [pc, #16]	; (8001690 <vCALL_NC_a16+0x14>)
 800167e:	b508      	push	{r3, lr}
 8001680:	f1a2 0108 	sub.w	r1, r2, #8
 8001684:	1c90      	adds	r0, r2, #2
 8001686:	f000 fbed 	bl	8001e64 <vGBFunctionCALL_NC_a16>
 800168a:	4b02      	ldr	r3, [pc, #8]	; (8001694 <vCALL_NC_a16+0x18>)
 800168c:	7018      	strb	r0, [r3, #0]
 800168e:	bd08      	pop	{r3, pc}
 8001690:	24000a3c 	.word	0x24000a3c
 8001694:	240008e5 	.word	0x240008e5

08001698 <vJP_C_a16>:
void vJP_C_a16(){     customDuration = vGBFunctionJP_C_a16(&reg.PC, &reg.F, concat_16bit_bigEndian(ucGBMemoryRead(reg.PC - 2), ucGBMemoryRead(reg.PC - 1)));}
 8001698:	b570      	push	{r4, r5, r6, lr}
 800169a:	4d0d      	ldr	r5, [pc, #52]	; (80016d0 <vJP_C_a16+0x38>)
 800169c:	8968      	ldrh	r0, [r5, #10]
 800169e:	462c      	mov	r4, r5
 80016a0:	3802      	subs	r0, #2
 80016a2:	b280      	uxth	r0, r0
 80016a4:	f000 fc92 	bl	8001fcc <ucGBMemoryRead>
 80016a8:	f834 3f0a 	ldrh.w	r3, [r4, #10]!
 80016ac:	4606      	mov	r6, r0
 80016ae:	1e58      	subs	r0, r3, #1
 80016b0:	b280      	uxth	r0, r0
 80016b2:	f000 fc8b 	bl	8001fcc <ucGBMemoryRead>
 80016b6:	4601      	mov	r1, r0
 80016b8:	4630      	mov	r0, r6
 80016ba:	f000 f907 	bl	80018cc <concat_16bit_bigEndian>
 80016be:	4629      	mov	r1, r5
 80016c0:	4602      	mov	r2, r0
 80016c2:	4620      	mov	r0, r4
 80016c4:	f000 fbf2 	bl	8001eac <vGBFunctionJP_C_a16>
 80016c8:	4b02      	ldr	r3, [pc, #8]	; (80016d4 <vJP_C_a16+0x3c>)
 80016ca:	7018      	strb	r0, [r3, #0]
 80016cc:	bd70      	pop	{r4, r5, r6, pc}
 80016ce:	bf00      	nop
 80016d0:	24000a34 	.word	0x24000a34
 80016d4:	240008e5 	.word	0x240008e5

080016d8 <vCALL_C_a16>:
void vCALL_C_a16(){   customDuration = vGBFunctionCALL_C_a16(&reg.PC, &reg.F, &reg.SP);}
 80016d8:	4a04      	ldr	r2, [pc, #16]	; (80016ec <vCALL_C_a16+0x14>)
 80016da:	b508      	push	{r3, lr}
 80016dc:	f1a2 0108 	sub.w	r1, r2, #8
 80016e0:	1c90      	adds	r0, r2, #2
 80016e2:	f000 fbeb 	bl	8001ebc <vGBFunctionCALL_C_a16>
 80016e6:	4b02      	ldr	r3, [pc, #8]	; (80016f0 <vCALL_C_a16+0x18>)
 80016e8:	7018      	strb	r0, [r3, #0]
 80016ea:	bd08      	pop	{r3, pc}
 80016ec:	24000a3c 	.word	0x24000a3c
 80016f0:	240008e5 	.word	0x240008e5

080016f4 <vADDs_SP_r8>:
void vADDs_SP_r8(){   vGBFunctionADD_SP_r8(&reg.SP, &reg.F, ucGBMemoryRead(reg.PC - 1));}
 80016f4:	b510      	push	{r4, lr}
 80016f6:	4c07      	ldr	r4, [pc, #28]	; (8001714 <vADDs_SP_r8+0x20>)
 80016f8:	8960      	ldrh	r0, [r4, #10]
 80016fa:	3801      	subs	r0, #1
 80016fc:	b280      	uxth	r0, r0
 80016fe:	f000 fc65 	bl	8001fcc <ucGBMemoryRead>
 8001702:	4621      	mov	r1, r4
 8001704:	4602      	mov	r2, r0
 8001706:	f104 0008 	add.w	r0, r4, #8
 800170a:	e8bd 4010 	ldmia.w	sp!, {r4, lr}
 800170e:	f000 bbf9 	b.w	8001f04 <vGBFunctionADD_SP_r8>
 8001712:	bf00      	nop
 8001714:	24000a34 	.word	0x24000a34

08001718 <vLDs_HL_SP_r8>:
void vLDs_HL_SP_r8(){ vGBFunctionLD_HL_SP_r8(&reg.HL, &reg.SP, &reg.F, ucGBMemoryRead(reg.PC - 1));}
 8001718:	b510      	push	{r4, lr}
 800171a:	4c07      	ldr	r4, [pc, #28]	; (8001738 <vLDs_HL_SP_r8+0x20>)
 800171c:	8960      	ldrh	r0, [r4, #10]
 800171e:	3801      	subs	r0, #1
 8001720:	b280      	uxth	r0, r0
 8001722:	f000 fc53 	bl	8001fcc <ucGBMemoryRead>
 8001726:	4622      	mov	r2, r4
 8001728:	4603      	mov	r3, r0
 800172a:	f104 0108 	add.w	r1, r4, #8
 800172e:	1da0      	adds	r0, r4, #6
 8001730:	e8bd 4010 	ldmia.w	sp!, {r4, lr}
 8001734:	f000 bc0e 	b.w	8001f54 <vGBFunctionLD_HL_SP_r8>
 8001738:	24000a34 	.word	0x24000a34

0800173c <vCCF>:
void vCCF(){          resetbit(&reg.F, N_FLAG); resetbit(&reg.F, H_FLAG); (checkbit(reg.F, C_FLAG)) ? resetbit(&reg.F, C_FLAG) : setbit(&reg.F, C_FLAG);}
 800173c:	b510      	push	{r4, lr}
 800173e:	4c0d      	ldr	r4, [pc, #52]	; (8001774 <vCCF+0x38>)
 8001740:	2106      	movs	r1, #6
 8001742:	4620      	mov	r0, r4
 8001744:	f000 f8d4 	bl	80018f0 <resetbit>
 8001748:	4620      	mov	r0, r4
 800174a:	2105      	movs	r1, #5
 800174c:	f000 f8d0 	bl	80018f0 <resetbit>
 8001750:	7820      	ldrb	r0, [r4, #0]
 8001752:	2104      	movs	r1, #4
 8001754:	f000 f8d4 	bl	8001900 <checkbit>
 8001758:	b128      	cbz	r0, 8001766 <vCCF+0x2a>
 800175a:	4620      	mov	r0, r4
 800175c:	2104      	movs	r1, #4
 800175e:	e8bd 4010 	ldmia.w	sp!, {r4, lr}
 8001762:	f000 b8c5 	b.w	80018f0 <resetbit>
 8001766:	4620      	mov	r0, r4
 8001768:	2104      	movs	r1, #4
 800176a:	e8bd 4010 	ldmia.w	sp!, {r4, lr}
 800176e:	f000 b8b7 	b.w	80018e0 <setbit>
 8001772:	bf00      	nop
 8001774:	24000a34 	.word	0x24000a34

08001778 <vRET_C.part.0>:
void vRET_NZ(){       customDuration = (checkbit(reg.F, Z_FLAG)) ?  8 : 20; if(checkbit(reg.F, Z_FLAG) == 0) vGBFunctionRET(&reg.SP, &reg.PC);}
 8001778:	4901      	ldr	r1, [pc, #4]	; (8001780 <vRET_C.part.0+0x8>)
 800177a:	1e88      	subs	r0, r1, #2
 800177c:	f000 bae2 	b.w	8001d44 <vGBFunctionRET>
 8001780:	24000a3e 	.word	0x24000a3e

08001784 <vRET_NZ>:
 8001784:	b510      	push	{r4, lr}
 8001786:	4c0b      	ldr	r4, [pc, #44]	; (80017b4 <vRET_NZ+0x30>)
 8001788:	2107      	movs	r1, #7
 800178a:	7820      	ldrb	r0, [r4, #0]
 800178c:	f000 f8b8 	bl	8001900 <checkbit>
 8001790:	2800      	cmp	r0, #0
 8001792:	4b09      	ldr	r3, [pc, #36]	; (80017b8 <vRET_NZ+0x34>)
 8001794:	f04f 0107 	mov.w	r1, #7
 8001798:	bf14      	ite	ne
 800179a:	2208      	movne	r2, #8
 800179c:	2214      	moveq	r2, #20
 800179e:	7820      	ldrb	r0, [r4, #0]
 80017a0:	701a      	strb	r2, [r3, #0]
 80017a2:	f000 f8ad 	bl	8001900 <checkbit>
 80017a6:	b100      	cbz	r0, 80017aa <vRET_NZ+0x26>
 80017a8:	bd10      	pop	{r4, pc}
 80017aa:	e8bd 4010 	ldmia.w	sp!, {r4, lr}
 80017ae:	f7ff bfe3 	b.w	8001778 <vRET_C.part.0>
 80017b2:	bf00      	nop
 80017b4:	24000a34 	.word	0x24000a34
 80017b8:	240008e5 	.word	0x240008e5

080017bc <vRET_Z>:
void vRET_Z(){        customDuration = (checkbit(reg.F, Z_FLAG)) ?  20 : 8; if(checkbit(reg.F, Z_FLAG)) vGBFunctionRET(&reg.SP, &reg.PC);}
 80017bc:	b510      	push	{r4, lr}
 80017be:	4c0b      	ldr	r4, [pc, #44]	; (80017ec <vRET_Z+0x30>)
 80017c0:	2107      	movs	r1, #7
 80017c2:	7820      	ldrb	r0, [r4, #0]
 80017c4:	f000 f89c 	bl	8001900 <checkbit>
 80017c8:	2800      	cmp	r0, #0
 80017ca:	4b09      	ldr	r3, [pc, #36]	; (80017f0 <vRET_Z+0x34>)
 80017cc:	f04f 0107 	mov.w	r1, #7
 80017d0:	bf14      	ite	ne
 80017d2:	2214      	movne	r2, #20
 80017d4:	2208      	moveq	r2, #8
 80017d6:	7820      	ldrb	r0, [r4, #0]
 80017d8:	701a      	strb	r2, [r3, #0]
 80017da:	f000 f891 	bl	8001900 <checkbit>
 80017de:	b900      	cbnz	r0, 80017e2 <vRET_Z+0x26>
 80017e0:	bd10      	pop	{r4, pc}
 80017e2:	e8bd 4010 	ldmia.w	sp!, {r4, lr}
 80017e6:	f7ff bfc7 	b.w	8001778 <vRET_C.part.0>
 80017ea:	bf00      	nop
 80017ec:	24000a34 	.word	0x24000a34
 80017f0:	240008e5 	.word	0x240008e5

080017f4 <vRET_NC>:
void vRET_NC(){       customDuration =(checkbit(reg.F, C_FLAG)) ?  8 : 20; if(checkbit(reg.F, C_FLAG) == 0) vGBFunctionRET(&reg.SP, &reg.PC);}
 80017f4:	b510      	push	{r4, lr}
 80017f6:	4c0b      	ldr	r4, [pc, #44]	; (8001824 <vRET_NC+0x30>)
 80017f8:	2104      	movs	r1, #4
 80017fa:	7820      	ldrb	r0, [r4, #0]
 80017fc:	f000 f880 	bl	8001900 <checkbit>
 8001800:	2800      	cmp	r0, #0
 8001802:	4b09      	ldr	r3, [pc, #36]	; (8001828 <vRET_NC+0x34>)
 8001804:	f04f 0104 	mov.w	r1, #4
 8001808:	bf14      	ite	ne
 800180a:	2208      	movne	r2, #8
 800180c:	2214      	moveq	r2, #20
 800180e:	7820      	ldrb	r0, [r4, #0]
 8001810:	701a      	strb	r2, [r3, #0]
 8001812:	f000 f875 	bl	8001900 <checkbit>
 8001816:	b100      	cbz	r0, 800181a <vRET_NC+0x26>
 8001818:	bd10      	pop	{r4, pc}
 800181a:	e8bd 4010 	ldmia.w	sp!, {r4, lr}
 800181e:	f7ff bfab 	b.w	8001778 <vRET_C.part.0>
 8001822:	bf00      	nop
 8001824:	24000a34 	.word	0x24000a34
 8001828:	240008e5 	.word	0x240008e5

0800182c <vRET_C>:
void vRET_C(){        customDuration =(checkbit(reg.F, C_FLAG)) ?  20 : 8; if(checkbit(reg.F, C_FLAG)) vGBFunctionRET(&reg.SP, &reg.PC);}
 800182c:	b510      	push	{r4, lr}
 800182e:	4c0b      	ldr	r4, [pc, #44]	; (800185c <vRET_C+0x30>)
 8001830:	2104      	movs	r1, #4
 8001832:	7820      	ldrb	r0, [r4, #0]
 8001834:	f000 f864 	bl	8001900 <checkbit>
 8001838:	2800      	cmp	r0, #0
 800183a:	4b09      	ldr	r3, [pc, #36]	; (8001860 <vRET_C+0x34>)
 800183c:	f04f 0104 	mov.w	r1, #4
 8001840:	bf14      	ite	ne
 8001842:	2214      	movne	r2, #20
 8001844:	2208      	moveq	r2, #8
 8001846:	7820      	ldrb	r0, [r4, #0]
 8001848:	701a      	strb	r2, [r3, #0]
 800184a:	f000 f859 	bl	8001900 <checkbit>
 800184e:	b900      	cbnz	r0, 8001852 <vRET_C+0x26>
 8001850:	bd10      	pop	{r4, pc}
 8001852:	e8bd 4010 	ldmia.w	sp!, {r4, lr}
 8001856:	f7ff bf8f 	b.w	8001778 <vRET_C.part.0>
 800185a:	bf00      	nop
 800185c:	24000a34 	.word	0x24000a34
 8001860:	240008e5 	.word	0x240008e5

08001864 <vPREFIX>:
 8001864:	4770      	bx	lr
 8001866:	bf00      	nop

08001868 <vLD_B_B>:
 8001868:	4770      	bx	lr
 800186a:	bf00      	nop

0800186c <vLD_C_C>:
 800186c:	4770      	bx	lr
 800186e:	bf00      	nop

08001870 <vLD_D_D>:
 8001870:	4770      	bx	lr
 8001872:	bf00      	nop

08001874 <vLD_E_E>:
 8001874:	4770      	bx	lr
 8001876:	bf00      	nop

08001878 <vLD_H_H>:
 8001878:	4770      	bx	lr
 800187a:	bf00      	nop

0800187c <vLD_L_L>:
 800187c:	4770      	bx	lr
 800187e:	bf00      	nop

08001880 <vLD_A_A>:
 8001880:	4770      	bx	lr
 8001882:	bf00      	nop

08001884 <vGBCPUinstr>:
	if(reg.PC <= 0xFF){
		vGBCPUinstr(ucGBMemoryRead(reg.PC));
	}
}

void vGBCPUinstr(uint8_t opcode){
 8001884:	b570      	push	{r4, r5, r6, lr}
 8001886:	4604      	mov	r4, r0
	vGBMemorySetOP(opcode);
 8001888:	f000 fb8c 	bl	8001fa4 <vGBMemorySetOP>
	reg.PC += instructions[opcode].bytes;
 800188c:	4b06      	ldr	r3, [pc, #24]	; (80018a8 <vGBCPUinstr+0x24>)
 800188e:	4a07      	ldr	r2, [pc, #28]	; (80018ac <vGBCPUinstr+0x28>)
 8001890:	eb03 05c4 	add.w	r5, r3, r4, lsl #3
	((void (*)(void))instructions[opcode].instr)();
 8001894:	f853 1034 	ldr.w	r1, [r3, r4, lsl #3]
	reg.PC += instructions[opcode].bytes;
 8001898:	8950      	ldrh	r0, [r2, #10]
 800189a:	792b      	ldrb	r3, [r5, #4]
 800189c:	4403      	add	r3, r0
}
 800189e:	e8bd 4070 	ldmia.w	sp!, {r4, r5, r6, lr}
	reg.PC += instructions[opcode].bytes;
 80018a2:	8153      	strh	r3, [r2, #10]
	((void (*)(void))instructions[opcode].instr)();
 80018a4:	4708      	bx	r1
 80018a6:	bf00      	nop
 80018a8:	24000008 	.word	0x24000008
 80018ac:	24000a34 	.word	0x24000a34

080018b0 <vGBCPUboot>:
void vGBCPUboot(){
 80018b0:	b508      	push	{r3, lr}
	if(reg.PC <= 0xFF){
 80018b2:	4b05      	ldr	r3, [pc, #20]	; (80018c8 <vGBCPUboot+0x18>)
 80018b4:	8958      	ldrh	r0, [r3, #10]
 80018b6:	28ff      	cmp	r0, #255	; 0xff
 80018b8:	d900      	bls.n	80018bc <vGBCPUboot+0xc>
}
 80018ba:	bd08      	pop	{r3, pc}
		vGBCPUinstr(ucGBMemoryRead(reg.PC));
 80018bc:	f000 fb86 	bl	8001fcc <ucGBMemoryRead>
}
 80018c0:	e8bd 4008 	ldmia.w	sp!, {r3, lr}
		vGBCPUinstr(ucGBMemoryRead(reg.PC));
 80018c4:	f7ff bfde 	b.w	8001884 <vGBCPUinstr>
 80018c8:	24000a34 	.word	0x24000a34

080018cc <concat_16bit_bigEndian>:
#include "gbfunctions.h"
#include "gbmemory.h"

uint16_t concat_16bit_bigEndian(uint8_t x, uint8_t y) {
	uint16_t pow = 16;
    while(x >= pow)
 80018cc:	280f      	cmp	r0, #15
	uint16_t pow = 16;
 80018ce:	bf8c      	ite	hi
 80018d0:	f44f 7380 	movhi.w	r3, #256	; 0x100
 80018d4:	2310      	movls	r3, #16
        pow *= 16;
    return y * pow + x;
 80018d6:	fb01 0003 	mla	r0, r1, r3, r0
}
 80018da:	b280      	uxth	r0, r0
 80018dc:	4770      	bx	lr
 80018de:	bf00      	nop

080018e0 <setbit>:

void setbit(uint8_t *n, uint8_t bit){
	(*n) |= (0x1 << bit);
 80018e0:	2301      	movs	r3, #1
 80018e2:	fa03 f101 	lsl.w	r1, r3, r1
 80018e6:	7803      	ldrb	r3, [r0, #0]
 80018e8:	4319      	orrs	r1, r3
 80018ea:	7001      	strb	r1, [r0, #0]
}
 80018ec:	4770      	bx	lr
 80018ee:	bf00      	nop

080018f0 <resetbit>:

void resetbit(uint8_t *n, uint8_t bit){
	(*n) &= ~(0x1 << bit);
 80018f0:	2301      	movs	r3, #1
 80018f2:	fa03 f101 	lsl.w	r1, r3, r1
 80018f6:	7803      	ldrb	r3, [r0, #0]
 80018f8:	ea23 0101 	bic.w	r1, r3, r1
 80018fc:	7001      	strb	r1, [r0, #0]
}
 80018fe:	4770      	bx	lr

08001900 <checkbit>:

uint8_t checkbit(uint8_t n, uint8_t bit){
	return ((n >> bit) & 0x1);
 8001900:	4108      	asrs	r0, r1
}
 8001902:	f000 0001 	and.w	r0, r0, #1
 8001906:	4770      	bx	lr

08001908 <v8bitRegisterINC>:

void v8bitRegisterINC(uint8_t *reg, uint8_t *flagReg){
	((*reg & 0x0F) == 0x0F) ? setbit(flagReg, H_FLAG): resetbit(flagReg, H_FLAG);
 8001908:	7803      	ldrb	r3, [r0, #0]
 800190a:	f003 030f 	and.w	r3, r3, #15
 800190e:	2b0f      	cmp	r3, #15
	(*n) |= (0x1 << bit);
 8001910:	780b      	ldrb	r3, [r1, #0]
 8001912:	bf0c      	ite	eq
 8001914:	f043 0320 	orreq.w	r3, r3, #32
	(*n) &= ~(0x1 << bit);
 8001918:	f003 03df 	andne.w	r3, r3, #223	; 0xdf
 800191c:	700b      	strb	r3, [r1, #0]
	*reg = *reg + 1;
 800191e:	7803      	ldrb	r3, [r0, #0]
 8001920:	3301      	adds	r3, #1
 8001922:	7003      	strb	r3, [r0, #0]
	(*n) &= ~(0x1 << bit);
 8001924:	f991 2000 	ldrsb.w	r2, [r1]
 8001928:	f022 0340 	bic.w	r3, r2, #64	; 0x40
 800192c:	700b      	strb	r3, [r1, #0]
	resetbit(flagReg, N_FLAG);
	(*reg != 0) ? resetbit(flagReg, Z_FLAG): setbit(flagReg, Z_FLAG);
 800192e:	7800      	ldrb	r0, [r0, #0]
 8001930:	b118      	cbz	r0, 800193a <v8bitRegisterINC+0x32>
	(*n) &= ~(0x1 << bit);
 8001932:	f002 033f 	and.w	r3, r2, #63	; 0x3f
 8001936:	700b      	strb	r3, [r1, #0]
}
 8001938:	4770      	bx	lr
	(*n) |= (0x1 << bit);
 800193a:	f063 037f 	orn	r3, r3, #127	; 0x7f
 800193e:	b2db      	uxtb	r3, r3
 8001940:	700b      	strb	r3, [r1, #0]
}
 8001942:	4770      	bx	lr

08001944 <v8bitRegisterDEC>:

void v8bitRegisterDEC(uint8_t *reg, uint8_t *flagReg){
	((*reg & 0x0F) != 0) ? resetbit(flagReg, H_FLAG) : setbit(flagReg, H_FLAG);
 8001944:	7803      	ldrb	r3, [r0, #0]
 8001946:	f013 0f0f 	tst.w	r3, #15
	(*n) &= ~(0x1 << bit);
 800194a:	780b      	ldrb	r3, [r1, #0]
 800194c:	bf14      	ite	ne
 800194e:	f003 03df 	andne.w	r3, r3, #223	; 0xdf
	(*n) |= (0x1 << bit);
 8001952:	f043 0320 	orreq.w	r3, r3, #32
 8001956:	700b      	strb	r3, [r1, #0]
	*reg = *reg - 1;
 8001958:	7803      	ldrb	r3, [r0, #0]
 800195a:	3b01      	subs	r3, #1
 800195c:	7003      	strb	r3, [r0, #0]
	(*n) |= (0x1 << bit);
 800195e:	f991 3000 	ldrsb.w	r3, [r1]
 8001962:	f043 0240 	orr.w	r2, r3, #64	; 0x40
 8001966:	700a      	strb	r2, [r1, #0]
	setbit(flagReg, N_FLAG);
	(*reg != 0) ? resetbit(flagReg, Z_FLAG): setbit(flagReg, Z_FLAG);
 8001968:	7802      	ldrb	r2, [r0, #0]
 800196a:	b12a      	cbz	r2, 8001978 <v8bitRegisterDEC+0x34>
	(*n) &= ~(0x1 << bit);
 800196c:	f003 037f 	and.w	r3, r3, #127	; 0x7f
 8001970:	f043 0340 	orr.w	r3, r3, #64	; 0x40
 8001974:	700b      	strb	r3, [r1, #0]
}
 8001976:	4770      	bx	lr
	(*n) |= (0x1 << bit);
 8001978:	f063 033f 	orn	r3, r3, #63	; 0x3f
 800197c:	b2db      	uxtb	r3, r3
 800197e:	700b      	strb	r3, [r1, #0]
}
 8001980:	4770      	bx	lr
 8001982:	bf00      	nop

08001984 <vGBFunctionRLCA>:
	return ((n >> bit) & 0x1);
 8001984:	7802      	ldrb	r2, [r0, #0]

void vGBFunctionRLCA(uint8_t *reg, uint8_t *flagReg){
	uint8_t tempCarry = checkbit(*reg, 7);
	*flagReg = (tempCarry != 0) ? 0x10 : 0x00;
 8001986:	09d3      	lsrs	r3, r2, #7
 8001988:	bf0c      	ite	eq
 800198a:	2300      	moveq	r3, #0
 800198c:	2310      	movne	r3, #16
 800198e:	700b      	strb	r3, [r1, #0]
	*reg <<= 1;
 8001990:	7803      	ldrb	r3, [r0, #0]
 8001992:	005b      	lsls	r3, r3, #1
	*reg += tempCarry;
 8001994:	eb03 13d2 	add.w	r3, r3, r2, lsr #7
 8001998:	7003      	strb	r3, [r0, #0]
}
 800199a:	4770      	bx	lr

0800199c <vGBFunctionRRCA>:
	return ((n >> bit) & 0x1);
 800199c:	7803      	ldrb	r3, [r0, #0]

void vGBFunctionRRCA(uint8_t *reg, uint8_t *flagReg){
	uint8_t tempCarry = checkbit(*reg, 0);
	*flagReg = (tempCarry != 0) ? 0x10 : 0x00;
 800199e:	f013 0301 	ands.w	r3, r3, #1
 80019a2:	d007      	beq.n	80019b4 <vGBFunctionRRCA+0x18>
 80019a4:	2310      	movs	r3, #16
 80019a6:	700b      	strb	r3, [r1, #0]
	*reg >>= 1;
 80019a8:	7803      	ldrb	r3, [r0, #0]
 80019aa:	085b      	lsrs	r3, r3, #1
	(*n) |= (0x1 << bit);
 80019ac:	f063 037f 	orn	r3, r3, #127	; 0x7f
 80019b0:	7003      	strb	r3, [r0, #0]
}
 80019b2:	4770      	bx	lr
	*flagReg = (tempCarry != 0) ? 0x10 : 0x00;
 80019b4:	700b      	strb	r3, [r1, #0]
	*reg >>= 1;
 80019b6:	7803      	ldrb	r3, [r0, #0]
 80019b8:	085b      	lsrs	r3, r3, #1
 80019ba:	7003      	strb	r3, [r0, #0]
	if (tempCarry != 0) setbit(reg, 7);
}
 80019bc:	4770      	bx	lr
 80019be:	bf00      	nop

080019c0 <vGBFunction16bitADD>:

void vGBFunction16bitADD(uint16_t *regHL, uint16_t reg16, uint8_t *flagReg){
	uint32_t tempRes = *regHL + reg16;
 80019c0:	8803      	ldrh	r3, [r0, #0]
 80019c2:	4419      	add	r1, r3
	(tempRes & 0xFFFF0000) ? setbit(flagReg, C_FLAG): resetbit(flagReg, C_FLAG);
 80019c4:	03cb      	lsls	r3, r1, #15
void vGBFunction16bitADD(uint16_t *regHL, uint16_t reg16, uint8_t *flagReg){
 80019c6:	b430      	push	{r4, r5}
	(tempRes & 0xFFFF0000) ? setbit(flagReg, C_FLAG): resetbit(flagReg, C_FLAG);
 80019c8:	d517      	bpl.n	80019fa <vGBFunction16bitADD+0x3a>
	(*n) |= (0x1 << bit);
 80019ca:	f992 3000 	ldrsb.w	r3, [r2]
 80019ce:	f043 0310 	orr.w	r3, r3, #16
 80019d2:	b2dc      	uxtb	r4, r3
 80019d4:	7014      	strb	r4, [r2, #0]
	(((tempRes & 0x0FFF) < (*regHL & 0x0FFF))) ? setbit(flagReg, H_FLAG): resetbit(flagReg, H_FLAG);
 80019d6:	f3c1 050b 	ubfx	r5, r1, #0, #12
 80019da:	8804      	ldrh	r4, [r0, #0]
 80019dc:	f3c4 040b 	ubfx	r4, r4, #0, #12
 80019e0:	42a5      	cmp	r5, r4
 80019e2:	d211      	bcs.n	8001a08 <vGBFunction16bitADD+0x48>
	(*n) |= (0x1 << bit);
 80019e4:	f043 0320 	orr.w	r3, r3, #32
 80019e8:	b2db      	uxtb	r3, r3
 80019ea:	7013      	strb	r3, [r2, #0]
	*regHL = (uint16_t)(tempRes & 0xffff);
 80019ec:	8001      	strh	r1, [r0, #0]
	(*n) &= ~(0x1 << bit);
 80019ee:	7813      	ldrb	r3, [r2, #0]
 80019f0:	f023 0340 	bic.w	r3, r3, #64	; 0x40
	resetbit(flagReg, N_FLAG);
}
 80019f4:	bc30      	pop	{r4, r5}
	(*n) &= ~(0x1 << bit);
 80019f6:	7013      	strb	r3, [r2, #0]
}
 80019f8:	4770      	bx	lr
	(*n) &= ~(0x1 << bit);
 80019fa:	f992 4000 	ldrsb.w	r4, [r2]
 80019fe:	f024 0310 	bic.w	r3, r4, #16
 8001a02:	f004 04ef 	and.w	r4, r4, #239	; 0xef
}
 8001a06:	e7e5      	b.n	80019d4 <vGBFunction16bitADD+0x14>
	(*n) &= ~(0x1 << bit);
 8001a08:	f003 03df 	and.w	r3, r3, #223	; 0xdf
}
 8001a0c:	e7ed      	b.n	80019ea <vGBFunction16bitADD+0x2a>
 8001a0e:	bf00      	nop

08001a10 <vGBFunctionRLA>:

void vGBFunctionRLA(uint8_t *regA, uint8_t *flagReg){
	uint8_t prevCarry =  checkbit(*flagReg, C_FLAG);
	*flagReg = ((*regA & 0x80) != 0) ? 0x10 : 0x00;
 8001a10:	f990 2000 	ldrsb.w	r2, [r0]
	return ((n >> bit) & 0x1);
 8001a14:	780b      	ldrb	r3, [r1, #0]
	*flagReg = ((*regA & 0x80) != 0) ? 0x10 : 0x00;
 8001a16:	10d2      	asrs	r2, r2, #3
	return ((n >> bit) & 0x1);
 8001a18:	f3c3 1300 	ubfx	r3, r3, #4, #1
	*flagReg = ((*regA & 0x80) != 0) ? 0x10 : 0x00;
 8001a1c:	f002 0210 	and.w	r2, r2, #16
 8001a20:	700a      	strb	r2, [r1, #0]
	*regA <<= 1;
 8001a22:	7802      	ldrb	r2, [r0, #0]
	*regA += prevCarry;
 8001a24:	eb03 0342 	add.w	r3, r3, r2, lsl #1
 8001a28:	7003      	strb	r3, [r0, #0]
}
 8001a2a:	4770      	bx	lr

08001a2c <vGBFunctionRRA>:

void vGBFunctionRRA(uint8_t *regA, uint8_t *flagReg){
	uint8_t prevCarry =  checkbit(*flagReg, C_FLAG);
	*flagReg = ((*regA & 0x01) != 0) ? 0x10 : 0x00;
 8001a2c:	7802      	ldrb	r2, [r0, #0]
	return ((n >> bit) & 0x1);
 8001a2e:	780b      	ldrb	r3, [r1, #0]
	*flagReg = ((*regA & 0x01) != 0) ? 0x10 : 0x00;
 8001a30:	0112      	lsls	r2, r2, #4
	return ((n >> bit) & 0x1);
 8001a32:	091b      	lsrs	r3, r3, #4
	*flagReg = ((*regA & 0x01) != 0) ? 0x10 : 0x00;
 8001a34:	f002 0210 	and.w	r2, r2, #16
	*regA >>= 1;
	*regA += (prevCarry << 7);
 8001a38:	01db      	lsls	r3, r3, #7
	*flagReg = ((*regA & 0x01) != 0) ? 0x10 : 0x00;
 8001a3a:	700a      	strb	r2, [r1, #0]
	*regA >>= 1;
 8001a3c:	7802      	ldrb	r2, [r0, #0]
	*regA += (prevCarry << 7);
 8001a3e:	eb03 0352 	add.w	r3, r3, r2, lsr #1
 8001a42:	7003      	strb	r3, [r0, #0]
}
 8001a44:	4770      	bx	lr
 8001a46:	bf00      	nop

08001a48 <vGBFunctionJR_NZ>:
	return ((n >> bit) & 0x1);
 8001a48:	7809      	ldrb	r1, [r1, #0]

uint8_t vGBFunctionJR_NZ(uint16_t *regPC, uint8_t *flagReg, uint8_t r8value){
 8001a4a:	4603      	mov	r3, r0
	if(checkbit(*flagReg, Z_FLAG) != 0){
 8001a4c:	09c9      	lsrs	r1, r1, #7
 8001a4e:	d105      	bne.n	8001a5c <vGBFunctionJR_NZ+0x14>
		return 8;
	}else{
		*regPC += (int8_t) r8value;
 8001a50:	8801      	ldrh	r1, [r0, #0]
		return 12;
 8001a52:	200c      	movs	r0, #12
		*regPC += (int8_t) r8value;
 8001a54:	fa41 f282 	sxtab	r2, r1, r2
 8001a58:	801a      	strh	r2, [r3, #0]
		return 12;
 8001a5a:	4770      	bx	lr
		return 8;
 8001a5c:	2008      	movs	r0, #8
	}
}
 8001a5e:	4770      	bx	lr

08001a60 <vGBFunctionDAA>:
	return ((n >> bit) & 0x1);
 8001a60:	780a      	ldrb	r2, [r1, #0]

void vGBFunctionDAA(uint8_t *regA, uint8_t *flagReg){
 8001a62:	b410      	push	{r4}
	uint16_t tempShort = *regA;
	if(checkbit(*flagReg, N_FLAG) != 0){
 8001a64:	f012 0f40 	tst.w	r2, #64	; 0x40
	uint16_t tempShort = *regA;
 8001a68:	7804      	ldrb	r4, [r0, #0]
 8001a6a:	b2a3      	uxth	r3, r4
	if(checkbit(*flagReg, N_FLAG) != 0){
 8001a6c:	d019      	beq.n	8001aa2 <vGBFunctionDAA+0x42>
		if(checkbit(*flagReg, H_FLAG) != 0) tempShort = ( tempShort - 0x06) & 0xFF;
 8001a6e:	0694      	lsls	r4, r2, #26
 8001a70:	d501      	bpl.n	8001a76 <vGBFunctionDAA+0x16>
 8001a72:	3b06      	subs	r3, #6
 8001a74:	b2db      	uxtb	r3, r3
		if(checkbit(*flagReg, C_FLAG) != 0) tempShort -= -0x60;
	}else{
		if(checkbit(*flagReg, H_FLAG) || (tempShort & 0xF) > 9) tempShort += 0x06;
		if(checkbit(*flagReg, C_FLAG) || (tempShort > 0x9F)) tempShort += 0x60;
 8001a76:	06d2      	lsls	r2, r2, #27
 8001a78:	d501      	bpl.n	8001a7e <vGBFunctionDAA+0x1e>
 8001a7a:	3360      	adds	r3, #96	; 0x60
 8001a7c:	b29b      	uxth	r3, r3
	}
	*regA = tempShort;
 8001a7e:	7003      	strb	r3, [r0, #0]
	(*n) &= ~(0x1 << bit);
 8001a80:	f991 4000 	ldrsb.w	r4, [r1]
 8001a84:	f024 0220 	bic.w	r2, r4, #32
 8001a88:	700a      	strb	r2, [r1, #0]
	resetbit(flagReg, H_FLAG);
	(*regA != 0) ? resetbit(flagReg, Z_FLAG): setbit(flagReg, Z_FLAG);
 8001a8a:	7800      	ldrb	r0, [r0, #0]
 8001a8c:	b198      	cbz	r0, 8001ab6 <vGBFunctionDAA+0x56>
	(*n) &= ~(0x1 << bit);
 8001a8e:	f004 025f 	and.w	r2, r4, #95	; 0x5f
	if(tempShort >= 0x100) setbit(flagReg, C_FLAG);
 8001a92:	2bff      	cmp	r3, #255	; 0xff
}
 8001a94:	f85d 4b04 	ldr.w	r4, [sp], #4
	(*n) |= (0x1 << bit);
 8001a98:	bf88      	it	hi
 8001a9a:	f042 0210 	orrhi.w	r2, r2, #16
 8001a9e:	700a      	strb	r2, [r1, #0]
}
 8001aa0:	4770      	bx	lr
		if(checkbit(*flagReg, H_FLAG) || (tempShort & 0xF) > 9) tempShort += 0x06;
 8001aa2:	f012 0f20 	tst.w	r2, #32
 8001aa6:	d00a      	beq.n	8001abe <vGBFunctionDAA+0x5e>
 8001aa8:	3306      	adds	r3, #6
 8001aaa:	b29b      	uxth	r3, r3
		if(checkbit(*flagReg, C_FLAG) || (tempShort > 0x9F)) tempShort += 0x60;
 8001aac:	2b9f      	cmp	r3, #159	; 0x9f
 8001aae:	d8e4      	bhi.n	8001a7a <vGBFunctionDAA+0x1a>
 8001ab0:	06d2      	lsls	r2, r2, #27
 8001ab2:	d5e4      	bpl.n	8001a7e <vGBFunctionDAA+0x1e>
 8001ab4:	e7e1      	b.n	8001a7a <vGBFunctionDAA+0x1a>
	(*n) |= (0x1 << bit);
 8001ab6:	f062 027f 	orn	r2, r2, #127	; 0x7f
 8001aba:	b2d2      	uxtb	r2, r2
}
 8001abc:	e7e9      	b.n	8001a92 <vGBFunctionDAA+0x32>
		if(checkbit(*flagReg, H_FLAG) || (tempShort & 0xF) > 9) tempShort += 0x06;
 8001abe:	f004 040f 	and.w	r4, r4, #15
 8001ac2:	2c09      	cmp	r4, #9
 8001ac4:	d9f2      	bls.n	8001aac <vGBFunctionDAA+0x4c>
 8001ac6:	e7ef      	b.n	8001aa8 <vGBFunctionDAA+0x48>

08001ac8 <vGBFunctionJR_Z>:
	return ((n >> bit) & 0x1);
 8001ac8:	7809      	ldrb	r1, [r1, #0]

uint8_t vGBFunctionJR_Z(uint16_t *regPC, uint8_t *flagReg, uint8_t r8value){
 8001aca:	4603      	mov	r3, r0
	if(checkbit(*flagReg, Z_FLAG) != 0){
 8001acc:	09c9      	lsrs	r1, r1, #7
 8001ace:	d005      	beq.n	8001adc <vGBFunctionJR_Z+0x14>
		*regPC += (int8_t) r8value;
 8001ad0:	8801      	ldrh	r1, [r0, #0]
		return 12;
 8001ad2:	200c      	movs	r0, #12
		*regPC += (int8_t) r8value;
 8001ad4:	fa41 f282 	sxtab	r2, r1, r2
 8001ad8:	801a      	strh	r2, [r3, #0]
		return 12;
 8001ada:	4770      	bx	lr
	}else{
		return 8;
 8001adc:	2008      	movs	r0, #8
	}
}
 8001ade:	4770      	bx	lr

08001ae0 <vGBFunctionJR_NC>:
	return ((n >> bit) & 0x1);
 8001ae0:	7809      	ldrb	r1, [r1, #0]

uint8_t vGBFunctionJR_NC(uint16_t *regPC, uint8_t *flagReg, uint8_t r8value){
 8001ae2:	4603      	mov	r3, r0
	if(checkbit(*flagReg, C_FLAG) != 0){
 8001ae4:	06c9      	lsls	r1, r1, #27
 8001ae6:	d405      	bmi.n	8001af4 <vGBFunctionJR_NC+0x14>
		return 8;
	}else{
		*regPC += (int8_t) r8value;
 8001ae8:	8801      	ldrh	r1, [r0, #0]
		return 12;
 8001aea:	200c      	movs	r0, #12
		*regPC += (int8_t) r8value;
 8001aec:	fa41 f282 	sxtab	r2, r1, r2
 8001af0:	801a      	strh	r2, [r3, #0]
		return 12;
 8001af2:	4770      	bx	lr
		return 8;
 8001af4:	2008      	movs	r0, #8
	}
}
 8001af6:	4770      	bx	lr

08001af8 <vMemoryLocationINC>:

void vMemoryLocationINC(uint16_t loc, uint8_t *flagReg){
 8001af8:	b538      	push	{r3, r4, r5, lr}
 8001afa:	460c      	mov	r4, r1
 8001afc:	4605      	mov	r5, r0
	((ucGBMemoryRead(loc) & 0x0F) == 0x0F) ? setbit(flagReg, H_FLAG): resetbit(flagReg, H_FLAG);
 8001afe:	f000 fa65 	bl	8001fcc <ucGBMemoryRead>
 8001b02:	f000 000f 	and.w	r0, r0, #15
	(*n) |= (0x1 << bit);
 8001b06:	7823      	ldrb	r3, [r4, #0]
	((ucGBMemoryRead(loc) & 0x0F) == 0x0F) ? setbit(flagReg, H_FLAG): resetbit(flagReg, H_FLAG);
 8001b08:	280f      	cmp	r0, #15
	vGBMemoryWrite(loc, ucGBMemoryRead(loc) + 1);
 8001b0a:	4628      	mov	r0, r5
	(*n) |= (0x1 << bit);
 8001b0c:	bf0c      	ite	eq
 8001b0e:	f043 0320 	orreq.w	r3, r3, #32
	(*n) &= ~(0x1 << bit);
 8001b12:	f003 03df 	andne.w	r3, r3, #223	; 0xdf
 8001b16:	7023      	strb	r3, [r4, #0]
	vGBMemoryWrite(loc, ucGBMemoryRead(loc) + 1);
 8001b18:	f000 fa58 	bl	8001fcc <ucGBMemoryRead>
 8001b1c:	4601      	mov	r1, r0
 8001b1e:	4628      	mov	r0, r5
 8001b20:	3101      	adds	r1, #1
 8001b22:	b2c9      	uxtb	r1, r1
 8001b24:	f000 fa4c 	bl	8001fc0 <vGBMemoryWrite>
	(*n) &= ~(0x1 << bit);
 8001b28:	7823      	ldrb	r3, [r4, #0]
	resetbit(flagReg, N_FLAG);
	(ucGBMemoryRead(loc) != 0) ? resetbit(flagReg, Z_FLAG): setbit(flagReg, Z_FLAG);
 8001b2a:	4628      	mov	r0, r5
	(*n) &= ~(0x1 << bit);
 8001b2c:	f023 0340 	bic.w	r3, r3, #64	; 0x40
 8001b30:	7023      	strb	r3, [r4, #0]
	(ucGBMemoryRead(loc) != 0) ? resetbit(flagReg, Z_FLAG): setbit(flagReg, Z_FLAG);
 8001b32:	f000 fa4b 	bl	8001fcc <ucGBMemoryRead>
	(*n) &= ~(0x1 << bit);
 8001b36:	7823      	ldrb	r3, [r4, #0]
	(ucGBMemoryRead(loc) != 0) ? resetbit(flagReg, Z_FLAG): setbit(flagReg, Z_FLAG);
 8001b38:	b118      	cbz	r0, 8001b42 <vMemoryLocationINC+0x4a>
	(*n) &= ~(0x1 << bit);
 8001b3a:	f003 037f 	and.w	r3, r3, #127	; 0x7f
 8001b3e:	7023      	strb	r3, [r4, #0]
}
 8001b40:	bd38      	pop	{r3, r4, r5, pc}
	(*n) |= (0x1 << bit);
 8001b42:	f043 0380 	orr.w	r3, r3, #128	; 0x80
 8001b46:	7023      	strb	r3, [r4, #0]
}
 8001b48:	bd38      	pop	{r3, r4, r5, pc}
 8001b4a:	bf00      	nop

08001b4c <vMemoryLocationDEC>:

void vMemoryLocationDEC(uint16_t loc, uint8_t *flagReg){
 8001b4c:	b538      	push	{r3, r4, r5, lr}
 8001b4e:	460c      	mov	r4, r1
 8001b50:	4605      	mov	r5, r0
	((ucGBMemoryRead(loc) & 0x0F) != 0) ? resetbit(flagReg, H_FLAG) : setbit(flagReg, H_FLAG);
 8001b52:	f000 fa3b 	bl	8001fcc <ucGBMemoryRead>
 8001b56:	0702      	lsls	r2, r0, #28
	(*n) &= ~(0x1 << bit);
 8001b58:	7823      	ldrb	r3, [r4, #0]
	vGBMemoryWrite(loc, ucGBMemoryRead(loc) - 1);
 8001b5a:	4628      	mov	r0, r5
	(*n) &= ~(0x1 << bit);
 8001b5c:	bf14      	ite	ne
 8001b5e:	f003 03df 	andne.w	r3, r3, #223	; 0xdf
	(*n) |= (0x1 << bit);
 8001b62:	f043 0320 	orreq.w	r3, r3, #32
 8001b66:	7023      	strb	r3, [r4, #0]
	vGBMemoryWrite(loc, ucGBMemoryRead(loc) - 1);
 8001b68:	f000 fa30 	bl	8001fcc <ucGBMemoryRead>
 8001b6c:	4601      	mov	r1, r0
 8001b6e:	4628      	mov	r0, r5
 8001b70:	3901      	subs	r1, #1
 8001b72:	b2c9      	uxtb	r1, r1
 8001b74:	f000 fa24 	bl	8001fc0 <vGBMemoryWrite>
	(*n) |= (0x1 << bit);
 8001b78:	7823      	ldrb	r3, [r4, #0]
	setbit(flagReg, N_FLAG);
	(ucGBMemoryRead(loc) != 0) ? resetbit(flagReg, Z_FLAG): setbit(flagReg, Z_FLAG);
 8001b7a:	4628      	mov	r0, r5
	(*n) |= (0x1 << bit);
 8001b7c:	f043 0340 	orr.w	r3, r3, #64	; 0x40
 8001b80:	7023      	strb	r3, [r4, #0]
	(ucGBMemoryRead(loc) != 0) ? resetbit(flagReg, Z_FLAG): setbit(flagReg, Z_FLAG);
 8001b82:	f000 fa23 	bl	8001fcc <ucGBMemoryRead>
	(*n) &= ~(0x1 << bit);
 8001b86:	7823      	ldrb	r3, [r4, #0]
	(ucGBMemoryRead(loc) != 0) ? resetbit(flagReg, Z_FLAG): setbit(flagReg, Z_FLAG);
 8001b88:	b118      	cbz	r0, 8001b92 <vMemoryLocationDEC+0x46>
	(*n) &= ~(0x1 << bit);
 8001b8a:	f003 037f 	and.w	r3, r3, #127	; 0x7f
 8001b8e:	7023      	strb	r3, [r4, #0]
}
 8001b90:	bd38      	pop	{r3, r4, r5, pc}
	(*n) |= (0x1 << bit);
 8001b92:	f043 0380 	orr.w	r3, r3, #128	; 0x80
 8001b96:	7023      	strb	r3, [r4, #0]
}
 8001b98:	bd38      	pop	{r3, r4, r5, pc}
 8001b9a:	bf00      	nop

08001b9c <vGBFunctionJR_C>:
	return ((n >> bit) & 0x1);
 8001b9c:	7809      	ldrb	r1, [r1, #0]

uint8_t vGBFunctionJR_C(uint16_t *regPC, uint8_t *flagReg, uint8_t r8value){
 8001b9e:	4603      	mov	r3, r0
	if(checkbit(*flagReg, C_FLAG) != 0){
 8001ba0:	06c9      	lsls	r1, r1, #27
 8001ba2:	d505      	bpl.n	8001bb0 <vGBFunctionJR_C+0x14>
		*regPC += (int8_t) r8value;
 8001ba4:	8801      	ldrh	r1, [r0, #0]
		return 12;
 8001ba6:	200c      	movs	r0, #12
		*regPC += (int8_t) r8value;
 8001ba8:	fa41 f282 	sxtab	r2, r1, r2
 8001bac:	801a      	strh	r2, [r3, #0]
		return 12;
 8001bae:	4770      	bx	lr
	}else{
		return 8;
 8001bb0:	2008      	movs	r0, #8
	}
}
 8001bb2:	4770      	bx	lr

08001bb4 <vGBFunctionADD>:

void vGBFunctionADD(uint8_t *regA, uint8_t *flagReg, uint8_t regValue){
	uint32_t tempRes = *regA + regValue;
 8001bb4:	7803      	ldrb	r3, [r0, #0]
void vGBFunctionADD(uint8_t *regA, uint8_t *flagReg, uint8_t regValue){
 8001bb6:	b430      	push	{r4, r5}
	if((*regA & 0xF) + (regValue & 0xF) > 0xF)	setbit(flagReg, H_FLAG);
 8001bb8:	f002 050f 	and.w	r5, r2, #15
 8001bbc:	f003 040f 	and.w	r4, r3, #15
	uint32_t tempRes = *regA + regValue;
 8001bc0:	441a      	add	r2, r3
	if((*regA & 0xF) + (regValue & 0xF) > 0xF)	setbit(flagReg, H_FLAG);
 8001bc2:	1963      	adds	r3, r4, r5
 8001bc4:	2b0f      	cmp	r3, #15
	(*n) |= (0x1 << bit);
 8001bc6:	f991 3000 	ldrsb.w	r3, [r1]
 8001bca:	bfc8      	it	gt
 8001bcc:	f043 0320 	orrgt.w	r3, r3, #32
	resetbit(flagReg, N_FLAG);
	if(tempRes > 0xFF)	setbit(flagReg, C_FLAG);
 8001bd0:	2aff      	cmp	r2, #255	; 0xff
	*regA = tempRes;
 8001bd2:	b2d2      	uxtb	r2, r2
	(*n) &= ~(0x1 << bit);
 8001bd4:	f023 0340 	bic.w	r3, r3, #64	; 0x40
	(*n) |= (0x1 << bit);
 8001bd8:	bfc8      	it	gt
 8001bda:	f043 0310 	orrgt.w	r3, r3, #16
 8001bde:	700b      	strb	r3, [r1, #0]
	*regA = tempRes;
 8001be0:	7002      	strb	r2, [r0, #0]
	if(*regA == 0) setbit(flagReg, Z_FLAG);
 8001be2:	b91a      	cbnz	r2, 8001bec <vGBFunctionADD+0x38>
	(*n) |= (0x1 << bit);
 8001be4:	780b      	ldrb	r3, [r1, #0]
 8001be6:	f063 037f 	orn	r3, r3, #127	; 0x7f
 8001bea:	700b      	strb	r3, [r1, #0]
}
 8001bec:	bc30      	pop	{r4, r5}
 8001bee:	4770      	bx	lr

08001bf0 <vGBFunctionADC>:

void vGBFunctionADC(uint8_t *regA, uint8_t *flagReg, uint8_t regValue){
 8001bf0:	b470      	push	{r4, r5, r6}
	uint32_t tempRes = *regA + regValue + checkbit(*flagReg, C_FLAG);
 8001bf2:	7804      	ldrb	r4, [r0, #0]
	if((*regA & 0xF) + (regValue & 0xF) > 0xF)	setbit(flagReg, H_FLAG);
 8001bf4:	f002 060f 	and.w	r6, r2, #15
	uint32_t tempRes = *regA + regValue + checkbit(*flagReg, C_FLAG);
 8001bf8:	780b      	ldrb	r3, [r1, #0]
	if((*regA & 0xF) + (regValue & 0xF) > 0xF)	setbit(flagReg, H_FLAG);
 8001bfa:	f004 050f 	and.w	r5, r4, #15
	uint32_t tempRes = *regA + regValue + checkbit(*flagReg, C_FLAG);
 8001bfe:	4422      	add	r2, r4
 8001c00:	f3c3 1400 	ubfx	r4, r3, #4, #1
	if((*regA & 0xF) + (regValue & 0xF) > 0xF)	setbit(flagReg, H_FLAG);
 8001c04:	4435      	add	r5, r6
	uint32_t tempRes = *regA + regValue + checkbit(*flagReg, C_FLAG);
 8001c06:	4422      	add	r2, r4
	if((*regA & 0xF) + (regValue & 0xF) > 0xF)	setbit(flagReg, H_FLAG);
 8001c08:	2d0f      	cmp	r5, #15
	(*n) |= (0x1 << bit);
 8001c0a:	bfc8      	it	gt
 8001c0c:	f043 0320 	orrgt.w	r3, r3, #32
	resetbit(flagReg, N_FLAG);
	if(tempRes > 0xFF)	setbit(flagReg, C_FLAG);
 8001c10:	2aff      	cmp	r2, #255	; 0xff
	*regA = tempRes;
 8001c12:	b2d2      	uxtb	r2, r2
	(*n) |= (0x1 << bit);
 8001c14:	b25b      	sxtb	r3, r3
	(*n) &= ~(0x1 << bit);
 8001c16:	f023 0340 	bic.w	r3, r3, #64	; 0x40
	(*n) |= (0x1 << bit);
 8001c1a:	bfc8      	it	gt
 8001c1c:	f043 0310 	orrgt.w	r3, r3, #16
 8001c20:	700b      	strb	r3, [r1, #0]
	*regA = tempRes;
 8001c22:	7002      	strb	r2, [r0, #0]
	if(*regA == 0) setbit(flagReg, Z_FLAG);
 8001c24:	b91a      	cbnz	r2, 8001c2e <vGBFunctionADC+0x3e>
	(*n) |= (0x1 << bit);
 8001c26:	780b      	ldrb	r3, [r1, #0]
 8001c28:	f063 037f 	orn	r3, r3, #127	; 0x7f
 8001c2c:	700b      	strb	r3, [r1, #0]
}
 8001c2e:	bc70      	pop	{r4, r5, r6}
 8001c30:	4770      	bx	lr
 8001c32:	bf00      	nop

08001c34 <vGBFunctionSUB>:

void vGBFunctionSUB(uint8_t *regA, uint8_t *flagReg, uint8_t regValue){
	(regValue > *regA) ? setbit(flagReg, C_FLAG): resetbit(flagReg, C_FLAG);
 8001c34:	7803      	ldrb	r3, [r0, #0]
 8001c36:	4293      	cmp	r3, r2
void vGBFunctionSUB(uint8_t *regA, uint8_t *flagReg, uint8_t regValue){
 8001c38:	b430      	push	{r4, r5}
	(regValue > *regA) ? setbit(flagReg, C_FLAG): resetbit(flagReg, C_FLAG);
 8001c3a:	d21d      	bcs.n	8001c78 <vGBFunctionSUB+0x44>
	(*n) |= (0x1 << bit);
 8001c3c:	f991 3000 	ldrsb.w	r3, [r1]
 8001c40:	f043 0310 	orr.w	r3, r3, #16
 8001c44:	b2dc      	uxtb	r4, r3
 8001c46:	700c      	strb	r4, [r1, #0]
	((regValue & 0x0F) > (*regA & 0x0F)) ? setbit(flagReg, H_FLAG): resetbit(flagReg, H_FLAG);
 8001c48:	f002 050f 	and.w	r5, r2, #15
 8001c4c:	7804      	ldrb	r4, [r0, #0]
 8001c4e:	f004 040f 	and.w	r4, r4, #15
 8001c52:	42a5      	cmp	r5, r4
 8001c54:	d920      	bls.n	8001c98 <vGBFunctionSUB+0x64>
	(*n) |= (0x1 << bit);
 8001c56:	f043 0320 	orr.w	r3, r3, #32
 8001c5a:	b2db      	uxtb	r3, r3
 8001c5c:	700b      	strb	r3, [r1, #0]
	*regA -= regValue;
 8001c5e:	7803      	ldrb	r3, [r0, #0]
 8001c60:	1a9a      	subs	r2, r3, r2
 8001c62:	b2d2      	uxtb	r2, r2
 8001c64:	7002      	strb	r2, [r0, #0]
	(*regA != 0) ? resetbit(flagReg, Z_FLAG): setbit(flagReg, Z_FLAG);
 8001c66:	b172      	cbz	r2, 8001c86 <vGBFunctionSUB+0x52>
	(*n) &= ~(0x1 << bit);
 8001c68:	780b      	ldrb	r3, [r1, #0]
 8001c6a:	f003 037f 	and.w	r3, r3, #127	; 0x7f
	(*n) |= (0x1 << bit);
 8001c6e:	f043 0340 	orr.w	r3, r3, #64	; 0x40
	setbit(flagReg, N_FLAG);
}
 8001c72:	bc30      	pop	{r4, r5}
	(*n) |= (0x1 << bit);
 8001c74:	700b      	strb	r3, [r1, #0]
}
 8001c76:	4770      	bx	lr
	(*n) &= ~(0x1 << bit);
 8001c78:	f991 4000 	ldrsb.w	r4, [r1]
 8001c7c:	f024 0310 	bic.w	r3, r4, #16
 8001c80:	f004 04ef 	and.w	r4, r4, #239	; 0xef
}
 8001c84:	e7df      	b.n	8001c46 <vGBFunctionSUB+0x12>
	(*n) |= (0x1 << bit);
 8001c86:	f991 3000 	ldrsb.w	r3, [r1]
 8001c8a:	f063 037f 	orn	r3, r3, #127	; 0x7f
 8001c8e:	f043 0340 	orr.w	r3, r3, #64	; 0x40
}
 8001c92:	bc30      	pop	{r4, r5}
	(*n) |= (0x1 << bit);
 8001c94:	700b      	strb	r3, [r1, #0]
}
 8001c96:	4770      	bx	lr
	(*n) &= ~(0x1 << bit);
 8001c98:	f003 03df 	and.w	r3, r3, #223	; 0xdf
}
 8001c9c:	e7de      	b.n	8001c5c <vGBFunctionSUB+0x28>
 8001c9e:	bf00      	nop

08001ca0 <vGBFunctionSBC>:

void vGBFunctionSBC(uint8_t *regA, uint8_t *flagReg, uint8_t regValue){
	regValue +=  checkbit(*flagReg, C_FLAG);
 8001ca0:	780b      	ldrb	r3, [r1, #0]
void vGBFunctionSBC(uint8_t *regA, uint8_t *flagReg, uint8_t regValue){
 8001ca2:	b430      	push	{r4, r5}
	return ((n >> bit) & 0x1);
 8001ca4:	f3c3 1500 	ubfx	r5, r3, #4, #1
	(regValue > *regA) ? setbit(flagReg, C_FLAG): resetbit(flagReg, C_FLAG);
 8001ca8:	7804      	ldrb	r4, [r0, #0]
	regValue +=  checkbit(*flagReg, C_FLAG);
 8001caa:	442a      	add	r2, r5
 8001cac:	b2d2      	uxtb	r2, r2
	(regValue > *regA) ? setbit(flagReg, C_FLAG): resetbit(flagReg, C_FLAG);
 8001cae:	4294      	cmp	r4, r2
	((regValue & 0x0F) > (*regA & 0x0F)) ? setbit(flagReg, H_FLAG): resetbit(flagReg, H_FLAG);
 8001cb0:	f002 050f 	and.w	r5, r2, #15
	(*n) |= (0x1 << bit);
 8001cb4:	bf34      	ite	cc
 8001cb6:	f043 0310 	orrcc.w	r3, r3, #16
	(*n) &= ~(0x1 << bit);
 8001cba:	f023 0310 	biccs.w	r3, r3, #16
 8001cbe:	b25c      	sxtb	r4, r3
 8001cc0:	700b      	strb	r3, [r1, #0]
	((regValue & 0x0F) > (*regA & 0x0F)) ? setbit(flagReg, H_FLAG): resetbit(flagReg, H_FLAG);
 8001cc2:	7803      	ldrb	r3, [r0, #0]
 8001cc4:	f003 030f 	and.w	r3, r3, #15
 8001cc8:	429d      	cmp	r5, r3
 8001cca:	d910      	bls.n	8001cee <vGBFunctionSBC+0x4e>
	(*n) |= (0x1 << bit);
 8001ccc:	f044 0320 	orr.w	r3, r4, #32
 8001cd0:	b2db      	uxtb	r3, r3
 8001cd2:	700b      	strb	r3, [r1, #0]
	*regA -= regValue;
 8001cd4:	7803      	ldrb	r3, [r0, #0]
 8001cd6:	1a9a      	subs	r2, r3, r2
 8001cd8:	b2d2      	uxtb	r2, r2
 8001cda:	7002      	strb	r2, [r0, #0]
	(*regA != 0) ? resetbit(flagReg, Z_FLAG): setbit(flagReg, Z_FLAG);
 8001cdc:	b152      	cbz	r2, 8001cf4 <vGBFunctionSBC+0x54>
	(*n) &= ~(0x1 << bit);
 8001cde:	780b      	ldrb	r3, [r1, #0]
 8001ce0:	f003 037f 	and.w	r3, r3, #127	; 0x7f
	(*n) |= (0x1 << bit);
 8001ce4:	f043 0340 	orr.w	r3, r3, #64	; 0x40
	setbit(flagReg, N_FLAG);
}
 8001ce8:	bc30      	pop	{r4, r5}
	(*n) |= (0x1 << bit);
 8001cea:	700b      	strb	r3, [r1, #0]
}
 8001cec:	4770      	bx	lr
	(*n) &= ~(0x1 << bit);
 8001cee:	f004 03df 	and.w	r3, r4, #223	; 0xdf
}
 8001cf2:	e7ee      	b.n	8001cd2 <vGBFunctionSBC+0x32>
	(*n) |= (0x1 << bit);
 8001cf4:	f991 3000 	ldrsb.w	r3, [r1]
 8001cf8:	f063 037f 	orn	r3, r3, #127	; 0x7f
 8001cfc:	f043 0340 	orr.w	r3, r3, #64	; 0x40
}
 8001d00:	bc30      	pop	{r4, r5}
	(*n) |= (0x1 << bit);
 8001d02:	700b      	strb	r3, [r1, #0]
}
 8001d04:	4770      	bx	lr
 8001d06:	bf00      	nop

08001d08 <vGBFunctionCP>:
	(*n) |= (0x1 << bit);
 8001d08:	f991 3000 	ldrsb.w	r3, [r1]

void vGBFunctionCP(uint8_t regA, uint8_t *flagReg, uint8_t regValue){
	(regValue > regA) ? setbit(flagReg, C_FLAG): resetbit(flagReg, C_FLAG);
 8001d0c:	4282      	cmp	r2, r0
void vGBFunctionCP(uint8_t regA, uint8_t *flagReg, uint8_t regValue){
 8001d0e:	b430      	push	{r4, r5}
	((regValue & 0x0F) > (regA & 0x0F)) ? setbit(flagReg, H_FLAG): resetbit(flagReg, H_FLAG);
 8001d10:	f002 040f 	and.w	r4, r2, #15
 8001d14:	f000 050f 	and.w	r5, r0, #15
	(*n) |= (0x1 << bit);
 8001d18:	bf8c      	ite	hi
 8001d1a:	f043 0310 	orrhi.w	r3, r3, #16
	(*n) &= ~(0x1 << bit);
 8001d1e:	f023 0310 	bicls.w	r3, r3, #16
	((regValue & 0x0F) > (regA & 0x0F)) ? setbit(flagReg, H_FLAG): resetbit(flagReg, H_FLAG);
 8001d22:	42ac      	cmp	r4, r5
	(*n) |= (0x1 << bit);
 8001d24:	bf8c      	ite	hi
 8001d26:	f043 0320 	orrhi.w	r3, r3, #32
	(*n) &= ~(0x1 << bit);
 8001d2a:	f023 0320 	bicls.w	r3, r3, #32
	(regA == regValue) ? resetbit(flagReg, Z_FLAG): setbit(flagReg, Z_FLAG);
 8001d2e:	4282      	cmp	r2, r0
	(*n) &= ~(0x1 << bit);
 8001d30:	bf0c      	ite	eq
 8001d32:	f003 037f 	andeq.w	r3, r3, #127	; 0x7f
	(*n) |= (0x1 << bit);
 8001d36:	f063 037f 	ornne	r3, r3, #127	; 0x7f
 8001d3a:	f043 0340 	orr.w	r3, r3, #64	; 0x40
	setbit(flagReg, N_FLAG);
}
 8001d3e:	bc30      	pop	{r4, r5}
	(*n) |= (0x1 << bit);
 8001d40:	700b      	strb	r3, [r1, #0]
}
 8001d42:	4770      	bx	lr

08001d44 <vGBFunctionRET>:

void vGBFunctionRET(uint16_t *regSP, uint16_t *regPC){
 8001d44:	b570      	push	{r4, r5, r6, lr}
 8001d46:	4604      	mov	r4, r0
	*regPC = concat_16bit_bigEndian(ucGBMemoryRead(*regSP), ucGBMemoryRead(*regSP + 1));
 8001d48:	8800      	ldrh	r0, [r0, #0]
void vGBFunctionRET(uint16_t *regSP, uint16_t *regPC){
 8001d4a:	460e      	mov	r6, r1
	*regPC = concat_16bit_bigEndian(ucGBMemoryRead(*regSP), ucGBMemoryRead(*regSP + 1));
 8001d4c:	f000 f93e 	bl	8001fcc <ucGBMemoryRead>
 8001d50:	8823      	ldrh	r3, [r4, #0]
 8001d52:	4605      	mov	r5, r0
 8001d54:	1c58      	adds	r0, r3, #1
 8001d56:	b280      	uxth	r0, r0
 8001d58:	f000 f938 	bl	8001fcc <ucGBMemoryRead>
    while(x >= pow)
 8001d5c:	b2ab      	uxth	r3, r5
    return y * pow + x;
 8001d5e:	b200      	sxth	r0, r0
    while(x >= pow)
 8001d60:	2b0f      	cmp	r3, #15
	uint16_t pow = 16;
 8001d62:	bf8c      	ite	hi
 8001d64:	f44f 7280 	movhi.w	r2, #256	; 0x100
 8001d68:	2210      	movls	r2, #16
    return y * pow + x;
 8001d6a:	fb00 3302 	mla	r3, r0, r2, r3
	*regPC = concat_16bit_bigEndian(ucGBMemoryRead(*regSP), ucGBMemoryRead(*regSP + 1));
 8001d6e:	8033      	strh	r3, [r6, #0]
	*regSP += 2;
 8001d70:	8823      	ldrh	r3, [r4, #0]
 8001d72:	3302      	adds	r3, #2
 8001d74:	8023      	strh	r3, [r4, #0]
}
 8001d76:	bd70      	pop	{r4, r5, r6, pc}

08001d78 <vGBFunctionPOP>:
 8001d78:	f7ff bfe4 	b.w	8001d44 <vGBFunctionRET>

08001d7c <vGBFunctionJP_NZ_a16>:
	return ((n >> bit) & 0x1);
 8001d7c:	780b      	ldrb	r3, [r1, #0]
	*reg16 = concat_16bit_bigEndian(ucGBMemoryRead(*regSP), ucGBMemoryRead(*regSP + 1));
	*regSP += 2;
}

uint8_t vGBFunctionJP_NZ_a16(uint16_t *regPC, uint8_t *flagReg, uint16_t addr){
	if(checkbit(*flagReg, Z_FLAG) != 0){
 8001d7e:	09db      	lsrs	r3, r3, #7
 8001d80:	d102      	bne.n	8001d88 <vGBFunctionJP_NZ_a16+0xc>
		return 12;
	}else{
		*regPC = addr;
 8001d82:	8002      	strh	r2, [r0, #0]
		return 16;
 8001d84:	2010      	movs	r0, #16
 8001d86:	4770      	bx	lr
		return 12;
 8001d88:	200c      	movs	r0, #12
	}
}
 8001d8a:	4770      	bx	lr

08001d8c <vGBFunctionPUSH>:
		*regPC = concat_16bit_bigEndian(ucGBMemoryRead(*regPC - 2), ucGBMemoryRead(*regPC - 1));
		return 24;
	}
}

void vGBFunctionPUSH(uint16_t *regSP, uint16_t *reg16){
 8001d8c:	b538      	push	{r3, r4, r5, lr}
 8001d8e:	4604      	mov	r4, r0
	vGBMemoryWrite(*regSP - 1, (uint8_t) ((*reg16 & 0xFF00) >> 8));
 8001d90:	8800      	ldrh	r0, [r0, #0]
void vGBFunctionPUSH(uint16_t *regSP, uint16_t *reg16){
 8001d92:	460d      	mov	r5, r1
	vGBMemoryWrite(*regSP - 1, (uint8_t) ((*reg16 & 0xFF00) >> 8));
 8001d94:	8809      	ldrh	r1, [r1, #0]
 8001d96:	3801      	subs	r0, #1
 8001d98:	0a09      	lsrs	r1, r1, #8
 8001d9a:	b280      	uxth	r0, r0
 8001d9c:	f000 f910 	bl	8001fc0 <vGBMemoryWrite>
	vGBMemoryWrite(*regSP - 2, (uint8_t) (*reg16 & 0x00FF));
 8001da0:	8820      	ldrh	r0, [r4, #0]
 8001da2:	7829      	ldrb	r1, [r5, #0]
 8001da4:	3802      	subs	r0, #2
 8001da6:	b280      	uxth	r0, r0
 8001da8:	f000 f90a 	bl	8001fc0 <vGBMemoryWrite>
	*regSP -= 2;
 8001dac:	8823      	ldrh	r3, [r4, #0]
 8001dae:	3b02      	subs	r3, #2
 8001db0:	8023      	strh	r3, [r4, #0]
}
 8001db2:	bd38      	pop	{r3, r4, r5, pc}

08001db4 <vGBFunctionCALL_NZ_a16>:
uint8_t vGBFunctionCALL_NZ_a16(uint16_t *regPC, uint8_t *flagReg, uint16_t *regSP){
 8001db4:	b538      	push	{r3, r4, r5, lr}
	return ((n >> bit) & 0x1);
 8001db6:	780b      	ldrb	r3, [r1, #0]
	if(checkbit(*flagReg, Z_FLAG) != 0){
 8001db8:	09db      	lsrs	r3, r3, #7
 8001dba:	d001      	beq.n	8001dc0 <vGBFunctionCALL_NZ_a16+0xc>
		return 12;
 8001dbc:	200c      	movs	r0, #12
}
 8001dbe:	bd38      	pop	{r3, r4, r5, pc}
		vGBFunctionPUSH(regSP, regPC);
 8001dc0:	4604      	mov	r4, r0
 8001dc2:	4610      	mov	r0, r2
 8001dc4:	4621      	mov	r1, r4
 8001dc6:	f7ff ffe1 	bl	8001d8c <vGBFunctionPUSH>
		*regPC = concat_16bit_bigEndian(ucGBMemoryRead(*regPC - 2), ucGBMemoryRead(*regPC - 1));
 8001dca:	8820      	ldrh	r0, [r4, #0]
 8001dcc:	3802      	subs	r0, #2
 8001dce:	b280      	uxth	r0, r0
 8001dd0:	f000 f8fc 	bl	8001fcc <ucGBMemoryRead>
 8001dd4:	8823      	ldrh	r3, [r4, #0]
 8001dd6:	4605      	mov	r5, r0
 8001dd8:	1e58      	subs	r0, r3, #1
 8001dda:	b280      	uxth	r0, r0
 8001ddc:	f000 f8f6 	bl	8001fcc <ucGBMemoryRead>
 8001de0:	4601      	mov	r1, r0
    while(x >= pow)
 8001de2:	b2ab      	uxth	r3, r5
		return 24;
 8001de4:	2018      	movs	r0, #24
    return y * pow + x;
 8001de6:	b209      	sxth	r1, r1
    while(x >= pow)
 8001de8:	2b0f      	cmp	r3, #15
	uint16_t pow = 16;
 8001dea:	bf8c      	ite	hi
 8001dec:	f44f 7280 	movhi.w	r2, #256	; 0x100
 8001df0:	2210      	movls	r2, #16
    return y * pow + x;
 8001df2:	fb01 3302 	mla	r3, r1, r2, r3
		*regPC = concat_16bit_bigEndian(ucGBMemoryRead(*regPC - 2), ucGBMemoryRead(*regPC - 1));
 8001df6:	8023      	strh	r3, [r4, #0]
}
 8001df8:	bd38      	pop	{r3, r4, r5, pc}
 8001dfa:	bf00      	nop

08001dfc <vGBFunctionJP_Z_a16>:
	return ((n >> bit) & 0x1);
 8001dfc:	780b      	ldrb	r3, [r1, #0]

uint8_t vGBFunctionJP_Z_a16(uint16_t *regPC, uint8_t *flagReg, uint16_t addr){
	if(checkbit(*flagReg, Z_FLAG) != 0){
 8001dfe:	09db      	lsrs	r3, r3, #7
 8001e00:	d002      	beq.n	8001e08 <vGBFunctionJP_Z_a16+0xc>
		*regPC = addr;
 8001e02:	8002      	strh	r2, [r0, #0]
		return 16;
 8001e04:	2010      	movs	r0, #16
 8001e06:	4770      	bx	lr
	}else{
		return 12;
 8001e08:	200c      	movs	r0, #12
	}
}
 8001e0a:	4770      	bx	lr

08001e0c <vGBFunctionCALL_Z_a16>:

uint8_t vGBFunctionCALL_Z_a16(uint16_t *regPC, uint8_t *flagReg, uint16_t *regSP){
 8001e0c:	b538      	push	{r3, r4, r5, lr}
	return ((n >> bit) & 0x1);
 8001e0e:	780b      	ldrb	r3, [r1, #0]
	if(checkbit(*flagReg, Z_FLAG) != 0){
 8001e10:	09db      	lsrs	r3, r3, #7
 8001e12:	d101      	bne.n	8001e18 <vGBFunctionCALL_Z_a16+0xc>
		vGBFunctionPUSH(regSP, regPC);
		*regPC = concat_16bit_bigEndian(ucGBMemoryRead(*regPC - 2), ucGBMemoryRead(*regPC - 1));
		return 24;
	}else{
		return 12;
 8001e14:	200c      	movs	r0, #12
	}
}
 8001e16:	bd38      	pop	{r3, r4, r5, pc}
		vGBFunctionPUSH(regSP, regPC);
 8001e18:	4604      	mov	r4, r0
 8001e1a:	4610      	mov	r0, r2
 8001e1c:	4621      	mov	r1, r4
 8001e1e:	f7ff ffb5 	bl	8001d8c <vGBFunctionPUSH>
		*regPC = concat_16bit_bigEndian(ucGBMemoryRead(*regPC - 2), ucGBMemoryRead(*regPC - 1));
 8001e22:	8820      	ldrh	r0, [r4, #0]
 8001e24:	3802      	subs	r0, #2
 8001e26:	b280      	uxth	r0, r0
 8001e28:	f000 f8d0 	bl	8001fcc <ucGBMemoryRead>
 8001e2c:	8823      	ldrh	r3, [r4, #0]
 8001e2e:	4605      	mov	r5, r0
 8001e30:	1e58      	subs	r0, r3, #1
 8001e32:	b280      	uxth	r0, r0
 8001e34:	f000 f8ca 	bl	8001fcc <ucGBMemoryRead>
 8001e38:	4601      	mov	r1, r0
    while(x >= pow)
 8001e3a:	b2ab      	uxth	r3, r5
		return 24;
 8001e3c:	2018      	movs	r0, #24
    return y * pow + x;
 8001e3e:	b209      	sxth	r1, r1
    while(x >= pow)
 8001e40:	2b0f      	cmp	r3, #15
	uint16_t pow = 16;
 8001e42:	bf8c      	ite	hi
 8001e44:	f44f 7280 	movhi.w	r2, #256	; 0x100
 8001e48:	2210      	movls	r2, #16
    return y * pow + x;
 8001e4a:	fb01 3302 	mla	r3, r1, r2, r3
		*regPC = concat_16bit_bigEndian(ucGBMemoryRead(*regPC - 2), ucGBMemoryRead(*regPC - 1));
 8001e4e:	8023      	strh	r3, [r4, #0]
}
 8001e50:	bd38      	pop	{r3, r4, r5, pc}
 8001e52:	bf00      	nop

08001e54 <vGBFunctionJP_NC_a16>:
	return ((n >> bit) & 0x1);
 8001e54:	780b      	ldrb	r3, [r1, #0]

uint8_t vGBFunctionJP_NC_a16(uint16_t *regPC, uint8_t *flagReg, uint16_t addr){
	if(checkbit(*flagReg, C_FLAG) != 0){
 8001e56:	06db      	lsls	r3, r3, #27
 8001e58:	d402      	bmi.n	8001e60 <vGBFunctionJP_NC_a16+0xc>
		return 12;
	}else{
		*regPC = addr;
 8001e5a:	8002      	strh	r2, [r0, #0]
		return 16;
 8001e5c:	2010      	movs	r0, #16
 8001e5e:	4770      	bx	lr
		return 12;
 8001e60:	200c      	movs	r0, #12
	}
}
 8001e62:	4770      	bx	lr

08001e64 <vGBFunctionCALL_NC_a16>:

uint8_t vGBFunctionCALL_NC_a16(uint16_t *regPC, uint8_t *flagReg, uint16_t *regSP){
 8001e64:	b538      	push	{r3, r4, r5, lr}
	return ((n >> bit) & 0x1);
 8001e66:	780b      	ldrb	r3, [r1, #0]
	if(checkbit(*flagReg, C_FLAG) != 0){
 8001e68:	06db      	lsls	r3, r3, #27
 8001e6a:	d501      	bpl.n	8001e70 <vGBFunctionCALL_NC_a16+0xc>
		return 12;
 8001e6c:	200c      	movs	r0, #12
	}else{
		vGBFunctionPUSH(regSP, regPC);
		*regPC = concat_16bit_bigEndian(ucGBMemoryRead(*regPC - 2), ucGBMemoryRead(*regPC - 1));
		return 24;
	}
}
 8001e6e:	bd38      	pop	{r3, r4, r5, pc}
		vGBFunctionPUSH(regSP, regPC);
 8001e70:	4604      	mov	r4, r0
 8001e72:	4610      	mov	r0, r2
 8001e74:	4621      	mov	r1, r4
 8001e76:	f7ff ff89 	bl	8001d8c <vGBFunctionPUSH>
		*regPC = concat_16bit_bigEndian(ucGBMemoryRead(*regPC - 2), ucGBMemoryRead(*regPC - 1));
 8001e7a:	8820      	ldrh	r0, [r4, #0]
 8001e7c:	3802      	subs	r0, #2
 8001e7e:	b280      	uxth	r0, r0
 8001e80:	f000 f8a4 	bl	8001fcc <ucGBMemoryRead>
 8001e84:	8823      	ldrh	r3, [r4, #0]
 8001e86:	4605      	mov	r5, r0
 8001e88:	1e58      	subs	r0, r3, #1
 8001e8a:	b280      	uxth	r0, r0
 8001e8c:	f000 f89e 	bl	8001fcc <ucGBMemoryRead>
 8001e90:	4601      	mov	r1, r0
    while(x >= pow)
 8001e92:	b2ab      	uxth	r3, r5
		return 24;
 8001e94:	2018      	movs	r0, #24
    return y * pow + x;
 8001e96:	b209      	sxth	r1, r1
    while(x >= pow)
 8001e98:	2b0f      	cmp	r3, #15
	uint16_t pow = 16;
 8001e9a:	bf8c      	ite	hi
 8001e9c:	f44f 7280 	movhi.w	r2, #256	; 0x100
 8001ea0:	2210      	movls	r2, #16
    return y * pow + x;
 8001ea2:	fb01 3302 	mla	r3, r1, r2, r3
		*regPC = concat_16bit_bigEndian(ucGBMemoryRead(*regPC - 2), ucGBMemoryRead(*regPC - 1));
 8001ea6:	8023      	strh	r3, [r4, #0]
}
 8001ea8:	bd38      	pop	{r3, r4, r5, pc}
 8001eaa:	bf00      	nop

08001eac <vGBFunctionJP_C_a16>:
	return ((n >> bit) & 0x1);
 8001eac:	780b      	ldrb	r3, [r1, #0]

uint8_t vGBFunctionJP_C_a16(uint16_t *regPC, uint8_t *flagReg, uint16_t addr){
	if(checkbit(*flagReg, C_FLAG) != 0){
 8001eae:	06db      	lsls	r3, r3, #27
 8001eb0:	d502      	bpl.n	8001eb8 <vGBFunctionJP_C_a16+0xc>
		*regPC = addr;
 8001eb2:	8002      	strh	r2, [r0, #0]
		return 16;
 8001eb4:	2010      	movs	r0, #16
 8001eb6:	4770      	bx	lr
	}else{
		return 12;
 8001eb8:	200c      	movs	r0, #12
	}
}
 8001eba:	4770      	bx	lr

08001ebc <vGBFunctionCALL_C_a16>:

uint8_t vGBFunctionCALL_C_a16(uint16_t *regPC, uint8_t *flagReg, uint16_t *regSP){
 8001ebc:	b538      	push	{r3, r4, r5, lr}
	return ((n >> bit) & 0x1);
 8001ebe:	780b      	ldrb	r3, [r1, #0]
	if(checkbit(*flagReg, C_FLAG) != 0){
 8001ec0:	06db      	lsls	r3, r3, #27
 8001ec2:	d401      	bmi.n	8001ec8 <vGBFunctionCALL_C_a16+0xc>
		vGBFunctionPUSH(regSP, regPC);
		*regPC = concat_16bit_bigEndian(ucGBMemoryRead(*regPC - 2), ucGBMemoryRead(*regPC - 1));
		return 24;
	}else{
		return 12;
 8001ec4:	200c      	movs	r0, #12
	}
}
 8001ec6:	bd38      	pop	{r3, r4, r5, pc}
		vGBFunctionPUSH(regSP, regPC);
 8001ec8:	4604      	mov	r4, r0
 8001eca:	4610      	mov	r0, r2
 8001ecc:	4621      	mov	r1, r4
 8001ece:	f7ff ff5d 	bl	8001d8c <vGBFunctionPUSH>
		*regPC = concat_16bit_bigEndian(ucGBMemoryRead(*regPC - 2), ucGBMemoryRead(*regPC - 1));
 8001ed2:	8820      	ldrh	r0, [r4, #0]
 8001ed4:	3802      	subs	r0, #2
 8001ed6:	b280      	uxth	r0, r0
 8001ed8:	f000 f878 	bl	8001fcc <ucGBMemoryRead>
 8001edc:	8823      	ldrh	r3, [r4, #0]
 8001ede:	4605      	mov	r5, r0
 8001ee0:	1e58      	subs	r0, r3, #1
 8001ee2:	b280      	uxth	r0, r0
 8001ee4:	f000 f872 	bl	8001fcc <ucGBMemoryRead>
 8001ee8:	4601      	mov	r1, r0
    while(x >= pow)
 8001eea:	b2ab      	uxth	r3, r5
		return 24;
 8001eec:	2018      	movs	r0, #24
    return y * pow + x;
 8001eee:	b209      	sxth	r1, r1
    while(x >= pow)
 8001ef0:	2b0f      	cmp	r3, #15
	uint16_t pow = 16;
 8001ef2:	bf8c      	ite	hi
 8001ef4:	f44f 7280 	movhi.w	r2, #256	; 0x100
 8001ef8:	2210      	movls	r2, #16
    return y * pow + x;
 8001efa:	fb01 3302 	mla	r3, r1, r2, r3
		*regPC = concat_16bit_bigEndian(ucGBMemoryRead(*regPC - 2), ucGBMemoryRead(*regPC - 1));
 8001efe:	8023      	strh	r3, [r4, #0]
}
 8001f00:	bd38      	pop	{r3, r4, r5, pc}
 8001f02:	bf00      	nop

08001f04 <vGBFunctionADD_SP_r8>:

void vGBFunctionADD_SP_r8(uint16_t *regSP, uint8_t *flagReg, uint8_t r8value){
 8001f04:	b430      	push	{r4, r5}
	uint32_t tempRes = *regSP + (int8_t) r8value;
 8001f06:	8805      	ldrh	r5, [r0, #0]
	(tempRes & 0xffff0000) ? setbit(flagReg, C_FLAG): resetbit(flagReg, C_FLAG);
 8001f08:	4b11      	ldr	r3, [pc, #68]	; (8001f50 <vGBFunctionADD_SP_r8+0x4c>)
	uint32_t tempRes = *regSP + (int8_t) r8value;
 8001f0a:	fa45 f582 	sxtab	r5, r5, r2
	(tempRes & 0xffff0000) ? setbit(flagReg, C_FLAG): resetbit(flagReg, C_FLAG);
 8001f0e:	402b      	ands	r3, r5
 8001f10:	b1bb      	cbz	r3, 8001f42 <vGBFunctionADD_SP_r8+0x3e>
	(*n) |= (0x1 << bit);
 8001f12:	f991 3000 	ldrsb.w	r3, [r1]
 8001f16:	f043 0310 	orr.w	r3, r3, #16
 8001f1a:	b2dc      	uxtb	r4, r3
 8001f1c:	700c      	strb	r4, [r1, #0]
	(((*regSP & 0x0F) + ((int8_t)r8value & 0x0F)) > 0x0F) ? setbit(flagReg, H_FLAG): resetbit(flagReg, H_FLAG);
 8001f1e:	f002 020f 	and.w	r2, r2, #15
 8001f22:	8804      	ldrh	r4, [r0, #0]
 8001f24:	f004 040f 	and.w	r4, r4, #15
 8001f28:	4422      	add	r2, r4
 8001f2a:	2a0f      	cmp	r2, #15
	(*n) |= (0x1 << bit);
 8001f2c:	bfcc      	ite	gt
 8001f2e:	f043 0320 	orrgt.w	r3, r3, #32
	(*n) &= ~(0x1 << bit);
 8001f32:	f023 0320 	bicle.w	r3, r3, #32
 8001f36:	f003 033f 	and.w	r3, r3, #63	; 0x3f
 8001f3a:	700b      	strb	r3, [r1, #0]
	resetbit(flagReg, Z_FLAG);
	resetbit(flagReg, N_FLAG);
	*regSP = tempRes & 0xFFFF;
 8001f3c:	8005      	strh	r5, [r0, #0]
}
 8001f3e:	bc30      	pop	{r4, r5}
 8001f40:	4770      	bx	lr
	(*n) &= ~(0x1 << bit);
 8001f42:	f991 4000 	ldrsb.w	r4, [r1]
 8001f46:	f024 0310 	bic.w	r3, r4, #16
 8001f4a:	f004 04ef 	and.w	r4, r4, #239	; 0xef
}
 8001f4e:	e7e5      	b.n	8001f1c <vGBFunctionADD_SP_r8+0x18>
 8001f50:	ffff0000 	.word	0xffff0000

08001f54 <vGBFunctionLD_HL_SP_r8>:

void vGBFunctionLD_HL_SP_r8(uint16_t *regHL, uint16_t *regSP, uint8_t *flagReg, uint8_t r8value){
 8001f54:	b470      	push	{r4, r5, r6}
	uint32_t tempRes = *regSP + (int8_t) r8value;
 8001f56:	880d      	ldrh	r5, [r1, #0]
	(tempRes & 0xffff0000) ? setbit(flagReg, C_FLAG): resetbit(flagReg, C_FLAG);
 8001f58:	4c11      	ldr	r4, [pc, #68]	; (8001fa0 <vGBFunctionLD_HL_SP_r8+0x4c>)
	uint32_t tempRes = *regSP + (int8_t) r8value;
 8001f5a:	fa45 f583 	sxtab	r5, r5, r3
	(tempRes & 0xffff0000) ? setbit(flagReg, C_FLAG): resetbit(flagReg, C_FLAG);
 8001f5e:	402c      	ands	r4, r5
 8001f60:	b1bc      	cbz	r4, 8001f92 <vGBFunctionLD_HL_SP_r8+0x3e>
	(*n) |= (0x1 << bit);
 8001f62:	f992 4000 	ldrsb.w	r4, [r2]
 8001f66:	f044 0410 	orr.w	r4, r4, #16
 8001f6a:	b2e6      	uxtb	r6, r4
 8001f6c:	7016      	strb	r6, [r2, #0]
	(((*regSP & 0x0F) + ((int8_t)r8value & 0x0F)) > 0x0F) ? setbit(flagReg, H_FLAG): resetbit(flagReg, H_FLAG);
 8001f6e:	f003 030f 	and.w	r3, r3, #15
 8001f72:	8809      	ldrh	r1, [r1, #0]
 8001f74:	f001 010f 	and.w	r1, r1, #15
 8001f78:	440b      	add	r3, r1
 8001f7a:	2b0f      	cmp	r3, #15
	(*n) |= (0x1 << bit);
 8001f7c:	bfcc      	ite	gt
 8001f7e:	f044 0420 	orrgt.w	r4, r4, #32
	(*n) &= ~(0x1 << bit);
 8001f82:	f024 0420 	bicle.w	r4, r4, #32
 8001f86:	f004 043f 	and.w	r4, r4, #63	; 0x3f
 8001f8a:	7014      	strb	r4, [r2, #0]
	resetbit(flagReg, Z_FLAG);
	resetbit(flagReg, N_FLAG);
	*regHL = tempRes & 0xFFFF;
 8001f8c:	8005      	strh	r5, [r0, #0]
}
 8001f8e:	bc70      	pop	{r4, r5, r6}
 8001f90:	4770      	bx	lr
	(*n) &= ~(0x1 << bit);
 8001f92:	f992 6000 	ldrsb.w	r6, [r2]
 8001f96:	f026 0410 	bic.w	r4, r6, #16
 8001f9a:	f006 06ef 	and.w	r6, r6, #239	; 0xef
}
 8001f9e:	e7e5      	b.n	8001f6c <vGBFunctionLD_HL_SP_r8+0x18>
 8001fa0:	ffff0000 	.word	0xffff0000

08001fa4 <vGBMemorySetOP>:
registers reg;
memory mem;
uint8_t current_op;

void vGBMemorySetOP(uint8_t op){
	current_op = op;
 8001fa4:	4b01      	ldr	r3, [pc, #4]	; (8001fac <vGBMemorySetOP+0x8>)
 8001fa6:	7018      	strb	r0, [r3, #0]
}
 8001fa8:	4770      	bx	lr
 8001faa:	bf00      	nop
 8001fac:	24000a30 	.word	0x24000a30

08001fb0 <vGBMemoryLoad>:

// loads data into memory map
void vGBMemoryLoad(const void* data){
 8001fb0:	4601      	mov	r1, r0
	memcpy(mem.ram , data, 256);
 8001fb2:	f44f 7280 	mov.w	r2, #256	; 0x100
 8001fb6:	4801      	ldr	r0, [pc, #4]	; (8001fbc <vGBMemoryLoad+0xc>)
 8001fb8:	f004 bf46 	b.w	8006e48 <memcpy>
 8001fbc:	24000a40 	.word	0x24000a40

08001fc0 <vGBMemoryWrite>:
}

void vGBMemoryWrite(uint16_t address, uint8_t data){
	mem.ram[address] = data;
 8001fc0:	4b01      	ldr	r3, [pc, #4]	; (8001fc8 <vGBMemoryWrite+0x8>)
 8001fc2:	5419      	strb	r1, [r3, r0]
}
 8001fc4:	4770      	bx	lr
 8001fc6:	bf00      	nop
 8001fc8:	24000a40 	.word	0x24000a40

08001fcc <ucGBMemoryRead>:

// reads a location from memory map
uint8_t ucGBMemoryRead(uint16_t address){
	return mem.ram[address];
 8001fcc:	4b01      	ldr	r3, [pc, #4]	; (8001fd4 <ucGBMemoryRead+0x8>)
}
 8001fce:	5c18      	ldrb	r0, [r3, r0]
 8001fd0:	4770      	bx	lr
 8001fd2:	bf00      	nop
 8001fd4:	24000a40 	.word	0x24000a40

08001fd8 <vGBMemoryPrint>:

void vGBMemoryPrint(){
 8001fd8:	b530      	push	{r4, r5, lr}
	char temp[15];
	sprintf(temp,"Opcode: 0x%.2x", current_op);
 8001fda:	4b64      	ldr	r3, [pc, #400]	; (800216c <vGBMemoryPrint+0x194>)
void vGBMemoryPrint(){
 8001fdc:	b085      	sub	sp, #20
	sprintf(temp,"Opcode: 0x%.2x", current_op);
 8001fde:	4964      	ldr	r1, [pc, #400]	; (8002170 <vGBMemoryPrint+0x198>)
 8001fe0:	781a      	ldrb	r2, [r3, #0]
 8001fe2:	4668      	mov	r0, sp
 8001fe4:	f004 ff3e 	bl	8006e64 <siprintf>
	UTIL_LCD_DisplayStringAt(500, LINE(6), (uint8_t *) temp, LEFT_MODE);
	sprintf(temp,"AF: 0x%.4x",reg.AF);
 8001fe8:	4c62      	ldr	r4, [pc, #392]	; (8002174 <vGBMemoryPrint+0x19c>)
	UTIL_LCD_DisplayStringAt(500, LINE(6), (uint8_t *) temp, LEFT_MODE);
 8001fea:	f004 fdc1 	bl	8006b70 <UTIL_LCD_GetFont>
 8001fee:	88c1      	ldrh	r1, [r0, #6]
 8001ff0:	2303      	movs	r3, #3
 8001ff2:	466a      	mov	r2, sp
 8001ff4:	eb01 0141 	add.w	r1, r1, r1, lsl #1
 8001ff8:	f44f 70fa 	mov.w	r0, #500	; 0x1f4
 8001ffc:	0049      	lsls	r1, r1, #1
 8001ffe:	f004 fe6d 	bl	8006cdc <UTIL_LCD_DisplayStringAt>
	sprintf(temp,"AF: 0x%.4x",reg.AF);
 8002002:	8822      	ldrh	r2, [r4, #0]
 8002004:	495c      	ldr	r1, [pc, #368]	; (8002178 <vGBMemoryPrint+0x1a0>)
 8002006:	4668      	mov	r0, sp
 8002008:	f004 ff2c 	bl	8006e64 <siprintf>
	UTIL_LCD_DisplayStringAt(500, LINE(7), (uint8_t *) temp, LEFT_MODE);
 800200c:	f004 fdb0 	bl	8006b70 <UTIL_LCD_GetFont>
 8002010:	88c1      	ldrh	r1, [r0, #6]
 8002012:	2303      	movs	r3, #3
 8002014:	466a      	mov	r2, sp
 8002016:	f44f 70fa 	mov.w	r0, #500	; 0x1f4
 800201a:	ebc1 01c1 	rsb	r1, r1, r1, lsl #3
 800201e:	f004 fe5d 	bl	8006cdc <UTIL_LCD_DisplayStringAt>
	sprintf(temp,"BC: 0x%.4x",reg.BC);
 8002022:	8862      	ldrh	r2, [r4, #2]
 8002024:	4955      	ldr	r1, [pc, #340]	; (800217c <vGBMemoryPrint+0x1a4>)
 8002026:	4668      	mov	r0, sp
 8002028:	f004 ff1c 	bl	8006e64 <siprintf>
	UTIL_LCD_DisplayStringAt(500, LINE(8), (uint8_t *) temp, LEFT_MODE);
 800202c:	f004 fda0 	bl	8006b70 <UTIL_LCD_GetFont>
 8002030:	2303      	movs	r3, #3
 8002032:	88c1      	ldrh	r1, [r0, #6]
 8002034:	466a      	mov	r2, sp
 8002036:	f44f 70fa 	mov.w	r0, #500	; 0x1f4
 800203a:	4099      	lsls	r1, r3
 800203c:	f004 fe4e 	bl	8006cdc <UTIL_LCD_DisplayStringAt>
	sprintf(temp,"DE: 0x%.4x",reg.DE);
 8002040:	88a2      	ldrh	r2, [r4, #4]
 8002042:	494f      	ldr	r1, [pc, #316]	; (8002180 <vGBMemoryPrint+0x1a8>)
 8002044:	4668      	mov	r0, sp
 8002046:	f004 ff0d 	bl	8006e64 <siprintf>
	UTIL_LCD_DisplayStringAt(500, LINE(9), (uint8_t *) temp, LEFT_MODE);
 800204a:	f004 fd91 	bl	8006b70 <UTIL_LCD_GetFont>
 800204e:	88c1      	ldrh	r1, [r0, #6]
 8002050:	2303      	movs	r3, #3
 8002052:	466a      	mov	r2, sp
 8002054:	f44f 70fa 	mov.w	r0, #500	; 0x1f4
 8002058:	eb01 01c1 	add.w	r1, r1, r1, lsl #3
 800205c:	f004 fe3e 	bl	8006cdc <UTIL_LCD_DisplayStringAt>
	sprintf(temp,"HL: 0x%.4x",reg.HL);
 8002060:	88e2      	ldrh	r2, [r4, #6]
 8002062:	4948      	ldr	r1, [pc, #288]	; (8002184 <vGBMemoryPrint+0x1ac>)
 8002064:	4668      	mov	r0, sp
 8002066:	f004 fefd 	bl	8006e64 <siprintf>
	UTIL_LCD_DisplayStringAt(500, LINE(10), (uint8_t *) temp, LEFT_MODE);
 800206a:	f004 fd81 	bl	8006b70 <UTIL_LCD_GetFont>
 800206e:	88c1      	ldrh	r1, [r0, #6]
 8002070:	2303      	movs	r3, #3
 8002072:	466a      	mov	r2, sp
 8002074:	eb01 0181 	add.w	r1, r1, r1, lsl #2
 8002078:	f44f 70fa 	mov.w	r0, #500	; 0x1f4
 800207c:	0049      	lsls	r1, r1, #1
 800207e:	f004 fe2d 	bl	8006cdc <UTIL_LCD_DisplayStringAt>
	sprintf(temp,"SP: 0x%.4x",reg.SP);
 8002082:	8922      	ldrh	r2, [r4, #8]
 8002084:	4940      	ldr	r1, [pc, #256]	; (8002188 <vGBMemoryPrint+0x1b0>)
 8002086:	4668      	mov	r0, sp
 8002088:	f004 feec 	bl	8006e64 <siprintf>
	UTIL_LCD_DisplayStringAt(500, LINE(11), (uint8_t *) temp, LEFT_MODE);
 800208c:	f004 fd70 	bl	8006b70 <UTIL_LCD_GetFont>
 8002090:	88c1      	ldrh	r1, [r0, #6]
 8002092:	2303      	movs	r3, #3
 8002094:	466a      	mov	r2, sp
 8002096:	eb01 0581 	add.w	r5, r1, r1, lsl #2
 800209a:	f44f 70fa 	mov.w	r0, #500	; 0x1f4
 800209e:	eb01 0145 	add.w	r1, r1, r5, lsl #1
 80020a2:	f004 fe1b 	bl	8006cdc <UTIL_LCD_DisplayStringAt>
	sprintf(temp,"PC: 0x%.4x",reg.PC);
 80020a6:	8962      	ldrh	r2, [r4, #10]
 80020a8:	4938      	ldr	r1, [pc, #224]	; (800218c <vGBMemoryPrint+0x1b4>)
 80020aa:	4668      	mov	r0, sp
 80020ac:	f004 feda 	bl	8006e64 <siprintf>
	UTIL_LCD_DisplayStringAt(500, LINE(12), (uint8_t *) temp, LEFT_MODE);
 80020b0:	f004 fd5e 	bl	8006b70 <UTIL_LCD_GetFont>
 80020b4:	88c1      	ldrh	r1, [r0, #6]
 80020b6:	2303      	movs	r3, #3
 80020b8:	466a      	mov	r2, sp
 80020ba:	eb01 0141 	add.w	r1, r1, r1, lsl #1
 80020be:	f44f 70fa 	mov.w	r0, #500	; 0x1f4
 80020c2:	0089      	lsls	r1, r1, #2
 80020c4:	f004 fe0a 	bl	8006cdc <UTIL_LCD_DisplayStringAt>

	sprintf(temp," Z: 0x%.1x",checkbit(reg.F, 7));
 80020c8:	7820      	ldrb	r0, [r4, #0]
 80020ca:	2107      	movs	r1, #7
 80020cc:	f7ff fc18 	bl	8001900 <checkbit>
 80020d0:	492f      	ldr	r1, [pc, #188]	; (8002190 <vGBMemoryPrint+0x1b8>)
 80020d2:	4602      	mov	r2, r0
 80020d4:	4668      	mov	r0, sp
 80020d6:	f004 fec5 	bl	8006e64 <siprintf>
	UTIL_LCD_DisplayStringAt(500, LINE(14), (uint8_t *) temp, LEFT_MODE);
 80020da:	f004 fd49 	bl	8006b70 <UTIL_LCD_GetFont>
 80020de:	88c1      	ldrh	r1, [r0, #6]
 80020e0:	2303      	movs	r3, #3
 80020e2:	466a      	mov	r2, sp
 80020e4:	ebc1 01c1 	rsb	r1, r1, r1, lsl #3
 80020e8:	f44f 70fa 	mov.w	r0, #500	; 0x1f4
 80020ec:	0049      	lsls	r1, r1, #1
 80020ee:	f004 fdf5 	bl	8006cdc <UTIL_LCD_DisplayStringAt>
	sprintf(temp," N: 0x%.1x",checkbit(reg.F, 6));
 80020f2:	7820      	ldrb	r0, [r4, #0]
 80020f4:	2106      	movs	r1, #6
 80020f6:	f7ff fc03 	bl	8001900 <checkbit>
 80020fa:	4926      	ldr	r1, [pc, #152]	; (8002194 <vGBMemoryPrint+0x1bc>)
 80020fc:	4602      	mov	r2, r0
 80020fe:	4668      	mov	r0, sp
 8002100:	f004 feb0 	bl	8006e64 <siprintf>
	UTIL_LCD_DisplayStringAt(500, LINE(15), (uint8_t *) temp, LEFT_MODE);
 8002104:	f004 fd34 	bl	8006b70 <UTIL_LCD_GetFont>
 8002108:	88c1      	ldrh	r1, [r0, #6]
 800210a:	2303      	movs	r3, #3
 800210c:	466a      	mov	r2, sp
 800210e:	f44f 70fa 	mov.w	r0, #500	; 0x1f4
 8002112:	ebc1 1101 	rsb	r1, r1, r1, lsl #4
 8002116:	f004 fde1 	bl	8006cdc <UTIL_LCD_DisplayStringAt>
	sprintf(temp," H: 0x%.1x",checkbit(reg.F, 5));
 800211a:	7820      	ldrb	r0, [r4, #0]
 800211c:	2105      	movs	r1, #5
 800211e:	f7ff fbef 	bl	8001900 <checkbit>
 8002122:	491d      	ldr	r1, [pc, #116]	; (8002198 <vGBMemoryPrint+0x1c0>)
 8002124:	4602      	mov	r2, r0
 8002126:	4668      	mov	r0, sp
 8002128:	f004 fe9c 	bl	8006e64 <siprintf>
	UTIL_LCD_DisplayStringAt(500, LINE(16), (uint8_t *) temp, LEFT_MODE);
 800212c:	f004 fd20 	bl	8006b70 <UTIL_LCD_GetFont>
 8002130:	88c1      	ldrh	r1, [r0, #6]
 8002132:	2303      	movs	r3, #3
 8002134:	466a      	mov	r2, sp
 8002136:	f44f 70fa 	mov.w	r0, #500	; 0x1f4
 800213a:	0109      	lsls	r1, r1, #4
 800213c:	f004 fdce 	bl	8006cdc <UTIL_LCD_DisplayStringAt>
	sprintf(temp," C: 0x%.1x",checkbit(reg.F, 4));
 8002140:	7820      	ldrb	r0, [r4, #0]
 8002142:	2104      	movs	r1, #4
 8002144:	f7ff fbdc 	bl	8001900 <checkbit>
 8002148:	4914      	ldr	r1, [pc, #80]	; (800219c <vGBMemoryPrint+0x1c4>)
 800214a:	4602      	mov	r2, r0
 800214c:	4668      	mov	r0, sp
 800214e:	f004 fe89 	bl	8006e64 <siprintf>
	UTIL_LCD_DisplayStringAt(500, LINE(17), (uint8_t *) temp, LEFT_MODE);
 8002152:	f004 fd0d 	bl	8006b70 <UTIL_LCD_GetFont>
 8002156:	88c1      	ldrh	r1, [r0, #6]
 8002158:	466a      	mov	r2, sp
 800215a:	2303      	movs	r3, #3
 800215c:	f44f 70fa 	mov.w	r0, #500	; 0x1f4
 8002160:	eb01 1101 	add.w	r1, r1, r1, lsl #4
 8002164:	f004 fdba 	bl	8006cdc <UTIL_LCD_DisplayStringAt>
}
 8002168:	b005      	add	sp, #20
 800216a:	bd30      	pop	{r4, r5, pc}
 800216c:	24000a30 	.word	0x24000a30
 8002170:	080076cc 	.word	0x080076cc
 8002174:	24000a34 	.word	0x24000a34
 8002178:	080076dc 	.word	0x080076dc
 800217c:	080076e8 	.word	0x080076e8
 8002180:	080076f4 	.word	0x080076f4
 8002184:	08007700 	.word	0x08007700
 8002188:	0800770c 	.word	0x0800770c
 800218c:	08007718 	.word	0x08007718
 8002190:	08007724 	.word	0x08007724
 8002194:	08007730 	.word	0x08007730
 8002198:	0800773c 	.word	0x0800773c
 800219c:	08007748 	.word	0x08007748

080021a0 <SystemClock_Config>:
  *            Flash Latency(WS)              = 4
  * @param  None
  * @retval None
  */
void SystemClock_Config(void)
{
 80021a0:	b5f0      	push	{r4, r5, r6, r7, lr}
  RCC_ClkInitTypeDef RCC_ClkInitStruct;
  RCC_OscInitTypeDef RCC_OscInitStruct;
  HAL_StatusTypeDef ret = HAL_OK;

  /*!< Supply configuration update enable */
  HAL_PWREx_ConfigSupply(PWR_DIRECT_SMPS_SUPPLY);
 80021a2:	2004      	movs	r0, #4
{
 80021a4:	b09f      	sub	sp, #124	; 0x7c
  HAL_PWREx_ConfigSupply(PWR_DIRECT_SMPS_SUPPLY);
 80021a6:	f002 ffcd 	bl	8005144 <HAL_PWREx_ConfigSupply>

  /* The voltage scaling allows optimizing the power consumption when the device is
     clocked below the maximum system frequency, to update the voltage scaling value
     regarding system frequency refer to product datasheet.  */
  __HAL_PWR_VOLTAGESCALING_CONFIG(PWR_REGULATOR_VOLTAGE_SCALE1);
 80021aa:	4a2f      	ldr	r2, [pc, #188]	; (8002268 <SystemClock_Config+0xc8>)
 80021ac:	2300      	movs	r3, #0
 80021ae:	9301      	str	r3, [sp, #4]
 80021b0:	6ad1      	ldr	r1, [r2, #44]	; 0x2c
 80021b2:	4b2e      	ldr	r3, [pc, #184]	; (800226c <SystemClock_Config+0xcc>)
 80021b4:	f021 0101 	bic.w	r1, r1, #1

  while(!__HAL_PWR_GET_FLAG(PWR_FLAG_VOSRDY)) {}
 80021b8:	4618      	mov	r0, r3
  __HAL_PWR_VOLTAGESCALING_CONFIG(PWR_REGULATOR_VOLTAGE_SCALE1);
 80021ba:	62d1      	str	r1, [r2, #44]	; 0x2c
 80021bc:	6ad2      	ldr	r2, [r2, #44]	; 0x2c
 80021be:	f002 0201 	and.w	r2, r2, #1
 80021c2:	9201      	str	r2, [sp, #4]
 80021c4:	699a      	ldr	r2, [r3, #24]
 80021c6:	f442 4240 	orr.w	r2, r2, #49152	; 0xc000
 80021ca:	619a      	str	r2, [r3, #24]
 80021cc:	699b      	ldr	r3, [r3, #24]
 80021ce:	f403 4340 	and.w	r3, r3, #49152	; 0xc000
 80021d2:	9301      	str	r3, [sp, #4]
 80021d4:	9b01      	ldr	r3, [sp, #4]
  while(!__HAL_PWR_GET_FLAG(PWR_FLAG_VOSRDY)) {}
 80021d6:	6983      	ldr	r3, [r0, #24]
 80021d8:	049b      	lsls	r3, r3, #18
 80021da:	d5fc      	bpl.n	80021d6 <SystemClock_Config+0x36>

  /* Enable HSE Oscillator and activate PLL with HSE as source */
  RCC_OscInitStruct.OscillatorType = RCC_OSCILLATORTYPE_HSE;
 80021dc:	2401      	movs	r4, #1
  RCC_OscInitStruct.HSEState = RCC_HSE_ON;
 80021de:	f44f 3080 	mov.w	r0, #65536	; 0x10000
  RCC_OscInitStruct.HSIState = RCC_HSI_OFF;
 80021e2:	2200      	movs	r2, #0
  RCC_OscInitStruct.CSIState = RCC_CSI_OFF;
  RCC_OscInitStruct.PLL.PLLState = RCC_PLL_ON;
 80021e4:	2302      	movs	r3, #2
  RCC_OscInitStruct.PLL.PLLSource = RCC_PLLSOURCE_HSE;

  RCC_OscInitStruct.PLL.PLLM = 5;
 80021e6:	2605      	movs	r6, #5
  RCC_OscInitStruct.PLL.PLLN = 160;
 80021e8:	21a0      	movs	r1, #160	; 0xa0
  RCC_OscInitStruct.PLL.PLLFRACN = 0;
  RCC_OscInitStruct.PLL.PLLP = 2;
  RCC_OscInitStruct.PLL.PLLR = 2;
  RCC_OscInitStruct.PLL.PLLQ = 4;
 80021ea:	2504      	movs	r5, #4
  RCC_OscInitStruct.OscillatorType = RCC_OSCILLATORTYPE_HSE;
 80021ec:	940b      	str	r4, [sp, #44]	; 0x2c

  RCC_OscInitStruct.PLL.PLLVCOSEL = RCC_PLL1VCOWIDE;
  RCC_OscInitStruct.PLL.PLLRGE = RCC_PLL1VCIRANGE_2;
 80021ee:	2408      	movs	r4, #8
  RCC_OscInitStruct.HSEState = RCC_HSE_ON;
 80021f0:	900c      	str	r0, [sp, #48]	; 0x30
  ret = HAL_RCC_OscConfig(&RCC_OscInitStruct);
 80021f2:	a80b      	add	r0, sp, #44	; 0x2c
  RCC_OscInitStruct.HSIState = RCC_HSI_OFF;
 80021f4:	920e      	str	r2, [sp, #56]	; 0x38
  RCC_OscInitStruct.CSIState = RCC_CSI_OFF;
 80021f6:	9212      	str	r2, [sp, #72]	; 0x48
  RCC_OscInitStruct.PLL.PLLP = 2;
 80021f8:	9318      	str	r3, [sp, #96]	; 0x60
  RCC_OscInitStruct.PLL.PLLR = 2;
 80021fa:	931a      	str	r3, [sp, #104]	; 0x68
  RCC_OscInitStruct.PLL.PLLQ = 4;
 80021fc:	9519      	str	r5, [sp, #100]	; 0x64
  RCC_OscInitStruct.PLL.PLLRGE = RCC_PLL1VCIRANGE_2;
 80021fe:	941b      	str	r4, [sp, #108]	; 0x6c
  RCC_OscInitStruct.PLL.PLLVCOSEL = RCC_PLL1VCOWIDE;
 8002200:	e9cd 221c 	strd	r2, r2, [sp, #112]	; 0x70
  RCC_OscInitStruct.PLL.PLLSource = RCC_PLLSOURCE_HSE;
 8002204:	e9cd 3314 	strd	r3, r3, [sp, #80]	; 0x50
  RCC_OscInitStruct.PLL.PLLN = 160;
 8002208:	e9cd 6116 	strd	r6, r1, [sp, #88]	; 0x58
  ret = HAL_RCC_OscConfig(&RCC_OscInitStruct);
 800220c:	f002 ffd6 	bl	80051bc <HAL_RCC_OscConfig>
  if(ret != HAL_OK)
 8002210:	b108      	cbz	r0, 8002216 <SystemClock_Config+0x76>
  \details Disables IRQ interrupts by setting the I-bit in the CPSR.
           Can only be executed in Privileged modes.
 */
__STATIC_FORCEINLINE void __disable_irq(void)
{
  __ASM volatile ("cpsid i" : : : "memory");
 8002212:	b672      	cpsid	i
void Error_Handler(void)
{
  /* USER CODE BEGIN Error_Handler_Debug */
  /* User can add his own implementation to report the HAL error return state */
  __disable_irq();
  while (1)
 8002214:	e7fe      	b.n	8002214 <SystemClock_Config+0x74>
  RCC_ClkInitStruct.APB3CLKDivider = RCC_APB3_DIV2;
 8002216:	2340      	movs	r3, #64	; 0x40
  RCC_ClkInitStruct.ClockType = (RCC_CLOCKTYPE_SYSCLK | RCC_CLOCKTYPE_HCLK | RCC_CLOCKTYPE_D1PCLK1 | RCC_CLOCKTYPE_PCLK1 | \
 8002218:	273f      	movs	r7, #63	; 0x3f
  RCC_ClkInitStruct.SYSCLKSource = RCC_SYSCLKSOURCE_PLLCLK;
 800221a:	2603      	movs	r6, #3
  RCC_ClkInitStruct.APB2CLKDivider = RCC_APB2_DIV2;
 800221c:	f44f 6280 	mov.w	r2, #1024	; 0x400
  RCC_ClkInitStruct.SYSCLKDivider = RCC_SYSCLK_DIV1;
 8002220:	9005      	str	r0, [sp, #20]
  ret = HAL_RCC_ClockConfig(&RCC_ClkInitStruct, FLASH_LATENCY_4);
 8002222:	4629      	mov	r1, r5
 8002224:	a803      	add	r0, sp, #12
  RCC_ClkInitStruct.AHBCLKDivider = RCC_HCLK_DIV2;
 8002226:	9406      	str	r4, [sp, #24]
  RCC_ClkInitStruct.SYSCLKSource = RCC_SYSCLKSOURCE_PLLCLK;
 8002228:	e9cd 7603 	strd	r7, r6, [sp, #12]
  RCC_ClkInitStruct.APB1CLKDivider = RCC_APB1_DIV2;
 800222c:	e9cd 3307 	strd	r3, r3, [sp, #28]
  RCC_ClkInitStruct.APB2CLKDivider = RCC_APB2_DIV2;
 8002230:	e9cd 2309 	strd	r2, r3, [sp, #36]	; 0x24
  ret = HAL_RCC_ClockConfig(&RCC_ClkInitStruct, FLASH_LATENCY_4);
 8002234:	f003 fb58 	bl	80058e8 <HAL_RCC_ClockConfig>
  if(ret != HAL_OK)
 8002238:	b108      	cbz	r0, 800223e <SystemClock_Config+0x9e>
 800223a:	b672      	cpsid	i
  while (1)
 800223c:	e7fe      	b.n	800223c <SystemClock_Config+0x9c>
  __HAL_RCC_CSI_ENABLE() ;
 800223e:	4b0c      	ldr	r3, [pc, #48]	; (8002270 <SystemClock_Config+0xd0>)
 8002240:	681a      	ldr	r2, [r3, #0]
 8002242:	f042 0280 	orr.w	r2, r2, #128	; 0x80
 8002246:	601a      	str	r2, [r3, #0]
  __HAL_RCC_SYSCFG_CLK_ENABLE() ;
 8002248:	f8d3 20f4 	ldr.w	r2, [r3, #244]	; 0xf4
 800224c:	f042 0202 	orr.w	r2, r2, #2
 8002250:	f8c3 20f4 	str.w	r2, [r3, #244]	; 0xf4
 8002254:	f8d3 30f4 	ldr.w	r3, [r3, #244]	; 0xf4
 8002258:	f003 0302 	and.w	r3, r3, #2
 800225c:	9302      	str	r3, [sp, #8]
 800225e:	9b02      	ldr	r3, [sp, #8]
  HAL_EnableCompensationCell();
 8002260:	f001 fe06 	bl	8003e70 <HAL_EnableCompensationCell>
}
 8002264:	b01f      	add	sp, #124	; 0x7c
 8002266:	bdf0      	pop	{r4, r5, r6, r7, pc}
 8002268:	58000400 	.word	0x58000400
 800226c:	58024800 	.word	0x58024800
 8002270:	58024400 	.word	0x58024400

08002274 <main>:
  while((__HAL_RCC_GET_FLAG(RCC_FLAG_D2CKRDY) != RESET) && (timeout-- > 0));
 8002274:	f44f 3380 	mov.w	r3, #65536	; 0x10000
 8002278:	498d      	ldr	r1, [pc, #564]	; (80024b0 <main+0x23c>)
 800227a:	e002      	b.n	8002282 <main+0xe>
 800227c:	3b01      	subs	r3, #1
 800227e:	f000 8113 	beq.w	80024a8 <main+0x234>
 8002282:	680a      	ldr	r2, [r1, #0]
 8002284:	0412      	lsls	r2, r2, #16
 8002286:	d4f9      	bmi.n	800227c <main+0x8>
{
 8002288:	b5f0      	push	{r4, r5, r6, r7, lr}
 800228a:	b08d      	sub	sp, #52	; 0x34
  HAL_Init();
 800228c:	f001 fd96 	bl	8003dbc <HAL_Init>
  \details Turns on I-Cache
  */
__STATIC_FORCEINLINE void SCB_EnableICache (void)
{
  #if defined (__ICACHE_PRESENT) && (__ICACHE_PRESENT == 1U)
    if (SCB->CCR & SCB_CCR_IC_Msk) return;  /* return if ICache is already enabled */
 8002290:	4a88      	ldr	r2, [pc, #544]	; (80024b4 <main+0x240>)
 8002292:	6953      	ldr	r3, [r2, #20]
 8002294:	f413 3300 	ands.w	r3, r3, #131072	; 0x20000
 8002298:	d111      	bne.n	80022be <main+0x4a>
  \details Acts as a special kind of Data Memory Barrier.
           It completes when all explicit memory accesses before this instruction complete.
 */
__STATIC_FORCEINLINE void __DSB(void)
{
  __ASM volatile ("dsb 0xF":::"memory");
 800229a:	f3bf 8f4f 	dsb	sy
  __ASM volatile ("isb 0xF":::"memory");
 800229e:	f3bf 8f6f 	isb	sy

    __DSB();
    __ISB();
    SCB->ICIALLU = 0UL;                     /* invalidate I-Cache */
 80022a2:	f8c2 3250 	str.w	r3, [r2, #592]	; 0x250
  __ASM volatile ("dsb 0xF":::"memory");
 80022a6:	f3bf 8f4f 	dsb	sy
  __ASM volatile ("isb 0xF":::"memory");
 80022aa:	f3bf 8f6f 	isb	sy
    __DSB();
    __ISB();
    SCB->CCR |=  (uint32_t)SCB_CCR_IC_Msk;  /* enable I-Cache */
 80022ae:	6953      	ldr	r3, [r2, #20]
 80022b0:	f443 3300 	orr.w	r3, r3, #131072	; 0x20000
 80022b4:	6153      	str	r3, [r2, #20]
  __ASM volatile ("dsb 0xF":::"memory");
 80022b6:	f3bf 8f4f 	dsb	sy
  __ASM volatile ("isb 0xF":::"memory");
 80022ba:	f3bf 8f6f 	isb	sy
  #if defined (__DCACHE_PRESENT) && (__DCACHE_PRESENT == 1U)
    uint32_t ccsidr;
    uint32_t sets;
    uint32_t ways;

    if (SCB->CCR & SCB_CCR_DC_Msk) return;  /* return if DCache is already enabled */
 80022be:	4a7d      	ldr	r2, [pc, #500]	; (80024b4 <main+0x240>)
 80022c0:	6953      	ldr	r3, [r2, #20]
 80022c2:	f413 3380 	ands.w	r3, r3, #65536	; 0x10000
 80022c6:	d124      	bne.n	8002312 <main+0x9e>

    SCB->CSSELR = 0U;                       /* select Level 1 data cache */
 80022c8:	f8c2 3084 	str.w	r3, [r2, #132]	; 0x84
  __ASM volatile ("dsb 0xF":::"memory");
 80022cc:	f3bf 8f4f 	dsb	sy
    __DSB();

    ccsidr = SCB->CCSIDR;
 80022d0:	f8d2 5080 	ldr.w	r5, [r2, #128]	; 0x80
                                            /* invalidate D-Cache */
    sets = (uint32_t)(CCSIDR_SETS(ccsidr));
    do {
      ways = (uint32_t)(CCSIDR_WAYS(ccsidr));
      do {
        SCB->DCISW = (((sets << SCB_DCISW_SET_Pos) & SCB_DCISW_SET_Msk) |
 80022d4:	f643 76e0 	movw	r6, #16352	; 0x3fe0
    sets = (uint32_t)(CCSIDR_SETS(ccsidr));
 80022d8:	f3c5 304e 	ubfx	r0, r5, #13, #15
      ways = (uint32_t)(CCSIDR_WAYS(ccsidr));
 80022dc:	f3c5 05c9 	ubfx	r5, r5, #3, #10
 80022e0:	0140      	lsls	r0, r0, #5
        SCB->DCISW = (((sets << SCB_DCISW_SET_Pos) & SCB_DCISW_SET_Msk) |
 80022e2:	ea00 0406 	and.w	r4, r0, r6
      ways = (uint32_t)(CCSIDR_WAYS(ccsidr));
 80022e6:	462b      	mov	r3, r5
        SCB->DCISW = (((sets << SCB_DCISW_SET_Pos) & SCB_DCISW_SET_Msk) |
 80022e8:	ea44 7183 	orr.w	r1, r4, r3, lsl #30
                      ((ways << SCB_DCISW_WAY_Pos) & SCB_DCISW_WAY_Msk)  );
        #if defined ( __CC_ARM )
          __schedule_barrier();
        #endif
      } while (ways-- != 0U);
 80022ec:	3b01      	subs	r3, #1
 80022ee:	1c5f      	adds	r7, r3, #1
        SCB->DCISW = (((sets << SCB_DCISW_SET_Pos) & SCB_DCISW_SET_Msk) |
 80022f0:	f8c2 1260 	str.w	r1, [r2, #608]	; 0x260
      } while (ways-- != 0U);
 80022f4:	d1f8      	bne.n	80022e8 <main+0x74>
    } while(sets-- != 0U);
 80022f6:	3820      	subs	r0, #32
 80022f8:	f110 0f20 	cmn.w	r0, #32
 80022fc:	d1f1      	bne.n	80022e2 <main+0x6e>
 80022fe:	f3bf 8f4f 	dsb	sy
    __DSB();

    SCB->CCR |=  (uint32_t)SCB_CCR_DC_Msk;  /* enable D-Cache */
 8002302:	6953      	ldr	r3, [r2, #20]
 8002304:	f443 3380 	orr.w	r3, r3, #65536	; 0x10000
 8002308:	6153      	str	r3, [r2, #20]
 800230a:	f3bf 8f4f 	dsb	sy
  __ASM volatile ("isb 0xF":::"memory");
 800230e:	f3bf 8f6f 	isb	sy
__HAL_RCC_HSEM_CLK_ENABLE();
 8002312:	4c67      	ldr	r4, [pc, #412]	; (80024b0 <main+0x23c>)
  SystemClock_Config();
 8002314:	f7ff ff44 	bl	80021a0 <SystemClock_Config>
HAL_HSEM_FastTake(HSEM_ID_0);
 8002318:	2000      	movs	r0, #0
__HAL_RCC_HSEM_CLK_ENABLE();
 800231a:	f8d4 30e0 	ldr.w	r3, [r4, #224]	; 0xe0
 800231e:	f043 7300 	orr.w	r3, r3, #33554432	; 0x2000000
 8002322:	f8c4 30e0 	str.w	r3, [r4, #224]	; 0xe0
 8002326:	f8d4 30e0 	ldr.w	r3, [r4, #224]	; 0xe0
 800232a:	f003 7300 	and.w	r3, r3, #33554432	; 0x2000000
 800232e:	9302      	str	r3, [sp, #8]
 8002330:	9b02      	ldr	r3, [sp, #8]
HAL_HSEM_FastTake(HSEM_ID_0);
 8002332:	f002 fcaf 	bl	8004c94 <HAL_HSEM_FastTake>
HAL_HSEM_Release(HSEM_ID_0,0);
 8002336:	2100      	movs	r1, #0
 8002338:	4608      	mov	r0, r1
 800233a:	f002 fcb9 	bl	8004cb0 <HAL_HSEM_Release>
while((__HAL_RCC_GET_FLAG(RCC_FLAG_D2CKRDY) == RESET) && (timeout-- > 0));
 800233e:	4623      	mov	r3, r4
 8002340:	f44f 3280 	mov.w	r2, #65536	; 0x10000
 8002344:	e002      	b.n	800234c <main+0xd8>
 8002346:	3a01      	subs	r2, #1
 8002348:	f000 80b0 	beq.w	80024ac <main+0x238>
 800234c:	6819      	ldr	r1, [r3, #0]
 800234e:	0409      	lsls	r1, r1, #16
 8002350:	d5f9      	bpl.n	8002346 <main+0xd2>
  __HAL_RCC_GPIOC_CLK_ENABLE();
 8002352:	f8d3 20e0 	ldr.w	r2, [r3, #224]	; 0xe0
	GPIO_InitStruct.Mode = GPIO_MODE_OUTPUT_PP;
 8002356:	2401      	movs	r4, #1
	GPIO_InitTypeDef GPIO_InitStruct = {0};
 8002358:	2600      	movs	r6, #0
	GPIO_InitStruct.Pin = GPIO_PIN_12 | GPIO_PIN_13 | GPIO_PIN_14 | GPIO_PIN_15;
 800235a:	f44f 4570 	mov.w	r5, #61440	; 0xf000
  __HAL_RCC_GPIOC_CLK_ENABLE();
 800235e:	f042 0204 	orr.w	r2, r2, #4
	HAL_GPIO_Init(GPIOI, &GPIO_InitStruct);
 8002362:	a907      	add	r1, sp, #28
 8002364:	4854      	ldr	r0, [pc, #336]	; (80024b8 <main+0x244>)
  UTIL_LCD_FillRect(0, 0, 160*3, 480, UTIL_LCD_COLOR_BLACK);
 8002366:	f04f 477f 	mov.w	r7, #4278190080	; 0xff000000
  __HAL_RCC_GPIOC_CLK_ENABLE();
 800236a:	f8c3 20e0 	str.w	r2, [r3, #224]	; 0xe0
 800236e:	f8d3 20e0 	ldr.w	r2, [r3, #224]	; 0xe0
 8002372:	f002 0204 	and.w	r2, r2, #4
 8002376:	9204      	str	r2, [sp, #16]
 8002378:	9a04      	ldr	r2, [sp, #16]
  __HAL_RCC_GPIOA_CLK_ENABLE();
 800237a:	f8d3 20e0 	ldr.w	r2, [r3, #224]	; 0xe0
 800237e:	4322      	orrs	r2, r4
 8002380:	f8c3 20e0 	str.w	r2, [r3, #224]	; 0xe0
 8002384:	f8d3 20e0 	ldr.w	r2, [r3, #224]	; 0xe0
 8002388:	4022      	ands	r2, r4
 800238a:	9205      	str	r2, [sp, #20]
 800238c:	9a05      	ldr	r2, [sp, #20]
  __HAL_RCC_GPIOH_CLK_ENABLE();
 800238e:	f8d3 20e0 	ldr.w	r2, [r3, #224]	; 0xe0
 8002392:	f042 0280 	orr.w	r2, r2, #128	; 0x80
 8002396:	f8c3 20e0 	str.w	r2, [r3, #224]	; 0xe0
 800239a:	f8d3 20e0 	ldr.w	r2, [r3, #224]	; 0xe0
	GPIO_InitTypeDef GPIO_InitStruct = {0};
 800239e:	960b      	str	r6, [sp, #44]	; 0x2c
  __HAL_RCC_GPIOH_CLK_ENABLE();
 80023a0:	f002 0280 	and.w	r2, r2, #128	; 0x80
 80023a4:	9206      	str	r2, [sp, #24]
 80023a6:	9a06      	ldr	r2, [sp, #24]
	  __HAL_RCC_GPIOI_CLK_ENABLE();
 80023a8:	f8d3 20e0 	ldr.w	r2, [r3, #224]	; 0xe0
 80023ac:	f442 7280 	orr.w	r2, r2, #256	; 0x100
 80023b0:	f8c3 20e0 	str.w	r2, [r3, #224]	; 0xe0
 80023b4:	f8d3 30e0 	ldr.w	r3, [r3, #224]	; 0xe0
	GPIO_InitStruct.Pull = GPIO_NOPULL;
 80023b8:	9609      	str	r6, [sp, #36]	; 0x24
	  __HAL_RCC_GPIOI_CLK_ENABLE();
 80023ba:	f403 7380 	and.w	r3, r3, #256	; 0x100
	GPIO_InitStruct.Speed = GPIO_SPEED_FREQ_LOW;
 80023be:	960a      	str	r6, [sp, #40]	; 0x28
	GPIO_InitStruct.Pin = GPIO_PIN_12 | GPIO_PIN_13 | GPIO_PIN_14 | GPIO_PIN_15;
 80023c0:	9507      	str	r5, [sp, #28]
	  __HAL_RCC_GPIOI_CLK_ENABLE();
 80023c2:	9303      	str	r3, [sp, #12]
 80023c4:	9b03      	ldr	r3, [sp, #12]
	GPIO_InitStruct.Mode = GPIO_MODE_OUTPUT_PP;
 80023c6:	9408      	str	r4, [sp, #32]
	HAL_GPIO_Init(GPIOI, &GPIO_InitStruct);
 80023c8:	f002 fb32 	bl	8004a30 <HAL_GPIO_Init>
	GPIO_InitStruct.Pin = GPIO_PIN_13;
 80023cc:	f44f 5300 	mov.w	r3, #8192	; 0x2000
	HAL_GPIO_Init(GPIOC, &GPIO_InitStruct);
 80023d0:	a907      	add	r1, sp, #28
 80023d2:	483a      	ldr	r0, [pc, #232]	; (80024bc <main+0x248>)
	GPIO_InitStruct.Pin = GPIO_PIN_13;
 80023d4:	9307      	str	r3, [sp, #28]
	GPIO_InitStruct.Speed = GPIO_SPEED_FREQ_LOW;
 80023d6:	960a      	str	r6, [sp, #40]	; 0x28
	  if(HAL_GPIO_ReadPin(GPIOC, GPIO_PIN_13) != 0){									// read the button input
 80023d8:	4d38      	ldr	r5, [pc, #224]	; (80024bc <main+0x248>)
	GPIO_InitStruct.Pull = GPIO_NOPULL;
 80023da:	e9cd 6608 	strd	r6, r6, [sp, #32]
	HAL_GPIO_Init(GPIOC, &GPIO_InitStruct);
 80023de:	f002 fb27 	bl	8004a30 <HAL_GPIO_Init>
  BSP_LCD_Init(0, LCD_ORIENTATION_LANDSCAPE);
 80023e2:	4621      	mov	r1, r4
 80023e4:	4630      	mov	r0, r6
  UTIL_LCD_FillRect(0, (480 - (144*3))/2, 160*3, 144*3, UTIL_LCD_COLOR_BLUE);
 80023e6:	4c36      	ldr	r4, [pc, #216]	; (80024c0 <main+0x24c>)
  BSP_LCD_Init(0, LCD_ORIENTATION_LANDSCAPE);
 80023e8:	f001 fb84 	bl	8003af4 <BSP_LCD_Init>
  UTIL_LCD_SetFuncDriver(&LCD_Driver);
 80023ec:	4835      	ldr	r0, [pc, #212]	; (80024c4 <main+0x250>)
 80023ee:	f004 fb65 	bl	8006abc <UTIL_LCD_SetFuncDriver>
  UTIL_LCD_SetLayer(0);
 80023f2:	4630      	mov	r0, r6
 80023f4:	f004 fb94 	bl	8006b20 <UTIL_LCD_SetLayer>
  UTIL_LCD_Clear(UTIL_LCD_COLOR_WHITE);
 80023f8:	f04f 30ff 	mov.w	r0, #4294967295
 80023fc:	f004 fcea 	bl	8006dd4 <UTIL_LCD_Clear>
  UTIL_LCD_FillRect(0, 0, 160*3, 480, UTIL_LCD_COLOR_BLACK);
 8002400:	f44f 73f0 	mov.w	r3, #480	; 0x1e0
 8002404:	4631      	mov	r1, r6
 8002406:	4630      	mov	r0, r6
 8002408:	461a      	mov	r2, r3
 800240a:	9700      	str	r7, [sp, #0]
 800240c:	f004 fcb6 	bl	8006d7c <UTIL_LCD_FillRect>
  UTIL_LCD_FillRect(0, (480 - (144*3))/2, 160*3, 144*3, UTIL_LCD_COLOR_BLUE);
 8002410:	f44f 73d8 	mov.w	r3, #432	; 0x1b0
 8002414:	f44f 72f0 	mov.w	r2, #480	; 0x1e0
 8002418:	2118      	movs	r1, #24
 800241a:	4630      	mov	r0, r6
 800241c:	9400      	str	r4, [sp, #0]
 800241e:	f004 fcad 	bl	8006d7c <UTIL_LCD_FillRect>
  UTIL_LCD_SetBackColor(UTIL_LCD_COLOR_WHITE);
 8002422:	f04f 30ff 	mov.w	r0, #4294967295
 8002426:	f004 fb93 	bl	8006b50 <UTIL_LCD_SetBackColor>
  UTIL_LCD_SetTextColor(UTIL_LCD_COLOR_BLUE);
 800242a:	4620      	mov	r0, r4
 800242c:	f004 fb88 	bl	8006b40 <UTIL_LCD_SetTextColor>
  UTIL_LCD_SetFont(&Font24);
 8002430:	4825      	ldr	r0, [pc, #148]	; (80024c8 <main+0x254>)
 8002432:	f004 fb95 	bl	8006b60 <UTIL_LCD_SetFont>
  UTIL_LCD_Clear(UTIL_LCD_COLOR_WHITE);
 8002436:	f04f 30ff 	mov.w	r0, #4294967295
 800243a:	f004 fccb 	bl	8006dd4 <UTIL_LCD_Clear>
  UTIL_LCD_FillRect(0, 0, 160*3, 480, UTIL_LCD_COLOR_BLACK);
 800243e:	f44f 73f0 	mov.w	r3, #480	; 0x1e0
 8002442:	4631      	mov	r1, r6
 8002444:	4630      	mov	r0, r6
 8002446:	461a      	mov	r2, r3
 8002448:	9700      	str	r7, [sp, #0]
 800244a:	f004 fc97 	bl	8006d7c <UTIL_LCD_FillRect>
  UTIL_LCD_FillRect(0, (480 - (144*3))/2, 160*3, 144*3, UTIL_LCD_COLOR_BLUE);
 800244e:	f44f 73d8 	mov.w	r3, #432	; 0x1b0
 8002452:	f44f 72f0 	mov.w	r2, #480	; 0x1e0
 8002456:	2118      	movs	r1, #24
 8002458:	4630      	mov	r0, r6
 800245a:	9400      	str	r4, [sp, #0]
 800245c:	f004 fc8e 	bl	8006d7c <UTIL_LCD_FillRect>
  UTIL_LCD_SetBackColor(UTIL_LCD_COLOR_WHITE);
 8002460:	f04f 30ff 	mov.w	r0, #4294967295
 8002464:	f004 fb74 	bl	8006b50 <UTIL_LCD_SetBackColor>
		  vGBMemoryLoad(dmg_boot_bin);													// load boot rom into approiate place in memory map
 8002468:	4e18      	ldr	r6, [pc, #96]	; (80024cc <main+0x258>)
  UTIL_LCD_SetTextColor(UTIL_LCD_COLOR_BLUE);
 800246a:	4620      	mov	r0, r4
		  HAL_GPIO_TogglePin(GPIOI, GPIO_PIN_14);										// toggle debug light
 800246c:	4c12      	ldr	r4, [pc, #72]	; (80024b8 <main+0x244>)
  UTIL_LCD_SetTextColor(UTIL_LCD_COLOR_BLUE);
 800246e:	f004 fb67 	bl	8006b40 <UTIL_LCD_SetTextColor>
  UTIL_LCD_SetFont(&Font24);
 8002472:	4815      	ldr	r0, [pc, #84]	; (80024c8 <main+0x254>)
 8002474:	f004 fb74 	bl	8006b60 <UTIL_LCD_SetFont>
	  if(HAL_GPIO_ReadPin(GPIOC, GPIO_PIN_13) != 0){									// read the button input
 8002478:	f44f 5100 	mov.w	r1, #8192	; 0x2000
 800247c:	4628      	mov	r0, r5
 800247e:	f002 fbf5 	bl	8004c6c <HAL_GPIO_ReadPin>
 8002482:	4603      	mov	r3, r0
		  HAL_GPIO_TogglePin(GPIOI, GPIO_PIN_14);										// toggle debug light
 8002484:	f44f 4180 	mov.w	r1, #16384	; 0x4000
 8002488:	4620      	mov	r0, r4
	  if(HAL_GPIO_ReadPin(GPIOC, GPIO_PIN_13) != 0){									// read the button input
 800248a:	b143      	cbz	r3, 800249e <main+0x22a>
		  HAL_GPIO_TogglePin(GPIOI, GPIO_PIN_14);										// toggle debug light
 800248c:	f002 fbf8 	bl	8004c80 <HAL_GPIO_TogglePin>
		  vGBMemoryLoad(dmg_boot_bin);													// load boot rom into approiate place in memory map
 8002490:	4630      	mov	r0, r6
 8002492:	f7ff fd8d 	bl	8001fb0 <vGBMemoryLoad>
		  vGBCPUboot();
 8002496:	f7ff fa0b 	bl	80018b0 <vGBCPUboot>
		  vGBMemoryPrint();
 800249a:	f7ff fd9d 	bl	8001fd8 <vGBMemoryPrint>
  HAL_Delay(1000);
 800249e:	f44f 707a 	mov.w	r0, #1000	; 0x3e8
 80024a2:	f001 fccd 	bl	8003e40 <HAL_Delay>
	  if(HAL_GPIO_ReadPin(GPIOC, GPIO_PIN_13) != 0){									// read the button input
 80024a6:	e7e7      	b.n	8002478 <main+0x204>
  __ASM volatile ("cpsid i" : : : "memory");
 80024a8:	b672      	cpsid	i
  while (1)
 80024aa:	e7fe      	b.n	80024aa <main+0x236>
 80024ac:	b672      	cpsid	i
 80024ae:	e7fe      	b.n	80024ae <main+0x23a>
 80024b0:	58024400 	.word	0x58024400
 80024b4:	e000ed00 	.word	0xe000ed00
 80024b8:	58022000 	.word	0x58022000
 80024bc:	58020800 	.word	0x58020800
 80024c0:	ff0000ff 	.word	0xff0000ff
 80024c4:	080079c0 	.word	0x080079c0
 80024c8:	2400085c 	.word	0x2400085c
 80024cc:	08007754 	.word	0x08007754

080024d0 <NMI_Handler>:
  * @param  None
  * @retval None
  */
void NMI_Handler(void)
{
}
 80024d0:	4770      	bx	lr
 80024d2:	bf00      	nop

080024d4 <HardFault_Handler>:
  * @retval None
  */
void HardFault_Handler(void)
{
  /* Go to infinite loop when Hard Fault exception occurs */
  while (1)
 80024d4:	e7fe      	b.n	80024d4 <HardFault_Handler>
 80024d6:	bf00      	nop

080024d8 <MemManage_Handler>:
  * @retval None
  */
void MemManage_Handler(void)
{
  /* Go to infinite loop when Memory Manage exception occurs */
  while (1)
 80024d8:	e7fe      	b.n	80024d8 <MemManage_Handler>
 80024da:	bf00      	nop

080024dc <BusFault_Handler>:
  * @retval None
  */
void BusFault_Handler(void)
{
  /* Go to infinite loop when Bus Fault exception occurs */
  while (1)
 80024dc:	e7fe      	b.n	80024dc <BusFault_Handler>
 80024de:	bf00      	nop

080024e0 <UsageFault_Handler>:
  * @retval None
  */
void UsageFault_Handler(void)
{
  /* Go to infinite loop when Usage Fault exception occurs */
  while (1)
 80024e0:	e7fe      	b.n	80024e0 <UsageFault_Handler>
 80024e2:	bf00      	nop

080024e4 <SVC_Handler>:
 80024e4:	4770      	bx	lr
 80024e6:	bf00      	nop

080024e8 <DebugMon_Handler>:
 80024e8:	4770      	bx	lr
 80024ea:	bf00      	nop

080024ec <PendSV_Handler>:
 80024ec:	4770      	bx	lr
 80024ee:	bf00      	nop

080024f0 <SysTick_Handler>:
  * @param  None
  * @retval None
  */
void SysTick_Handler(void)
{
  HAL_IncTick();
 80024f0:	f001 bc94 	b.w	8003e1c <HAL_IncTick>

080024f4 <LTDC_IRQHandler>:
  * @param  None
  * @retval None
  */
void LTDC_IRQHandler(void)
{
  HAL_LTDC_IRQHandler(&hlcd_ltdc);
 80024f4:	4801      	ldr	r0, [pc, #4]	; (80024fc <LTDC_IRQHandler+0x8>)
 80024f6:	f002 bcf7 	b.w	8004ee8 <HAL_LTDC_IRQHandler>
 80024fa:	bf00      	nop
 80024fc:	24010a40 	.word	0x24010a40

08002500 <LTDC_ER_IRQHandler>:
 8002500:	f7ff bff8 	b.w	80024f4 <LTDC_IRQHandler>

08002504 <DSI_IRQHandler>:
  * @param  None
  * @retval None
  */
void DSI_IRQHandler(void)
{
  HAL_DSI_IRQHandler(&hlcd_dsi);
 8002504:	4801      	ldr	r0, [pc, #4]	; (800250c <DSI_IRQHandler+0x8>)
 8002506:	f001 bfb5 	b.w	8004474 <HAL_DSI_IRQHandler>
 800250a:	bf00      	nop
 800250c:	24010b04 	.word	0x24010b04

08002510 <_sbrk>:
 *
 * @param incr Memory size
 * @return Pointer to allocated memory
 */
void *_sbrk(ptrdiff_t incr)
{
 8002510:	b510      	push	{r4, lr}
  const uint32_t stack_limit = (uint32_t)&_estack - (uint32_t)&_Min_Stack_Size;
  const uint8_t *max_heap = (uint8_t *)stack_limit;
  uint8_t *prev_heap_end;

  /* Initialize heap end at first call */
  if (NULL == __sbrk_heap_end)
 8002512:	4c0d      	ldr	r4, [pc, #52]	; (8002548 <_sbrk+0x38>)
{
 8002514:	4603      	mov	r3, r0
  const uint32_t stack_limit = (uint32_t)&_estack - (uint32_t)&_Min_Stack_Size;
 8002516:	490d      	ldr	r1, [pc, #52]	; (800254c <_sbrk+0x3c>)
 8002518:	480d      	ldr	r0, [pc, #52]	; (8002550 <_sbrk+0x40>)
  if (NULL == __sbrk_heap_end)
 800251a:	6822      	ldr	r2, [r4, #0]
  const uint32_t stack_limit = (uint32_t)&_estack - (uint32_t)&_Min_Stack_Size;
 800251c:	1a09      	subs	r1, r1, r0
  if (NULL == __sbrk_heap_end)
 800251e:	b12a      	cbz	r2, 800252c <_sbrk+0x1c>
  {
    __sbrk_heap_end = &_end;
  }

  /* Protect heap from growing into the reserved MSP stack */
  if (__sbrk_heap_end + incr > max_heap)
 8002520:	4413      	add	r3, r2
 8002522:	428b      	cmp	r3, r1
 8002524:	d808      	bhi.n	8002538 <_sbrk+0x28>

  prev_heap_end = __sbrk_heap_end;
  __sbrk_heap_end += incr;

  return (void *)prev_heap_end;
}
 8002526:	4610      	mov	r0, r2
  __sbrk_heap_end += incr;
 8002528:	6023      	str	r3, [r4, #0]
}
 800252a:	bd10      	pop	{r4, pc}
    __sbrk_heap_end = &_end;
 800252c:	4809      	ldr	r0, [pc, #36]	; (8002554 <_sbrk+0x44>)
 800252e:	4602      	mov	r2, r0
 8002530:	6020      	str	r0, [r4, #0]
  if (__sbrk_heap_end + incr > max_heap)
 8002532:	4413      	add	r3, r2
 8002534:	428b      	cmp	r3, r1
 8002536:	d9f6      	bls.n	8002526 <_sbrk+0x16>
    errno = ENOMEM;
 8002538:	f004 fc5c 	bl	8006df4 <__errno>
 800253c:	230c      	movs	r3, #12
    return (void *)-1;
 800253e:	f04f 32ff 	mov.w	r2, #4294967295
    errno = ENOMEM;
 8002542:	6003      	str	r3, [r0, #0]
}
 8002544:	4610      	mov	r0, r2
 8002546:	bd10      	pop	{r4, pc}
 8002548:	240008e8 	.word	0x240008e8
 800254c:	24040000 	.word	0x24040000
 8002550:	00000400 	.word	0x00000400
 8002554:	24010bd0 	.word	0x24010bd0

08002558 <Reset_Handler>:

    .section  .text.Reset_Handler
  .weak  Reset_Handler
  .type  Reset_Handler, %function
Reset_Handler:
  ldr   sp, =_estack      /* set stack pointer */
 8002558:	f8df d034 	ldr.w	sp, [pc, #52]	; 8002590 <LoopFillZerobss+0xe>

/* Call the clock system initialization function.*/
  bl  SystemInit
 800255c:	f7fd ff10 	bl	8000380 <SystemInit>

/* Copy the data segment initializers from flash to SRAM */
  ldr r0, =_sdata
 8002560:	480c      	ldr	r0, [pc, #48]	; (8002594 <LoopFillZerobss+0x12>)
  ldr r1, =_edata
 8002562:	490d      	ldr	r1, [pc, #52]	; (8002598 <LoopFillZerobss+0x16>)
  ldr r2, =_sidata
 8002564:	4a0d      	ldr	r2, [pc, #52]	; (800259c <LoopFillZerobss+0x1a>)
  movs r3, #0
 8002566:	2300      	movs	r3, #0
  b LoopCopyDataInit
 8002568:	e002      	b.n	8002570 <LoopCopyDataInit>

0800256a <CopyDataInit>:

CopyDataInit:
  ldr r4, [r2, r3]
 800256a:	58d4      	ldr	r4, [r2, r3]
  str r4, [r0, r3]
 800256c:	50c4      	str	r4, [r0, r3]
  adds r3, r3, #4
 800256e:	3304      	adds	r3, #4

08002570 <LoopCopyDataInit>:

LoopCopyDataInit:
  adds r4, r0, r3
 8002570:	18c4      	adds	r4, r0, r3
  cmp r4, r1
 8002572:	428c      	cmp	r4, r1
  bcc CopyDataInit
 8002574:	d3f9      	bcc.n	800256a <CopyDataInit>
/* Zero fill the bss segment. */
  ldr r2, =_sbss
 8002576:	4a0a      	ldr	r2, [pc, #40]	; (80025a0 <LoopFillZerobss+0x1e>)
  ldr r4, =_ebss
 8002578:	4c0a      	ldr	r4, [pc, #40]	; (80025a4 <LoopFillZerobss+0x22>)
  movs r3, #0
 800257a:	2300      	movs	r3, #0
  b LoopFillZerobss
 800257c:	e001      	b.n	8002582 <LoopFillZerobss>

0800257e <FillZerobss>:

FillZerobss:
  str  r3, [r2]
 800257e:	6013      	str	r3, [r2, #0]
  adds r2, r2, #4
 8002580:	3204      	adds	r2, #4

08002582 <LoopFillZerobss>:

LoopFillZerobss:
  cmp r2, r4
 8002582:	42a2      	cmp	r2, r4
  bcc FillZerobss
 8002584:	d3fb      	bcc.n	800257e <FillZerobss>

/* Call static constructors */
    bl __libc_init_array
 8002586:	f004 fc3b 	bl	8006e00 <__libc_init_array>
/* Call the application's entry point.*/
  bl  main
 800258a:	f7ff fe73 	bl	8002274 <main>
  bx  lr
 800258e:	4770      	bx	lr
  ldr   sp, =_estack      /* set stack pointer */
 8002590:	24040000 	.word	0x24040000
  ldr r0, =_sdata
 8002594:	24000000 	.word	0x24000000
  ldr r1, =_edata
 8002598:	240008c8 	.word	0x240008c8
  ldr r2, =_sidata
 800259c:	080094e0 	.word	0x080094e0
  ldr r2, =_sbss
 80025a0:	240008c8 	.word	0x240008c8
  ldr r4, =_ebss
 80025a4:	24010bd0 	.word	0x24010bd0

080025a8 <ADC3_IRQHandler>:
 * @retval None
*/
    .section  .text.Default_Handler,"ax",%progbits
Default_Handler:
Infinite_Loop:
  b  Infinite_Loop
 80025a8:	e7fe      	b.n	80025a8 <ADC3_IRQHandler>
	...

080025ac <IS42S32800J_ModeRegConfig>:
  * @param  Ctx Component object pointer
  * @param  pRegMode : Pointer to Register Mode structure
  * @retval error status
  */
int32_t IS42S32800J_ModeRegConfig(SDRAM_HandleTypeDef *Ctx, IS42S32800J_Context_t *pRegMode) 
{
 80025ac:	b5f8      	push	{r3, r4, r5, r6, r7, lr}
                     pRegMode->BurstType     |\
                     pRegMode->CASLatency    |\
                     pRegMode->OperationMode |\
                     pRegMode->WriteBurstMode;
  
  Command.CommandMode            = IS42S32800J_LOAD_MODE_CMD;
 80025ae:	4c0e      	ldr	r4, [pc, #56]	; (80025e8 <IS42S32800J_ModeRegConfig+0x3c>)
 80025b0:	2304      	movs	r3, #4
{
 80025b2:	460a      	mov	r2, r1
  Command.CommandTarget          = pRegMode->TargetBank;
  Command.AutoRefreshNumber      = 1;
 80025b4:	2601      	movs	r6, #1
  Command.CommandMode            = IS42S32800J_LOAD_MODE_CMD;
 80025b6:	6023      	str	r3, [r4, #0]
  tmpmrd = (uint32_t)pRegMode->BurstLength   |\
 80025b8:	69d7      	ldr	r7, [r2, #28]
 80025ba:	e9d1 3503 	ldrd	r3, r5, [r1, #12]
  Command.ModeRegisterDefinition = tmpmrd;
  
  /* Send the command */
  if(HAL_SDRAM_SendCommand(Ctx, &Command, IS42S32800J_TIMEOUT) != HAL_OK)
 80025be:	4621      	mov	r1, r4
  tmpmrd = (uint32_t)pRegMode->BurstLength   |\
 80025c0:	432b      	orrs	r3, r5
                     pRegMode->BurstType     |\
 80025c2:	6955      	ldr	r5, [r2, #20]
 80025c4:	432b      	orrs	r3, r5
                     pRegMode->CASLatency    |\
 80025c6:	6995      	ldr	r5, [r2, #24]
 80025c8:	432b      	orrs	r3, r5
  Command.CommandTarget          = pRegMode->TargetBank;
 80025ca:	6815      	ldr	r5, [r2, #0]
  if(HAL_SDRAM_SendCommand(Ctx, &Command, IS42S32800J_TIMEOUT) != HAL_OK)
 80025cc:	f64f 72ff 	movw	r2, #65535	; 0xffff
  Command.AutoRefreshNumber      = 1;
 80025d0:	60a6      	str	r6, [r4, #8]
  tmpmrd = (uint32_t)pRegMode->BurstLength   |\
 80025d2:	433b      	orrs	r3, r7
  Command.CommandTarget          = pRegMode->TargetBank;
 80025d4:	6065      	str	r5, [r4, #4]
  Command.ModeRegisterDefinition = tmpmrd;
 80025d6:	60e3      	str	r3, [r4, #12]
  if(HAL_SDRAM_SendCommand(Ctx, &Command, IS42S32800J_TIMEOUT) != HAL_OK)
 80025d8:	f004 f98c 	bl	80068f4 <HAL_SDRAM_SendCommand>
 80025dc:	3800      	subs	r0, #0
 80025de:	bf18      	it	ne
 80025e0:	2001      	movne	r0, #1
  }
  else
  {
    return IS42S32800J_OK;
  }
}
 80025e2:	4240      	negs	r0, r0
 80025e4:	bdf8      	pop	{r3, r4, r5, r6, r7, pc}
 80025e6:	bf00      	nop
 80025e8:	240008ec 	.word	0x240008ec

080025ec <IS42S32800J_Init>:
  if(IS42S32800J_ClockEnable(Ctx, pRegMode->TargetBank) == IS42S32800J_OK)
 80025ec:	680a      	ldr	r2, [r1, #0]
{
 80025ee:	b5f8      	push	{r3, r4, r5, r6, r7, lr}
  Command.CommandMode            = IS42S32800J_CLK_ENABLE_CMD;
 80025f0:	4c22      	ldr	r4, [pc, #136]	; (800267c <IS42S32800J_Init+0x90>)
 80025f2:	2301      	movs	r3, #1
  Command.ModeRegisterDefinition = 0;
 80025f4:	2700      	movs	r7, #0
{
 80025f6:	460d      	mov	r5, r1
  Command.CommandTarget          = Interface;
 80025f8:	6062      	str	r2, [r4, #4]
  if(HAL_SDRAM_SendCommand(Ctx, &Command, IS42S32800J_TIMEOUT) != HAL_OK)
 80025fa:	4621      	mov	r1, r4
 80025fc:	f64f 72ff 	movw	r2, #65535	; 0xffff
{
 8002600:	4606      	mov	r6, r0
  Command.ModeRegisterDefinition = 0;
 8002602:	60e7      	str	r7, [r4, #12]
  Command.CommandMode            = IS42S32800J_CLK_ENABLE_CMD;
 8002604:	6023      	str	r3, [r4, #0]
  Command.AutoRefreshNumber      = 1;
 8002606:	60a3      	str	r3, [r4, #8]
  if(HAL_SDRAM_SendCommand(Ctx, &Command, IS42S32800J_TIMEOUT) != HAL_OK)
 8002608:	f004 f974 	bl	80068f4 <HAL_SDRAM_SendCommand>
 800260c:	2800      	cmp	r0, #0
 800260e:	d132      	bne.n	8002676 <IS42S32800J_Init+0x8a>
  * @retval IS42S32800J_OK
  */
static int32_t IS42S32800J_Delay(uint32_t Delay)
{  
  uint32_t tickstart;
  tickstart = HAL_GetTick();
 8002610:	f001 fc10 	bl	8003e34 <HAL_GetTick>
 8002614:	4607      	mov	r7, r0
  while((HAL_GetTick() - tickstart) < Delay)
 8002616:	f001 fc0d 	bl	8003e34 <HAL_GetTick>
 800261a:	4287      	cmp	r7, r0
 800261c:	d0fb      	beq.n	8002616 <IS42S32800J_Init+0x2a>
    if(IS42S32800J_Precharge(Ctx, pRegMode->TargetBank) == IS42S32800J_OK)
 800261e:	682a      	ldr	r2, [r5, #0]
  Command.CommandMode            = IS42S32800J_PALL_CMD;
 8002620:	2002      	movs	r0, #2
  Command.AutoRefreshNumber      = 1;
 8002622:	2101      	movs	r1, #1
  Command.ModeRegisterDefinition = 0;
 8002624:	2300      	movs	r3, #0
  Command.CommandTarget          = Interface;
 8002626:	6062      	str	r2, [r4, #4]
  if(HAL_SDRAM_SendCommand(Ctx, &Command, IS42S32800J_TIMEOUT) != HAL_OK)
 8002628:	f64f 72ff 	movw	r2, #65535	; 0xffff
  Command.CommandMode            = IS42S32800J_PALL_CMD;
 800262c:	6020      	str	r0, [r4, #0]
  if(HAL_SDRAM_SendCommand(Ctx, &Command, IS42S32800J_TIMEOUT) != HAL_OK)
 800262e:	4630      	mov	r0, r6
  Command.AutoRefreshNumber      = 1;
 8002630:	60a1      	str	r1, [r4, #8]
  if(HAL_SDRAM_SendCommand(Ctx, &Command, IS42S32800J_TIMEOUT) != HAL_OK)
 8002632:	4912      	ldr	r1, [pc, #72]	; (800267c <IS42S32800J_Init+0x90>)
  Command.ModeRegisterDefinition = 0;
 8002634:	60e3      	str	r3, [r4, #12]
  if(HAL_SDRAM_SendCommand(Ctx, &Command, IS42S32800J_TIMEOUT) != HAL_OK)
 8002636:	f004 f95d 	bl	80068f4 <HAL_SDRAM_SendCommand>
 800263a:	4603      	mov	r3, r0
 800263c:	b9d8      	cbnz	r0, 8002676 <IS42S32800J_Init+0x8a>
      if(IS42S32800J_RefreshMode(Ctx, pRegMode->TargetBank, pRegMode->RefreshMode) == IS42S32800J_OK)
 800263e:	6828      	ldr	r0, [r5, #0]
  Command.AutoRefreshNumber      = 8;
 8002640:	2708      	movs	r7, #8
  Command.CommandMode            = RefreshMode;
 8002642:	6869      	ldr	r1, [r5, #4]
  if(HAL_SDRAM_SendCommand(Ctx, &Command, IS42S32800J_TIMEOUT) != HAL_OK)
 8002644:	f64f 72ff 	movw	r2, #65535	; 0xffff
  Command.CommandTarget          = Interface;
 8002648:	6060      	str	r0, [r4, #4]
  if(HAL_SDRAM_SendCommand(Ctx, &Command, IS42S32800J_TIMEOUT) != HAL_OK)
 800264a:	4630      	mov	r0, r6
  Command.CommandMode            = RefreshMode;
 800264c:	6021      	str	r1, [r4, #0]
  if(HAL_SDRAM_SendCommand(Ctx, &Command, IS42S32800J_TIMEOUT) != HAL_OK)
 800264e:	490b      	ldr	r1, [pc, #44]	; (800267c <IS42S32800J_Init+0x90>)
  Command.ModeRegisterDefinition = 0;
 8002650:	60e3      	str	r3, [r4, #12]
  Command.AutoRefreshNumber      = 8;
 8002652:	60a7      	str	r7, [r4, #8]
  if(HAL_SDRAM_SendCommand(Ctx, &Command, IS42S32800J_TIMEOUT) != HAL_OK)
 8002654:	f004 f94e 	bl	80068f4 <HAL_SDRAM_SendCommand>
 8002658:	b968      	cbnz	r0, 8002676 <IS42S32800J_Init+0x8a>
        if(IS42S32800J_ModeRegConfig(Ctx, pRegMode) == IS42S32800J_OK)
 800265a:	4629      	mov	r1, r5
 800265c:	4630      	mov	r0, r6
 800265e:	f7ff ffa5 	bl	80025ac <IS42S32800J_ModeRegConfig>
 8002662:	b940      	cbnz	r0, 8002676 <IS42S32800J_Init+0x8a>
  if(HAL_SDRAM_ProgramRefreshRate(Ctx, RefreshCount) != HAL_OK)
 8002664:	68a9      	ldr	r1, [r5, #8]
 8002666:	4630      	mov	r0, r6
 8002668:	f004 f964 	bl	8006934 <HAL_SDRAM_ProgramRefreshRate>
 800266c:	3800      	subs	r0, #0
 800266e:	bf18      	it	ne
 8002670:	2001      	movne	r0, #1
 8002672:	4240      	negs	r0, r0
}
 8002674:	bdf8      	pop	{r3, r4, r5, r6, r7, pc}
  int32_t ret = IS42S32800J_ERROR;
 8002676:	f04f 30ff 	mov.w	r0, #4294967295
}
 800267a:	bdf8      	pop	{r3, r4, r5, r6, r7, pc}
 800267c:	240008ec 	.word	0x240008ec

08002680 <OTM8009A_DeInit>:
  * @retval Component status
  */
int32_t OTM8009A_DeInit(OTM8009A_Object_t *pObj)
{
  return OTM8009A_ERROR;
}
 8002680:	f04f 30ff 	mov.w	r0, #4294967295
 8002684:	4770      	bx	lr
 8002686:	bf00      	nop

08002688 <OTM8009A_GetBrightness>:
  * @param  Brightness   display brightness to be returned
  * @retval Component status
  */
int32_t OTM8009A_GetBrightness(OTM8009A_Object_t *pObj, uint32_t *Brightness)
{
  *Brightness = OTM8009ACtx.Brightness;
 8002688:	4b02      	ldr	r3, [pc, #8]	; (8002694 <OTM8009A_GetBrightness+0xc>)
  return OTM8009A_OK;  
}
 800268a:	2000      	movs	r0, #0
  *Brightness = OTM8009ACtx.Brightness;
 800268c:	689b      	ldr	r3, [r3, #8]
 800268e:	600b      	str	r3, [r1, #0]
}
 8002690:	4770      	bx	lr
 8002692:	bf00      	nop
 8002694:	240008fc 	.word	0x240008fc

08002698 <OTM8009A_GetOrientation>:
int32_t OTM8009A_GetOrientation(OTM8009A_Object_t *pObj, uint32_t *Orientation)
{
  /* Prevent unused argument(s) compilation warning */  
  (void)(pObj);
  
  *Orientation = OTM8009ACtx.Orientation;
 8002698:	4b02      	ldr	r3, [pc, #8]	; (80026a4 <OTM8009A_GetOrientation+0xc>)
  
  return OTM8009A_OK;
}
 800269a:	2000      	movs	r0, #0
  *Orientation = OTM8009ACtx.Orientation;
 800269c:	681b      	ldr	r3, [r3, #0]
 800269e:	600b      	str	r3, [r1, #0]
}
 80026a0:	4770      	bx	lr
 80026a2:	bf00      	nop
 80026a4:	240008fc 	.word	0x240008fc

080026a8 <OTM8009A_GetXSize>:
int32_t OTM8009A_GetXSize(OTM8009A_Object_t *pObj, uint32_t *Xsize)
{
  /* Prevent unused argument(s) compilation warning */  
  (void)(pObj);
  
  switch(OTM8009ACtx.Orientation)
 80026a8:	4b06      	ldr	r3, [pc, #24]	; (80026c4 <OTM8009A_GetXSize+0x1c>)
 80026aa:	681b      	ldr	r3, [r3, #0]
 80026ac:	b123      	cbz	r3, 80026b8 <OTM8009A_GetXSize+0x10>
  {
  case OTM8009A_ORIENTATION_PORTRAIT:
    *Xsize = OTM8009A_480X800_WIDTH;
    break;
  case OTM8009A_ORIENTATION_LANDSCAPE:
    *Xsize = OTM8009A_800X480_WIDTH;
 80026ae:	f44f 7348 	mov.w	r3, #800	; 0x320
    *Xsize = OTM8009A_800X480_WIDTH;
    break;
  }
  
  return OTM8009A_OK;
}
 80026b2:	2000      	movs	r0, #0
    *Xsize = OTM8009A_800X480_WIDTH;
 80026b4:	600b      	str	r3, [r1, #0]
}
 80026b6:	4770      	bx	lr
    *Xsize = OTM8009A_480X800_WIDTH;
 80026b8:	f44f 73f0 	mov.w	r3, #480	; 0x1e0
}
 80026bc:	2000      	movs	r0, #0
    *Xsize = OTM8009A_480X800_WIDTH;
 80026be:	600b      	str	r3, [r1, #0]
}
 80026c0:	4770      	bx	lr
 80026c2:	bf00      	nop
 80026c4:	240008fc 	.word	0x240008fc

080026c8 <OTM8009A_GetYSize>:
int32_t OTM8009A_GetYSize(OTM8009A_Object_t *pObj, uint32_t *Ysize)
{
  /* Prevent unused argument(s) compilation warning */  
  (void)(pObj);
  
  switch(OTM8009ACtx.Orientation)
 80026c8:	4b06      	ldr	r3, [pc, #24]	; (80026e4 <OTM8009A_GetYSize+0x1c>)
 80026ca:	681b      	ldr	r3, [r3, #0]
 80026cc:	b123      	cbz	r3, 80026d8 <OTM8009A_GetYSize+0x10>
  {
  case OTM8009A_ORIENTATION_PORTRAIT:
    *Ysize = OTM8009A_480X800_HEIGHT;
    break;
  case OTM8009A_ORIENTATION_LANDSCAPE:
    *Ysize = OTM8009A_800X480_HEIGHT;
 80026ce:	f44f 73f0 	mov.w	r3, #480	; 0x1e0
    *Ysize = OTM8009A_800X480_HEIGHT;
    break;
  }
  
  return OTM8009A_OK;
}
 80026d2:	2000      	movs	r0, #0
    *Ysize = OTM8009A_800X480_HEIGHT;
 80026d4:	600b      	str	r3, [r1, #0]
}
 80026d6:	4770      	bx	lr
    *Ysize = OTM8009A_480X800_HEIGHT;
 80026d8:	f44f 7348 	mov.w	r3, #800	; 0x320
}
 80026dc:	2000      	movs	r0, #0
    *Ysize = OTM8009A_480X800_HEIGHT;
 80026de:	600b      	str	r3, [r1, #0]
}
 80026e0:	4770      	bx	lr
 80026e2:	bf00      	nop
 80026e4:	240008fc 	.word	0x240008fc

080026e8 <OTM8009A_SetCursor>:
{
  /* Prevent unused argument(s) compilation warning */  
  (void)(pObj);
  
  return OTM8009A_ERROR;
}
 80026e8:	f04f 30ff 	mov.w	r0, #4294967295
 80026ec:	4770      	bx	lr
 80026ee:	bf00      	nop

080026f0 <OTM8009A_DrawBitmap>:
{
  /* Prevent unused argument(s) compilation warning */  
  (void)(pObj);
  
  return OTM8009A_ERROR;
}
 80026f0:	f04f 30ff 	mov.w	r0, #4294967295
 80026f4:	4770      	bx	lr
 80026f6:	bf00      	nop

080026f8 <OTM8009A_FillRGBRect>:
{
  /* Prevent unused argument(s) compilation warning */  
  (void)(pObj);
  
  return OTM8009A_ERROR;
}
 80026f8:	f04f 30ff 	mov.w	r0, #4294967295
 80026fc:	4770      	bx	lr
 80026fe:	bf00      	nop

08002700 <OTM8009A_DrawHLine>:
{
  /* Prevent unused argument(s) compilation warning */  
  (void)(pObj);
  
  return OTM8009A_ERROR;
}
 8002700:	f04f 30ff 	mov.w	r0, #4294967295
 8002704:	4770      	bx	lr
 8002706:	bf00      	nop

08002708 <OTM8009A_FillRect>:
{
  /* Prevent unused argument(s) compilation warning */  
  (void)(pObj);
  
  return OTM8009A_ERROR;
}
 8002708:	f04f 30ff 	mov.w	r0, #4294967295
 800270c:	4770      	bx	lr
 800270e:	bf00      	nop

08002710 <OTM8009A_SetPixel>:
{
  /* Prevent unused argument(s) compilation warning */  
  (void)(pObj);
  
  return OTM8009A_ERROR;
}
 8002710:	f04f 30ff 	mov.w	r0, #4294967295
 8002714:	4770      	bx	lr
 8002716:	bf00      	nop

08002718 <OTM8009A_ReadRegWrap>:
  * @param  pData  The target register value to be written
  * @param  Length  buffer size to be written
  * @retval error status
  */
static int32_t OTM8009A_ReadRegWrap(void *Handle, uint16_t Reg, uint8_t* pData, uint16_t Length)
{
 8002718:	b410      	push	{r4}
  OTM8009A_Object_t *pObj = (OTM8009A_Object_t *)Handle;

  return pObj->IO.ReadReg(pObj->IO.Address, Reg, pData, Length);
 800271a:	6884      	ldr	r4, [r0, #8]
 800271c:	8800      	ldrh	r0, [r0, #0]
 800271e:	46a4      	mov	ip, r4
}
 8002720:	f85d 4b04 	ldr.w	r4, [sp], #4
  return pObj->IO.ReadReg(pObj->IO.Address, Reg, pData, Length);
 8002724:	4760      	bx	ip
 8002726:	bf00      	nop

08002728 <OTM8009A_WriteRegWrap>:
  * @param  pData  The target register value to be written
  * @param  Length  buffer size to be written
  * @retval error status
  */
static int32_t OTM8009A_WriteRegWrap(void *Handle, uint16_t Reg, uint8_t *pData, uint16_t Length)
{
 8002728:	b410      	push	{r4}
  OTM8009A_Object_t *pObj = (OTM8009A_Object_t *)Handle;

  return pObj->IO.WriteReg(pObj->IO.Address, Reg, pData, Length);
 800272a:	6844      	ldr	r4, [r0, #4]
 800272c:	8800      	ldrh	r0, [r0, #0]
 800272e:	46a4      	mov	ip, r4
}
 8002730:	f85d 4b04 	ldr.w	r4, [sp], #4
  return pObj->IO.WriteReg(pObj->IO.Address, Reg, pData, Length);
 8002734:	4760      	bx	ip
 8002736:	bf00      	nop

08002738 <OTM8009A_Init>:
{
 8002738:	e92d 47f0 	stmdb	sp!, {r4, r5, r6, r7, r8, r9, sl, lr}
  ret = otm8009a_write_reg(&pObj->Ctx, OTM8009A_CMD_NOP, &short_reg_data[1], 0);
 800273c:	2300      	movs	r3, #0
 800273e:	f100 0710 	add.w	r7, r0, #16
{
 8002742:	b082      	sub	sp, #8
 8002744:	4680      	mov	r8, r0
 8002746:	4689      	mov	r9, r1
 8002748:	4692      	mov	sl, r2
  ret = otm8009a_write_reg(&pObj->Ctx, OTM8009A_CMD_NOP, &short_reg_data[1], 0);
 800274a:	4619      	mov	r1, r3
 800274c:	4ae0      	ldr	r2, [pc, #896]	; (8002ad0 <OTM8009A_Init+0x398>)
 800274e:	4638      	mov	r0, r7
 8002750:	f000 fcd6 	bl	8003100 <otm8009a_write_reg>
  ret += otm8009a_write_reg(&pObj->Ctx, 0xFF, lcd_reg_data1, 3);
 8002754:	2303      	movs	r3, #3
  ret = otm8009a_write_reg(&pObj->Ctx, OTM8009A_CMD_NOP, &short_reg_data[1], 0);
 8002756:	4604      	mov	r4, r0
  ret += otm8009a_write_reg(&pObj->Ctx, 0xFF, lcd_reg_data1, 3);
 8002758:	4ade      	ldr	r2, [pc, #888]	; (8002ad4 <OTM8009A_Init+0x39c>)
 800275a:	21ff      	movs	r1, #255	; 0xff
 800275c:	4638      	mov	r0, r7
 800275e:	f000 fccf 	bl	8003100 <otm8009a_write_reg>
  ret += otm8009a_write_reg(&pObj->Ctx, OTM8009A_CMD_NOP, &short_reg_data[2], 0);
 8002762:	2300      	movs	r3, #0
  ret += otm8009a_write_reg(&pObj->Ctx, 0xFF, lcd_reg_data1, 3);
 8002764:	4605      	mov	r5, r0
  ret += otm8009a_write_reg(&pObj->Ctx, OTM8009A_CMD_NOP, &short_reg_data[2], 0);
 8002766:	4adc      	ldr	r2, [pc, #880]	; (8002ad8 <OTM8009A_Init+0x3a0>)
 8002768:	4619      	mov	r1, r3
 800276a:	4638      	mov	r0, r7
 800276c:	f000 fcc8 	bl	8003100 <otm8009a_write_reg>
  ret += otm8009a_write_reg(&pObj->Ctx, 0xFF, lcd_reg_data1, 3);
 8002770:	4425      	add	r5, r4
  ret += otm8009a_write_reg(&pObj->Ctx, 0xFF, lcd_reg_data2, 2);
 8002772:	2302      	movs	r3, #2
  ret += otm8009a_write_reg(&pObj->Ctx, OTM8009A_CMD_NOP, &short_reg_data[2], 0);
 8002774:	4604      	mov	r4, r0
  ret += otm8009a_write_reg(&pObj->Ctx, 0xFF, lcd_reg_data2, 2);
 8002776:	4ad9      	ldr	r2, [pc, #868]	; (8002adc <OTM8009A_Init+0x3a4>)
 8002778:	21ff      	movs	r1, #255	; 0xff
 800277a:	4638      	mov	r0, r7
  ret += otm8009a_write_reg(&pObj->Ctx, OTM8009A_CMD_NOP, &short_reg_data[2], 0);
 800277c:	442c      	add	r4, r5
  ret += otm8009a_write_reg(&pObj->Ctx, 0xFF, lcd_reg_data2, 2);
 800277e:	f000 fcbf 	bl	8003100 <otm8009a_write_reg>
  ret += otm8009a_write_reg(&pObj->Ctx, OTM8009A_CMD_NOP, &short_reg_data[2], 0);
 8002782:	2300      	movs	r3, #0
  ret += otm8009a_write_reg(&pObj->Ctx, 0xFF, lcd_reg_data2, 2);
 8002784:	4606      	mov	r6, r0
  ret += otm8009a_write_reg(&pObj->Ctx, OTM8009A_CMD_NOP, &short_reg_data[2], 0);
 8002786:	4ad4      	ldr	r2, [pc, #848]	; (8002ad8 <OTM8009A_Init+0x3a0>)
 8002788:	4619      	mov	r1, r3
 800278a:	4638      	mov	r0, r7
 800278c:	f000 fcb8 	bl	8003100 <otm8009a_write_reg>
  ret += otm8009a_write_reg(&pObj->Ctx, 0xFF, lcd_reg_data2, 2);
 8002790:	4434      	add	r4, r6
  ret += otm8009a_write_reg(&pObj->Ctx, OTM8009A_CMD_NOP, &short_reg_data[2], 0);
 8002792:	4606      	mov	r6, r0
  ret += otm8009a_write_reg(&pObj->Ctx, 0xC4, &short_reg_data[3], 0);
 8002794:	2300      	movs	r3, #0
 8002796:	4ad2      	ldr	r2, [pc, #840]	; (8002ae0 <OTM8009A_Init+0x3a8>)
 8002798:	21c4      	movs	r1, #196	; 0xc4
  ret += otm8009a_write_reg(&pObj->Ctx, OTM8009A_CMD_NOP, &short_reg_data[2], 0);
 800279a:	4426      	add	r6, r4
  ret += otm8009a_write_reg(&pObj->Ctx, 0xC4, &short_reg_data[3], 0);
 800279c:	4638      	mov	r0, r7
 800279e:	f000 fcaf 	bl	8003100 <otm8009a_write_reg>
  * @param  Delay  Delay in ms
  */
static int32_t OTM8009A_IO_Delay(OTM8009A_Object_t *pObj, uint32_t Delay)
{
  uint32_t tickstart;
  tickstart = pObj->IO.GetTick();
 80027a2:	f8d8 300c 	ldr.w	r3, [r8, #12]
  ret += otm8009a_write_reg(&pObj->Ctx, 0xC4, &short_reg_data[3], 0);
 80027a6:	4406      	add	r6, r0
  tickstart = pObj->IO.GetTick();
 80027a8:	4798      	blx	r3
 80027aa:	4604      	mov	r4, r0
  while((pObj->IO.GetTick() - tickstart) < Delay)
 80027ac:	f8d8 300c 	ldr.w	r3, [r8, #12]
 80027b0:	4798      	blx	r3
 80027b2:	1b00      	subs	r0, r0, r4
 80027b4:	2809      	cmp	r0, #9
 80027b6:	d9f9      	bls.n	80027ac <OTM8009A_Init+0x74>
  ret += otm8009a_write_reg(&pObj->Ctx, OTM8009A_CMD_NOP, &short_reg_data[4], 0);
 80027b8:	2300      	movs	r3, #0
 80027ba:	4aca      	ldr	r2, [pc, #808]	; (8002ae4 <OTM8009A_Init+0x3ac>)
 80027bc:	4638      	mov	r0, r7
 80027be:	4619      	mov	r1, r3
 80027c0:	f000 fc9e 	bl	8003100 <otm8009a_write_reg>
 80027c4:	4604      	mov	r4, r0
  ret += otm8009a_write_reg(&pObj->Ctx, 0xC4, &short_reg_data[5], 0);
 80027c6:	2300      	movs	r3, #0
 80027c8:	4ac7      	ldr	r2, [pc, #796]	; (8002ae8 <OTM8009A_Init+0x3b0>)
 80027ca:	21c4      	movs	r1, #196	; 0xc4
 80027cc:	4638      	mov	r0, r7
  ret += otm8009a_write_reg(&pObj->Ctx, OTM8009A_CMD_NOP, &short_reg_data[4], 0);
 80027ce:	4434      	add	r4, r6
  ret += otm8009a_write_reg(&pObj->Ctx, 0xC4, &short_reg_data[5], 0);
 80027d0:	f000 fc96 	bl	8003100 <otm8009a_write_reg>
  tickstart = pObj->IO.GetTick();
 80027d4:	f8d8 300c 	ldr.w	r3, [r8, #12]
  ret += otm8009a_write_reg(&pObj->Ctx, 0xC4, &short_reg_data[5], 0);
 80027d8:	4404      	add	r4, r0
  tickstart = pObj->IO.GetTick();
 80027da:	4798      	blx	r3
 80027dc:	4605      	mov	r5, r0
  while((pObj->IO.GetTick() - tickstart) < Delay)
 80027de:	f8d8 300c 	ldr.w	r3, [r8, #12]
 80027e2:	4798      	blx	r3
 80027e4:	1b40      	subs	r0, r0, r5
 80027e6:	2809      	cmp	r0, #9
 80027e8:	d9f9      	bls.n	80027de <OTM8009A_Init+0xa6>
  ret += otm8009a_write_reg(&pObj->Ctx, OTM8009A_CMD_NOP, &short_reg_data[6], 0);
 80027ea:	2300      	movs	r3, #0
 80027ec:	4abf      	ldr	r2, [pc, #764]	; (8002aec <OTM8009A_Init+0x3b4>)
 80027ee:	4638      	mov	r0, r7
 80027f0:	4619      	mov	r1, r3
 80027f2:	f000 fc85 	bl	8003100 <otm8009a_write_reg>
  ret += otm8009a_write_reg(&pObj->Ctx, 0xC5, &short_reg_data[7], 0);
 80027f6:	2300      	movs	r3, #0
  ret += otm8009a_write_reg(&pObj->Ctx, OTM8009A_CMD_NOP, &short_reg_data[6], 0);
 80027f8:	4605      	mov	r5, r0
  ret += otm8009a_write_reg(&pObj->Ctx, 0xC5, &short_reg_data[7], 0);
 80027fa:	4abd      	ldr	r2, [pc, #756]	; (8002af0 <OTM8009A_Init+0x3b8>)
 80027fc:	21c5      	movs	r1, #197	; 0xc5
 80027fe:	4638      	mov	r0, r7
 8002800:	f000 fc7e 	bl	8003100 <otm8009a_write_reg>
  ret += otm8009a_write_reg(&pObj->Ctx, OTM8009A_CMD_NOP, &short_reg_data[8], 0);
 8002804:	2300      	movs	r3, #0
  ret += otm8009a_write_reg(&pObj->Ctx, OTM8009A_CMD_NOP, &short_reg_data[6], 0);
 8002806:	4425      	add	r5, r4
  ret += otm8009a_write_reg(&pObj->Ctx, 0xC5, &short_reg_data[7], 0);
 8002808:	4604      	mov	r4, r0
  ret += otm8009a_write_reg(&pObj->Ctx, OTM8009A_CMD_NOP, &short_reg_data[8], 0);
 800280a:	4619      	mov	r1, r3
 800280c:	4ab9      	ldr	r2, [pc, #740]	; (8002af4 <OTM8009A_Init+0x3bc>)
 800280e:	4638      	mov	r0, r7
  ret += otm8009a_write_reg(&pObj->Ctx, 0xC5, &short_reg_data[7], 0);
 8002810:	442c      	add	r4, r5
  ret += otm8009a_write_reg(&pObj->Ctx, OTM8009A_CMD_NOP, &short_reg_data[8], 0);
 8002812:	f000 fc75 	bl	8003100 <otm8009a_write_reg>
  ret += otm8009a_write_reg(&pObj->Ctx, 0xC5, &short_reg_data[9], 0);
 8002816:	2300      	movs	r3, #0
  ret += otm8009a_write_reg(&pObj->Ctx, OTM8009A_CMD_NOP, &short_reg_data[8], 0);
 8002818:	4606      	mov	r6, r0
  ret += otm8009a_write_reg(&pObj->Ctx, 0xC5, &short_reg_data[9], 0);
 800281a:	4ab7      	ldr	r2, [pc, #732]	; (8002af8 <OTM8009A_Init+0x3c0>)
 800281c:	21c5      	movs	r1, #197	; 0xc5
 800281e:	4638      	mov	r0, r7
 8002820:	f000 fc6e 	bl	8003100 <otm8009a_write_reg>
  ret += otm8009a_write_reg(&pObj->Ctx, OTM8009A_CMD_NOP, &short_reg_data[10], 0);
 8002824:	2300      	movs	r3, #0
  ret += otm8009a_write_reg(&pObj->Ctx, OTM8009A_CMD_NOP, &short_reg_data[8], 0);
 8002826:	4434      	add	r4, r6
  ret += otm8009a_write_reg(&pObj->Ctx, 0xC5, &short_reg_data[9], 0);
 8002828:	4606      	mov	r6, r0
  ret += otm8009a_write_reg(&pObj->Ctx, OTM8009A_CMD_NOP, &short_reg_data[10], 0);
 800282a:	4619      	mov	r1, r3
 800282c:	4ab3      	ldr	r2, [pc, #716]	; (8002afc <OTM8009A_Init+0x3c4>)
 800282e:	4638      	mov	r0, r7
  ret += otm8009a_write_reg(&pObj->Ctx, 0xC5, &short_reg_data[9], 0);
 8002830:	4426      	add	r6, r4
  ret += otm8009a_write_reg(&pObj->Ctx, OTM8009A_CMD_NOP, &short_reg_data[10], 0);
 8002832:	f000 fc65 	bl	8003100 <otm8009a_write_reg>
  ret += otm8009a_write_reg(&pObj->Ctx, 0xC0, &short_reg_data[11], 0);
 8002836:	2300      	movs	r3, #0
  ret += otm8009a_write_reg(&pObj->Ctx, OTM8009A_CMD_NOP, &short_reg_data[10], 0);
 8002838:	4604      	mov	r4, r0
  ret += otm8009a_write_reg(&pObj->Ctx, 0xC0, &short_reg_data[11], 0);
 800283a:	4ab1      	ldr	r2, [pc, #708]	; (8002b00 <OTM8009A_Init+0x3c8>)
 800283c:	21c0      	movs	r1, #192	; 0xc0
 800283e:	4638      	mov	r0, r7
 8002840:	f000 fc5e 	bl	8003100 <otm8009a_write_reg>
  ret += otm8009a_write_reg(&pObj->Ctx, OTM8009A_CMD_NOP, &short_reg_data[1], 0);
 8002844:	2300      	movs	r3, #0
  ret += otm8009a_write_reg(&pObj->Ctx, OTM8009A_CMD_NOP, &short_reg_data[10], 0);
 8002846:	4426      	add	r6, r4
  ret += otm8009a_write_reg(&pObj->Ctx, 0xC0, &short_reg_data[11], 0);
 8002848:	4604      	mov	r4, r0
  ret += otm8009a_write_reg(&pObj->Ctx, OTM8009A_CMD_NOP, &short_reg_data[1], 0);
 800284a:	4619      	mov	r1, r3
 800284c:	4aa0      	ldr	r2, [pc, #640]	; (8002ad0 <OTM8009A_Init+0x398>)
 800284e:	4638      	mov	r0, r7
  ret += otm8009a_write_reg(&pObj->Ctx, 0xC0, &short_reg_data[11], 0);
 8002850:	4434      	add	r4, r6
  ret += otm8009a_write_reg(&pObj->Ctx, OTM8009A_CMD_NOP, &short_reg_data[1], 0);
 8002852:	f000 fc55 	bl	8003100 <otm8009a_write_reg>
  ret += otm8009a_write_reg(&pObj->Ctx, 0xD9, &short_reg_data[12], 0);
 8002856:	2300      	movs	r3, #0
  ret += otm8009a_write_reg(&pObj->Ctx, OTM8009A_CMD_NOP, &short_reg_data[1], 0);
 8002858:	4606      	mov	r6, r0
  ret += otm8009a_write_reg(&pObj->Ctx, 0xD9, &short_reg_data[12], 0);
 800285a:	4aaa      	ldr	r2, [pc, #680]	; (8002b04 <OTM8009A_Init+0x3cc>)
 800285c:	21d9      	movs	r1, #217	; 0xd9
 800285e:	4638      	mov	r0, r7
 8002860:	f000 fc4e 	bl	8003100 <otm8009a_write_reg>
  ret += otm8009a_write_reg(&pObj->Ctx, OTM8009A_CMD_NOP, &short_reg_data[13], 0);
 8002864:	2300      	movs	r3, #0
  ret += otm8009a_write_reg(&pObj->Ctx, OTM8009A_CMD_NOP, &short_reg_data[1], 0);
 8002866:	4434      	add	r4, r6
  ret += otm8009a_write_reg(&pObj->Ctx, 0xD9, &short_reg_data[12], 0);
 8002868:	4606      	mov	r6, r0
  ret += otm8009a_write_reg(&pObj->Ctx, OTM8009A_CMD_NOP, &short_reg_data[13], 0);
 800286a:	4619      	mov	r1, r3
 800286c:	4aa6      	ldr	r2, [pc, #664]	; (8002b08 <OTM8009A_Init+0x3d0>)
 800286e:	4638      	mov	r0, r7
  ret += otm8009a_write_reg(&pObj->Ctx, 0xD9, &short_reg_data[12], 0);
 8002870:	4426      	add	r6, r4
  ret += otm8009a_write_reg(&pObj->Ctx, OTM8009A_CMD_NOP, &short_reg_data[13], 0);
 8002872:	f000 fc45 	bl	8003100 <otm8009a_write_reg>
  ret += otm8009a_write_reg(&pObj->Ctx, 0xC1, &short_reg_data[14], 0);
 8002876:	2300      	movs	r3, #0
  ret += otm8009a_write_reg(&pObj->Ctx, OTM8009A_CMD_NOP, &short_reg_data[13], 0);
 8002878:	4604      	mov	r4, r0
  ret += otm8009a_write_reg(&pObj->Ctx, 0xC1, &short_reg_data[14], 0);
 800287a:	4aa4      	ldr	r2, [pc, #656]	; (8002b0c <OTM8009A_Init+0x3d4>)
 800287c:	21c1      	movs	r1, #193	; 0xc1
 800287e:	4638      	mov	r0, r7
 8002880:	f000 fc3e 	bl	8003100 <otm8009a_write_reg>
  ret += otm8009a_write_reg(&pObj->Ctx, OTM8009A_CMD_NOP, &short_reg_data[15], 0);
 8002884:	2300      	movs	r3, #0
  ret += otm8009a_write_reg(&pObj->Ctx, OTM8009A_CMD_NOP, &short_reg_data[13], 0);
 8002886:	4426      	add	r6, r4
  ret += otm8009a_write_reg(&pObj->Ctx, 0xC1, &short_reg_data[14], 0);
 8002888:	4604      	mov	r4, r0
  ret += otm8009a_write_reg(&pObj->Ctx, OTM8009A_CMD_NOP, &short_reg_data[15], 0);
 800288a:	4619      	mov	r1, r3
 800288c:	4aa0      	ldr	r2, [pc, #640]	; (8002b10 <OTM8009A_Init+0x3d8>)
 800288e:	4638      	mov	r0, r7
  ret += otm8009a_write_reg(&pObj->Ctx, 0xC1, &short_reg_data[14], 0);
 8002890:	4434      	add	r4, r6
  ret += otm8009a_write_reg(&pObj->Ctx, OTM8009A_CMD_NOP, &short_reg_data[15], 0);
 8002892:	f000 fc35 	bl	8003100 <otm8009a_write_reg>
  ret += otm8009a_write_reg(&pObj->Ctx, 0xC1, &short_reg_data[16], 0);
 8002896:	2300      	movs	r3, #0
  ret += otm8009a_write_reg(&pObj->Ctx, OTM8009A_CMD_NOP, &short_reg_data[15], 0);
 8002898:	4606      	mov	r6, r0
  ret += otm8009a_write_reg(&pObj->Ctx, 0xC1, &short_reg_data[16], 0);
 800289a:	4a9e      	ldr	r2, [pc, #632]	; (8002b14 <OTM8009A_Init+0x3dc>)
 800289c:	21c1      	movs	r1, #193	; 0xc1
 800289e:	4638      	mov	r0, r7
 80028a0:	f000 fc2e 	bl	8003100 <otm8009a_write_reg>
  ret += otm8009a_write_reg(&pObj->Ctx, OTM8009A_CMD_NOP, &short_reg_data[17], 0);
 80028a4:	2300      	movs	r3, #0
  ret += otm8009a_write_reg(&pObj->Ctx, OTM8009A_CMD_NOP, &short_reg_data[15], 0);
 80028a6:	4434      	add	r4, r6
  ret += otm8009a_write_reg(&pObj->Ctx, 0xC1, &short_reg_data[16], 0);
 80028a8:	4606      	mov	r6, r0
  ret += otm8009a_write_reg(&pObj->Ctx, OTM8009A_CMD_NOP, &short_reg_data[17], 0);
 80028aa:	4619      	mov	r1, r3
 80028ac:	4a9a      	ldr	r2, [pc, #616]	; (8002b18 <OTM8009A_Init+0x3e0>)
 80028ae:	4638      	mov	r0, r7
  ret += otm8009a_write_reg(&pObj->Ctx, 0xC1, &short_reg_data[16], 0);
 80028b0:	4426      	add	r6, r4
  ret += otm8009a_write_reg(&pObj->Ctx, OTM8009A_CMD_NOP, &short_reg_data[17], 0);
 80028b2:	f000 fc25 	bl	8003100 <otm8009a_write_reg>
  ret += otm8009a_write_reg(&pObj->Ctx, 0xC5, &short_reg_data[18], 0);
 80028b6:	2300      	movs	r3, #0
  ret += otm8009a_write_reg(&pObj->Ctx, OTM8009A_CMD_NOP, &short_reg_data[17], 0);
 80028b8:	4604      	mov	r4, r0
  ret += otm8009a_write_reg(&pObj->Ctx, 0xC5, &short_reg_data[18], 0);
 80028ba:	4a98      	ldr	r2, [pc, #608]	; (8002b1c <OTM8009A_Init+0x3e4>)
 80028bc:	21c5      	movs	r1, #197	; 0xc5
 80028be:	4638      	mov	r0, r7
 80028c0:	f000 fc1e 	bl	8003100 <otm8009a_write_reg>
  ret += otm8009a_write_reg(&pObj->Ctx, OTM8009A_CMD_NOP, &short_reg_data[19], 0);
 80028c4:	2300      	movs	r3, #0
  ret += otm8009a_write_reg(&pObj->Ctx, OTM8009A_CMD_NOP, &short_reg_data[17], 0);
 80028c6:	4426      	add	r6, r4
  ret += otm8009a_write_reg(&pObj->Ctx, 0xC5, &short_reg_data[18], 0);
 80028c8:	4604      	mov	r4, r0
  ret += otm8009a_write_reg(&pObj->Ctx, OTM8009A_CMD_NOP, &short_reg_data[19], 0);
 80028ca:	4619      	mov	r1, r3
 80028cc:	4a94      	ldr	r2, [pc, #592]	; (8002b20 <OTM8009A_Init+0x3e8>)
 80028ce:	4638      	mov	r0, r7
  ret += otm8009a_write_reg(&pObj->Ctx, 0xC5, &short_reg_data[18], 0);
 80028d0:	4434      	add	r4, r6
  ret += otm8009a_write_reg(&pObj->Ctx, OTM8009A_CMD_NOP, &short_reg_data[19], 0);
 80028d2:	f000 fc15 	bl	8003100 <otm8009a_write_reg>
  ret += otm8009a_write_reg(&pObj->Ctx, 0xC5, &short_reg_data[9], 0);
 80028d6:	2300      	movs	r3, #0
  ret += otm8009a_write_reg(&pObj->Ctx, OTM8009A_CMD_NOP, &short_reg_data[19], 0);
 80028d8:	4606      	mov	r6, r0
  ret += otm8009a_write_reg(&pObj->Ctx, 0xC5, &short_reg_data[9], 0);
 80028da:	4a87      	ldr	r2, [pc, #540]	; (8002af8 <OTM8009A_Init+0x3c0>)
 80028dc:	21c5      	movs	r1, #197	; 0xc5
 80028de:	4638      	mov	r0, r7
 80028e0:	f000 fc0e 	bl	8003100 <otm8009a_write_reg>
  ret += otm8009a_write_reg(&pObj->Ctx, OTM8009A_CMD_NOP, &short_reg_data[1], 0);
 80028e4:	2300      	movs	r3, #0
  ret += otm8009a_write_reg(&pObj->Ctx, OTM8009A_CMD_NOP, &short_reg_data[19], 0);
 80028e6:	4434      	add	r4, r6
  ret += otm8009a_write_reg(&pObj->Ctx, 0xC5, &short_reg_data[9], 0);
 80028e8:	4606      	mov	r6, r0
  ret += otm8009a_write_reg(&pObj->Ctx, OTM8009A_CMD_NOP, &short_reg_data[1], 0);
 80028ea:	4619      	mov	r1, r3
 80028ec:	4a78      	ldr	r2, [pc, #480]	; (8002ad0 <OTM8009A_Init+0x398>)
 80028ee:	4638      	mov	r0, r7
  ret += otm8009a_write_reg(&pObj->Ctx, 0xC5, &short_reg_data[9], 0);
 80028f0:	4426      	add	r6, r4
  ret += otm8009a_write_reg(&pObj->Ctx, OTM8009A_CMD_NOP, &short_reg_data[1], 0);
 80028f2:	f000 fc05 	bl	8003100 <otm8009a_write_reg>
  ret += otm8009a_write_reg(&pObj->Ctx, 0xD8, lcd_reg_data5, 2);
 80028f6:	2302      	movs	r3, #2
  ret += otm8009a_write_reg(&pObj->Ctx, OTM8009A_CMD_NOP, &short_reg_data[1], 0);
 80028f8:	4604      	mov	r4, r0
  ret += otm8009a_write_reg(&pObj->Ctx, 0xD8, lcd_reg_data5, 2);
 80028fa:	4a8a      	ldr	r2, [pc, #552]	; (8002b24 <OTM8009A_Init+0x3ec>)
 80028fc:	21d8      	movs	r1, #216	; 0xd8
 80028fe:	4638      	mov	r0, r7
 8002900:	f000 fbfe 	bl	8003100 <otm8009a_write_reg>
  ret += otm8009a_write_reg(&pObj->Ctx, OTM8009A_CMD_NOP, &short_reg_data[20], 0);
 8002904:	2300      	movs	r3, #0
  ret += otm8009a_write_reg(&pObj->Ctx, OTM8009A_CMD_NOP, &short_reg_data[1], 0);
 8002906:	4426      	add	r6, r4
  ret += otm8009a_write_reg(&pObj->Ctx, 0xD8, lcd_reg_data5, 2);
 8002908:	4604      	mov	r4, r0
  ret += otm8009a_write_reg(&pObj->Ctx, OTM8009A_CMD_NOP, &short_reg_data[20], 0);
 800290a:	4619      	mov	r1, r3
 800290c:	4a86      	ldr	r2, [pc, #536]	; (8002b28 <OTM8009A_Init+0x3f0>)
 800290e:	4638      	mov	r0, r7
  ret += otm8009a_write_reg(&pObj->Ctx, 0xD8, lcd_reg_data5, 2);
 8002910:	4434      	add	r4, r6
  ret += otm8009a_write_reg(&pObj->Ctx, OTM8009A_CMD_NOP, &short_reg_data[20], 0);
 8002912:	f000 fbf5 	bl	8003100 <otm8009a_write_reg>
  ret += otm8009a_write_reg(&pObj->Ctx, 0xC5, &short_reg_data[21], 0);
 8002916:	2300      	movs	r3, #0
  ret += otm8009a_write_reg(&pObj->Ctx, OTM8009A_CMD_NOP, &short_reg_data[20], 0);
 8002918:	4606      	mov	r6, r0
  ret += otm8009a_write_reg(&pObj->Ctx, 0xC5, &short_reg_data[21], 0);
 800291a:	4a84      	ldr	r2, [pc, #528]	; (8002b2c <OTM8009A_Init+0x3f4>)
 800291c:	21c5      	movs	r1, #197	; 0xc5
 800291e:	4638      	mov	r0, r7
 8002920:	f000 fbee 	bl	8003100 <otm8009a_write_reg>
  ret += otm8009a_write_reg(&pObj->Ctx, OTM8009A_CMD_NOP, &short_reg_data[22], 0);
 8002924:	2300      	movs	r3, #0
  ret += otm8009a_write_reg(&pObj->Ctx, OTM8009A_CMD_NOP, &short_reg_data[20], 0);
 8002926:	4434      	add	r4, r6
  ret += otm8009a_write_reg(&pObj->Ctx, 0xC5, &short_reg_data[21], 0);
 8002928:	4606      	mov	r6, r0
  ret += otm8009a_write_reg(&pObj->Ctx, OTM8009A_CMD_NOP, &short_reg_data[22], 0);
 800292a:	4619      	mov	r1, r3
 800292c:	4a80      	ldr	r2, [pc, #512]	; (8002b30 <OTM8009A_Init+0x3f8>)
 800292e:	4638      	mov	r0, r7
  ret += otm8009a_write_reg(&pObj->Ctx, 0xC5, &short_reg_data[21], 0);
 8002930:	4426      	add	r6, r4
  ret += otm8009a_write_reg(&pObj->Ctx, OTM8009A_CMD_NOP, &short_reg_data[22], 0);
 8002932:	f000 fbe5 	bl	8003100 <otm8009a_write_reg>
  ret += otm8009a_write_reg(&pObj->Ctx, 0xC0, &short_reg_data[23], 0);
 8002936:	2300      	movs	r3, #0
  ret += otm8009a_write_reg(&pObj->Ctx, OTM8009A_CMD_NOP, &short_reg_data[22], 0);
 8002938:	4604      	mov	r4, r0
  ret += otm8009a_write_reg(&pObj->Ctx, 0xC0, &short_reg_data[23], 0);
 800293a:	4a7e      	ldr	r2, [pc, #504]	; (8002b34 <OTM8009A_Init+0x3fc>)
 800293c:	21c0      	movs	r1, #192	; 0xc0
 800293e:	4638      	mov	r0, r7
 8002940:	f000 fbde 	bl	8003100 <otm8009a_write_reg>
  ret += otm8009a_write_reg(&pObj->Ctx, OTM8009A_CMD_NOP, &short_reg_data[24], 0);
 8002944:	2300      	movs	r3, #0
  ret += otm8009a_write_reg(&pObj->Ctx, OTM8009A_CMD_NOP, &short_reg_data[22], 0);
 8002946:	4426      	add	r6, r4
  ret += otm8009a_write_reg(&pObj->Ctx, 0xC0, &short_reg_data[23], 0);
 8002948:	4604      	mov	r4, r0
  ret += otm8009a_write_reg(&pObj->Ctx, OTM8009A_CMD_NOP, &short_reg_data[24], 0);
 800294a:	4619      	mov	r1, r3
 800294c:	4a7a      	ldr	r2, [pc, #488]	; (8002b38 <OTM8009A_Init+0x400>)
 800294e:	4638      	mov	r0, r7
  ret += otm8009a_write_reg(&pObj->Ctx, 0xC0, &short_reg_data[23], 0);
 8002950:	4434      	add	r4, r6
  ret += otm8009a_write_reg(&pObj->Ctx, OTM8009A_CMD_NOP, &short_reg_data[24], 0);
 8002952:	f000 fbd5 	bl	8003100 <otm8009a_write_reg>
  ret += otm8009a_write_reg(&pObj->Ctx, 0xC5, &short_reg_data[25], 0);
 8002956:	2300      	movs	r3, #0
  ret += otm8009a_write_reg(&pObj->Ctx, OTM8009A_CMD_NOP, &short_reg_data[24], 0);
 8002958:	4606      	mov	r6, r0
  ret += otm8009a_write_reg(&pObj->Ctx, 0xC5, &short_reg_data[25], 0);
 800295a:	4a78      	ldr	r2, [pc, #480]	; (8002b3c <OTM8009A_Init+0x404>)
 800295c:	21c5      	movs	r1, #197	; 0xc5
 800295e:	4638      	mov	r0, r7
 8002960:	f000 fbce 	bl	8003100 <otm8009a_write_reg>
  ret += otm8009a_write_reg(&pObj->Ctx, OTM8009A_CMD_NOP, &short_reg_data[13], 0);
 8002964:	2300      	movs	r3, #0
  ret += otm8009a_write_reg(&pObj->Ctx, OTM8009A_CMD_NOP, &short_reg_data[24], 0);
 8002966:	4434      	add	r4, r6
  ret += otm8009a_write_reg(&pObj->Ctx, 0xC5, &short_reg_data[25], 0);
 8002968:	4606      	mov	r6, r0
  ret += otm8009a_write_reg(&pObj->Ctx, OTM8009A_CMD_NOP, &short_reg_data[13], 0);
 800296a:	4619      	mov	r1, r3
 800296c:	4a66      	ldr	r2, [pc, #408]	; (8002b08 <OTM8009A_Init+0x3d0>)
 800296e:	4638      	mov	r0, r7
  ret += otm8009a_write_reg(&pObj->Ctx, 0xC5, &short_reg_data[25], 0);
 8002970:	4426      	add	r6, r4
  ret += otm8009a_write_reg(&pObj->Ctx, OTM8009A_CMD_NOP, &short_reg_data[13], 0);
 8002972:	f000 fbc5 	bl	8003100 <otm8009a_write_reg>
  ret += otm8009a_write_reg(&pObj->Ctx, 0xC4, &short_reg_data[26], 0);
 8002976:	2300      	movs	r3, #0
  ret += otm8009a_write_reg(&pObj->Ctx, OTM8009A_CMD_NOP, &short_reg_data[13], 0);
 8002978:	4604      	mov	r4, r0
  ret += otm8009a_write_reg(&pObj->Ctx, 0xC4, &short_reg_data[26], 0);
 800297a:	4a71      	ldr	r2, [pc, #452]	; (8002b40 <OTM8009A_Init+0x408>)
 800297c:	21c4      	movs	r1, #196	; 0xc4
 800297e:	4638      	mov	r0, r7
 8002980:	f000 fbbe 	bl	8003100 <otm8009a_write_reg>
  ret += otm8009a_write_reg(&pObj->Ctx, OTM8009A_CMD_NOP, &short_reg_data[15], 0);
 8002984:	2300      	movs	r3, #0
  ret += otm8009a_write_reg(&pObj->Ctx, OTM8009A_CMD_NOP, &short_reg_data[13], 0);
 8002986:	4426      	add	r6, r4
  ret += otm8009a_write_reg(&pObj->Ctx, 0xC4, &short_reg_data[26], 0);
 8002988:	4604      	mov	r4, r0
  ret += otm8009a_write_reg(&pObj->Ctx, OTM8009A_CMD_NOP, &short_reg_data[15], 0);
 800298a:	4619      	mov	r1, r3
 800298c:	4a60      	ldr	r2, [pc, #384]	; (8002b10 <OTM8009A_Init+0x3d8>)
 800298e:	4638      	mov	r0, r7
  ret += otm8009a_write_reg(&pObj->Ctx, 0xC4, &short_reg_data[26], 0);
 8002990:	4434      	add	r4, r6
  ret += otm8009a_write_reg(&pObj->Ctx, OTM8009A_CMD_NOP, &short_reg_data[15], 0);
 8002992:	f000 fbb5 	bl	8003100 <otm8009a_write_reg>
  ret += otm8009a_write_reg(&pObj->Ctx, 0xC1, &short_reg_data[27], 0);
 8002996:	2300      	movs	r3, #0
  ret += otm8009a_write_reg(&pObj->Ctx, OTM8009A_CMD_NOP, &short_reg_data[15], 0);
 8002998:	4606      	mov	r6, r0
  ret += otm8009a_write_reg(&pObj->Ctx, 0xC1, &short_reg_data[27], 0);
 800299a:	4a6a      	ldr	r2, [pc, #424]	; (8002b44 <OTM8009A_Init+0x40c>)
 800299c:	21c1      	movs	r1, #193	; 0xc1
 800299e:	4638      	mov	r0, r7
 80029a0:	f000 fbae 	bl	8003100 <otm8009a_write_reg>
  ret += otm8009a_write_reg(&pObj->Ctx, OTM8009A_CMD_NOP, &short_reg_data[28], 0);
 80029a4:	2300      	movs	r3, #0
  ret += otm8009a_write_reg(&pObj->Ctx, OTM8009A_CMD_NOP, &short_reg_data[15], 0);
 80029a6:	4434      	add	r4, r6
  ret += otm8009a_write_reg(&pObj->Ctx, 0xC1, &short_reg_data[27], 0);
 80029a8:	4606      	mov	r6, r0
  ret += otm8009a_write_reg(&pObj->Ctx, OTM8009A_CMD_NOP, &short_reg_data[28], 0);
 80029aa:	4619      	mov	r1, r3
 80029ac:	4a66      	ldr	r2, [pc, #408]	; (8002b48 <OTM8009A_Init+0x410>)
 80029ae:	4638      	mov	r0, r7
  ret += otm8009a_write_reg(&pObj->Ctx, 0xC1, &short_reg_data[27], 0);
 80029b0:	4426      	add	r6, r4
  ret += otm8009a_write_reg(&pObj->Ctx, OTM8009A_CMD_NOP, &short_reg_data[28], 0);
 80029b2:	f000 fba5 	bl	8003100 <otm8009a_write_reg>
  ret += otm8009a_write_reg(&pObj->Ctx, 0xB3, lcd_reg_data6, 2);
 80029b6:	2302      	movs	r3, #2
  ret += otm8009a_write_reg(&pObj->Ctx, OTM8009A_CMD_NOP, &short_reg_data[28], 0);
 80029b8:	4604      	mov	r4, r0
  ret += otm8009a_write_reg(&pObj->Ctx, 0xB3, lcd_reg_data6, 2);
 80029ba:	4a64      	ldr	r2, [pc, #400]	; (8002b4c <OTM8009A_Init+0x414>)
 80029bc:	21b3      	movs	r1, #179	; 0xb3
 80029be:	4638      	mov	r0, r7
 80029c0:	f000 fb9e 	bl	8003100 <otm8009a_write_reg>
  ret += otm8009a_write_reg(&pObj->Ctx, OTM8009A_CMD_NOP, &short_reg_data[2], 0);
 80029c4:	2300      	movs	r3, #0
  ret += otm8009a_write_reg(&pObj->Ctx, OTM8009A_CMD_NOP, &short_reg_data[28], 0);
 80029c6:	4426      	add	r6, r4
  ret += otm8009a_write_reg(&pObj->Ctx, 0xB3, lcd_reg_data6, 2);
 80029c8:	4604      	mov	r4, r0
  ret += otm8009a_write_reg(&pObj->Ctx, OTM8009A_CMD_NOP, &short_reg_data[2], 0);
 80029ca:	4619      	mov	r1, r3
 80029cc:	4a42      	ldr	r2, [pc, #264]	; (8002ad8 <OTM8009A_Init+0x3a0>)
 80029ce:	4638      	mov	r0, r7
  ret += otm8009a_write_reg(&pObj->Ctx, 0xB3, lcd_reg_data6, 2);
 80029d0:	4434      	add	r4, r6
  ret += otm8009a_write_reg(&pObj->Ctx, OTM8009A_CMD_NOP, &short_reg_data[2], 0);
 80029d2:	f000 fb95 	bl	8003100 <otm8009a_write_reg>
  ret += otm8009a_write_reg(&pObj->Ctx, 0xCE, lcd_reg_data7, 6);
 80029d6:	2306      	movs	r3, #6
  ret += otm8009a_write_reg(&pObj->Ctx, OTM8009A_CMD_NOP, &short_reg_data[2], 0);
 80029d8:	4606      	mov	r6, r0
  ret += otm8009a_write_reg(&pObj->Ctx, 0xCE, lcd_reg_data7, 6);
 80029da:	4a5d      	ldr	r2, [pc, #372]	; (8002b50 <OTM8009A_Init+0x418>)
 80029dc:	21ce      	movs	r1, #206	; 0xce
 80029de:	4638      	mov	r0, r7
 80029e0:	f000 fb8e 	bl	8003100 <otm8009a_write_reg>
  ret += otm8009a_write_reg(&pObj->Ctx, OTM8009A_CMD_NOP, &short_reg_data[29], 0);
 80029e4:	2300      	movs	r3, #0
  ret += otm8009a_write_reg(&pObj->Ctx, OTM8009A_CMD_NOP, &short_reg_data[2], 0);
 80029e6:	4434      	add	r4, r6
  ret += otm8009a_write_reg(&pObj->Ctx, 0xCE, lcd_reg_data7, 6);
 80029e8:	4606      	mov	r6, r0
  ret += otm8009a_write_reg(&pObj->Ctx, OTM8009A_CMD_NOP, &short_reg_data[29], 0);
 80029ea:	4619      	mov	r1, r3
 80029ec:	4a59      	ldr	r2, [pc, #356]	; (8002b54 <OTM8009A_Init+0x41c>)
 80029ee:	4638      	mov	r0, r7
  ret += otm8009a_write_reg(&pObj->Ctx, 0xCE, lcd_reg_data7, 6);
 80029f0:	4426      	add	r6, r4
  ret += otm8009a_write_reg(&pObj->Ctx, OTM8009A_CMD_NOP, &short_reg_data[29], 0);
 80029f2:	f000 fb85 	bl	8003100 <otm8009a_write_reg>
  ret += otm8009a_write_reg(&pObj->Ctx, 0xCE, lcd_reg_data8, 14);
 80029f6:	230e      	movs	r3, #14
  ret += otm8009a_write_reg(&pObj->Ctx, OTM8009A_CMD_NOP, &short_reg_data[29], 0);
 80029f8:	4604      	mov	r4, r0
  ret += otm8009a_write_reg(&pObj->Ctx, 0xCE, lcd_reg_data8, 14);
 80029fa:	4a57      	ldr	r2, [pc, #348]	; (8002b58 <OTM8009A_Init+0x420>)
 80029fc:	21ce      	movs	r1, #206	; 0xce
 80029fe:	4638      	mov	r0, r7
 8002a00:	f000 fb7e 	bl	8003100 <otm8009a_write_reg>
  ret += otm8009a_write_reg(&pObj->Ctx, OTM8009A_CMD_NOP, &short_reg_data[30], 0);
 8002a04:	2300      	movs	r3, #0
  ret += otm8009a_write_reg(&pObj->Ctx, OTM8009A_CMD_NOP, &short_reg_data[29], 0);
 8002a06:	4426      	add	r6, r4
  ret += otm8009a_write_reg(&pObj->Ctx, 0xCE, lcd_reg_data8, 14);
 8002a08:	4604      	mov	r4, r0
  ret += otm8009a_write_reg(&pObj->Ctx, OTM8009A_CMD_NOP, &short_reg_data[30], 0);
 8002a0a:	4619      	mov	r1, r3
 8002a0c:	4a53      	ldr	r2, [pc, #332]	; (8002b5c <OTM8009A_Init+0x424>)
 8002a0e:	4638      	mov	r0, r7
  ret += otm8009a_write_reg(&pObj->Ctx, 0xCE, lcd_reg_data8, 14);
 8002a10:	4434      	add	r4, r6
  ret += otm8009a_write_reg(&pObj->Ctx, OTM8009A_CMD_NOP, &short_reg_data[30], 0);
 8002a12:	f000 fb75 	bl	8003100 <otm8009a_write_reg>
  ret += otm8009a_write_reg(&pObj->Ctx, 0xCE, lcd_reg_data9, 14);
 8002a16:	230e      	movs	r3, #14
  ret += otm8009a_write_reg(&pObj->Ctx, OTM8009A_CMD_NOP, &short_reg_data[30], 0);
 8002a18:	4606      	mov	r6, r0
  ret += otm8009a_write_reg(&pObj->Ctx, 0xCE, lcd_reg_data9, 14);
 8002a1a:	4a51      	ldr	r2, [pc, #324]	; (8002b60 <OTM8009A_Init+0x428>)
 8002a1c:	21ce      	movs	r1, #206	; 0xce
 8002a1e:	4638      	mov	r0, r7
 8002a20:	f000 fb6e 	bl	8003100 <otm8009a_write_reg>
  ret += otm8009a_write_reg(&pObj->Ctx, OTM8009A_CMD_NOP, &short_reg_data[31], 0);
 8002a24:	2300      	movs	r3, #0
  ret += otm8009a_write_reg(&pObj->Ctx, OTM8009A_CMD_NOP, &short_reg_data[30], 0);
 8002a26:	4434      	add	r4, r6
  ret += otm8009a_write_reg(&pObj->Ctx, 0xCE, lcd_reg_data9, 14);
 8002a28:	4606      	mov	r6, r0
  ret += otm8009a_write_reg(&pObj->Ctx, OTM8009A_CMD_NOP, &short_reg_data[31], 0);
 8002a2a:	4619      	mov	r1, r3
 8002a2c:	4a4d      	ldr	r2, [pc, #308]	; (8002b64 <OTM8009A_Init+0x42c>)
 8002a2e:	4638      	mov	r0, r7
  ret += otm8009a_write_reg(&pObj->Ctx, 0xCE, lcd_reg_data9, 14);
 8002a30:	4426      	add	r6, r4
  ret += otm8009a_write_reg(&pObj->Ctx, OTM8009A_CMD_NOP, &short_reg_data[31], 0);
 8002a32:	f000 fb65 	bl	8003100 <otm8009a_write_reg>
  ret += otm8009a_write_reg(&pObj->Ctx, 0xCF, lcd_reg_data10, 10);
 8002a36:	230a      	movs	r3, #10
  ret += otm8009a_write_reg(&pObj->Ctx, OTM8009A_CMD_NOP, &short_reg_data[31], 0);
 8002a38:	4604      	mov	r4, r0
  ret += otm8009a_write_reg(&pObj->Ctx, 0xCF, lcd_reg_data10, 10);
 8002a3a:	4a4b      	ldr	r2, [pc, #300]	; (8002b68 <OTM8009A_Init+0x430>)
 8002a3c:	21cf      	movs	r1, #207	; 0xcf
 8002a3e:	4638      	mov	r0, r7
 8002a40:	f000 fb5e 	bl	8003100 <otm8009a_write_reg>
  ret += otm8009a_write_reg(&pObj->Ctx, OTM8009A_CMD_NOP, &short_reg_data[32], 0);
 8002a44:	2300      	movs	r3, #0
  ret += otm8009a_write_reg(&pObj->Ctx, OTM8009A_CMD_NOP, &short_reg_data[31], 0);
 8002a46:	4426      	add	r6, r4
  ret += otm8009a_write_reg(&pObj->Ctx, 0xCF, lcd_reg_data10, 10);
 8002a48:	4604      	mov	r4, r0
  ret += otm8009a_write_reg(&pObj->Ctx, OTM8009A_CMD_NOP, &short_reg_data[32], 0);
 8002a4a:	4619      	mov	r1, r3
 8002a4c:	4a47      	ldr	r2, [pc, #284]	; (8002b6c <OTM8009A_Init+0x434>)
 8002a4e:	4638      	mov	r0, r7
  ret += otm8009a_write_reg(&pObj->Ctx, 0xCF, lcd_reg_data10, 10);
 8002a50:	4434      	add	r4, r6
  ret += otm8009a_write_reg(&pObj->Ctx, OTM8009A_CMD_NOP, &short_reg_data[32], 0);
 8002a52:	f000 fb55 	bl	8003100 <otm8009a_write_reg>
  ret += otm8009a_write_reg(&pObj->Ctx, 0xCF, &short_reg_data[45], 0);
 8002a56:	2300      	movs	r3, #0
  ret += otm8009a_write_reg(&pObj->Ctx, OTM8009A_CMD_NOP, &short_reg_data[32], 0);
 8002a58:	4606      	mov	r6, r0
  ret += otm8009a_write_reg(&pObj->Ctx, 0xCF, &short_reg_data[45], 0);
 8002a5a:	4a45      	ldr	r2, [pc, #276]	; (8002b70 <OTM8009A_Init+0x438>)
 8002a5c:	21cf      	movs	r1, #207	; 0xcf
 8002a5e:	4638      	mov	r0, r7
 8002a60:	f000 fb4e 	bl	8003100 <otm8009a_write_reg>
  ret += otm8009a_write_reg(&pObj->Ctx, OTM8009A_CMD_NOP, &short_reg_data[2], 0);
 8002a64:	2300      	movs	r3, #0
  ret += otm8009a_write_reg(&pObj->Ctx, OTM8009A_CMD_NOP, &short_reg_data[32], 0);
 8002a66:	4434      	add	r4, r6
  ret += otm8009a_write_reg(&pObj->Ctx, 0xCF, &short_reg_data[45], 0);
 8002a68:	4606      	mov	r6, r0
  ret += otm8009a_write_reg(&pObj->Ctx, OTM8009A_CMD_NOP, &short_reg_data[2], 0);
 8002a6a:	4619      	mov	r1, r3
 8002a6c:	4a1a      	ldr	r2, [pc, #104]	; (8002ad8 <OTM8009A_Init+0x3a0>)
 8002a6e:	4638      	mov	r0, r7
  ret += otm8009a_write_reg(&pObj->Ctx, 0xCF, &short_reg_data[45], 0);
 8002a70:	4426      	add	r6, r4
  ret += otm8009a_write_reg(&pObj->Ctx, OTM8009A_CMD_NOP, &short_reg_data[2], 0);
 8002a72:	f000 fb45 	bl	8003100 <otm8009a_write_reg>
  ret += otm8009a_write_reg(&pObj->Ctx, 0xCB, lcd_reg_data11, 10);
 8002a76:	230a      	movs	r3, #10
  ret += otm8009a_write_reg(&pObj->Ctx, OTM8009A_CMD_NOP, &short_reg_data[2], 0);
 8002a78:	4604      	mov	r4, r0
  ret += otm8009a_write_reg(&pObj->Ctx, 0xCB, lcd_reg_data11, 10);
 8002a7a:	4a3e      	ldr	r2, [pc, #248]	; (8002b74 <OTM8009A_Init+0x43c>)
 8002a7c:	21cb      	movs	r1, #203	; 0xcb
 8002a7e:	4638      	mov	r0, r7
 8002a80:	f000 fb3e 	bl	8003100 <otm8009a_write_reg>
  ret += otm8009a_write_reg(&pObj->Ctx, OTM8009A_CMD_NOP, &short_reg_data[33], 0);
 8002a84:	2300      	movs	r3, #0
  ret += otm8009a_write_reg(&pObj->Ctx, OTM8009A_CMD_NOP, &short_reg_data[2], 0);
 8002a86:	4426      	add	r6, r4
  ret += otm8009a_write_reg(&pObj->Ctx, 0xCB, lcd_reg_data11, 10);
 8002a88:	4604      	mov	r4, r0
  ret += otm8009a_write_reg(&pObj->Ctx, OTM8009A_CMD_NOP, &short_reg_data[33], 0);
 8002a8a:	4619      	mov	r1, r3
 8002a8c:	4a3a      	ldr	r2, [pc, #232]	; (8002b78 <OTM8009A_Init+0x440>)
 8002a8e:	4638      	mov	r0, r7
  ret += otm8009a_write_reg(&pObj->Ctx, 0xCB, lcd_reg_data11, 10);
 8002a90:	4434      	add	r4, r6
  ret += otm8009a_write_reg(&pObj->Ctx, OTM8009A_CMD_NOP, &short_reg_data[33], 0);
 8002a92:	f000 fb35 	bl	8003100 <otm8009a_write_reg>
  ret += otm8009a_write_reg(&pObj->Ctx, 0xCB, lcd_reg_data12, 15);
 8002a96:	230f      	movs	r3, #15
  ret += otm8009a_write_reg(&pObj->Ctx, OTM8009A_CMD_NOP, &short_reg_data[33], 0);
 8002a98:	4606      	mov	r6, r0
  ret += otm8009a_write_reg(&pObj->Ctx, 0xCB, lcd_reg_data12, 15);
 8002a9a:	4a38      	ldr	r2, [pc, #224]	; (8002b7c <OTM8009A_Init+0x444>)
 8002a9c:	21cb      	movs	r1, #203	; 0xcb
 8002a9e:	4638      	mov	r0, r7
 8002aa0:	f000 fb2e 	bl	8003100 <otm8009a_write_reg>
  ret += otm8009a_write_reg(&pObj->Ctx, OTM8009A_CMD_NOP, &short_reg_data[29], 0);
 8002aa4:	2300      	movs	r3, #0
  ret += otm8009a_write_reg(&pObj->Ctx, OTM8009A_CMD_NOP, &short_reg_data[33], 0);
 8002aa6:	4434      	add	r4, r6
  ret += otm8009a_write_reg(&pObj->Ctx, 0xCB, lcd_reg_data12, 15);
 8002aa8:	4606      	mov	r6, r0
  ret += otm8009a_write_reg(&pObj->Ctx, OTM8009A_CMD_NOP, &short_reg_data[29], 0);
 8002aaa:	4619      	mov	r1, r3
 8002aac:	4a29      	ldr	r2, [pc, #164]	; (8002b54 <OTM8009A_Init+0x41c>)
 8002aae:	4638      	mov	r0, r7
  ret += otm8009a_write_reg(&pObj->Ctx, 0xCB, lcd_reg_data12, 15);
 8002ab0:	4426      	add	r6, r4
  ret += otm8009a_write_reg(&pObj->Ctx, OTM8009A_CMD_NOP, &short_reg_data[29], 0);
 8002ab2:	f000 fb25 	bl	8003100 <otm8009a_write_reg>
  ret += otm8009a_write_reg(&pObj->Ctx, 0xCB, lcd_reg_data13, 15);
 8002ab6:	230f      	movs	r3, #15
  ret += otm8009a_write_reg(&pObj->Ctx, OTM8009A_CMD_NOP, &short_reg_data[29], 0);
 8002ab8:	4604      	mov	r4, r0
  ret += otm8009a_write_reg(&pObj->Ctx, 0xCB, lcd_reg_data13, 15);
 8002aba:	4a31      	ldr	r2, [pc, #196]	; (8002b80 <OTM8009A_Init+0x448>)
 8002abc:	21cb      	movs	r1, #203	; 0xcb
 8002abe:	4638      	mov	r0, r7
 8002ac0:	f000 fb1e 	bl	8003100 <otm8009a_write_reg>
  ret += otm8009a_write_reg(&pObj->Ctx, OTM8009A_CMD_NOP, &short_reg_data[30], 0);
 8002ac4:	2300      	movs	r3, #0
  ret += otm8009a_write_reg(&pObj->Ctx, OTM8009A_CMD_NOP, &short_reg_data[29], 0);
 8002ac6:	4426      	add	r6, r4
  ret += otm8009a_write_reg(&pObj->Ctx, 0xCB, lcd_reg_data13, 15);
 8002ac8:	4604      	mov	r4, r0
  ret += otm8009a_write_reg(&pObj->Ctx, OTM8009A_CMD_NOP, &short_reg_data[30], 0);
 8002aca:	4619      	mov	r1, r3
 8002acc:	e05a      	b.n	8002b84 <OTM8009A_Init+0x44c>
 8002ace:	bf00      	nop
 8002ad0:	0800798d 	.word	0x0800798d
 8002ad4:	0800785c 	.word	0x0800785c
 8002ad8:	0800798e 	.word	0x0800798e
 8002adc:	080078e8 	.word	0x080078e8
 8002ae0:	0800798f 	.word	0x0800798f
 8002ae4:	08007990 	.word	0x08007990
 8002ae8:	08007991 	.word	0x08007991
 8002aec:	08007992 	.word	0x08007992
 8002af0:	08007993 	.word	0x08007993
 8002af4:	08007994 	.word	0x08007994
 8002af8:	08007995 	.word	0x08007995
 8002afc:	08007996 	.word	0x08007996
 8002b00:	08007997 	.word	0x08007997
 8002b04:	08007998 	.word	0x08007998
 8002b08:	08007999 	.word	0x08007999
 8002b0c:	0800799a 	.word	0x0800799a
 8002b10:	0800799b 	.word	0x0800799b
 8002b14:	0800799c 	.word	0x0800799c
 8002b18:	0800799d 	.word	0x0800799d
 8002b1c:	0800799e 	.word	0x0800799e
 8002b20:	0800799f 	.word	0x0800799f
 8002b24:	0800795c 	.word	0x0800795c
 8002b28:	080079a0 	.word	0x080079a0
 8002b2c:	080079a1 	.word	0x080079a1
 8002b30:	080079a2 	.word	0x080079a2
 8002b34:	080079a3 	.word	0x080079a3
 8002b38:	080079a4 	.word	0x080079a4
 8002b3c:	080079a5 	.word	0x080079a5
 8002b40:	080079a6 	.word	0x080079a6
 8002b44:	080079a7 	.word	0x080079a7
 8002b48:	080079a8 	.word	0x080079a8
 8002b4c:	08007960 	.word	0x08007960
 8002b50:	08007964 	.word	0x08007964
 8002b54:	080079a9 	.word	0x080079a9
 8002b58:	0800796c 	.word	0x0800796c
 8002b5c:	080079aa 	.word	0x080079aa
 8002b60:	0800797c 	.word	0x0800797c
 8002b64:	080079ab 	.word	0x080079ab
 8002b68:	08007860 	.word	0x08007860
 8002b6c:	080079ac 	.word	0x080079ac
 8002b70:	080079b9 	.word	0x080079b9
 8002b74:	0800786c 	.word	0x0800786c
 8002b78:	080079ad 	.word	0x080079ad
 8002b7c:	08007878 	.word	0x08007878
 8002b80:	08007888 	.word	0x08007888
 8002b84:	4ad1      	ldr	r2, [pc, #836]	; (8002ecc <OTM8009A_Init+0x794>)
 8002b86:	4638      	mov	r0, r7
  ret += otm8009a_write_reg(&pObj->Ctx, 0xCB, lcd_reg_data13, 15);
 8002b88:	4434      	add	r4, r6
  ret += otm8009a_write_reg(&pObj->Ctx, OTM8009A_CMD_NOP, &short_reg_data[30], 0);
 8002b8a:	f000 fab9 	bl	8003100 <otm8009a_write_reg>
  ret += otm8009a_write_reg(&pObj->Ctx, 0xCB, lcd_reg_data14, 10);
 8002b8e:	230a      	movs	r3, #10
  ret += otm8009a_write_reg(&pObj->Ctx, OTM8009A_CMD_NOP, &short_reg_data[30], 0);
 8002b90:	4606      	mov	r6, r0
  ret += otm8009a_write_reg(&pObj->Ctx, 0xCB, lcd_reg_data14, 10);
 8002b92:	4acf      	ldr	r2, [pc, #828]	; (8002ed0 <OTM8009A_Init+0x798>)
 8002b94:	21cb      	movs	r1, #203	; 0xcb
 8002b96:	4638      	mov	r0, r7
 8002b98:	f000 fab2 	bl	8003100 <otm8009a_write_reg>
  ret += otm8009a_write_reg(&pObj->Ctx, OTM8009A_CMD_NOP, &short_reg_data[31], 0);
 8002b9c:	2300      	movs	r3, #0
  ret += otm8009a_write_reg(&pObj->Ctx, OTM8009A_CMD_NOP, &short_reg_data[30], 0);
 8002b9e:	4434      	add	r4, r6
  ret += otm8009a_write_reg(&pObj->Ctx, 0xCB, lcd_reg_data14, 10);
 8002ba0:	4606      	mov	r6, r0
  ret += otm8009a_write_reg(&pObj->Ctx, OTM8009A_CMD_NOP, &short_reg_data[31], 0);
 8002ba2:	4619      	mov	r1, r3
 8002ba4:	4acb      	ldr	r2, [pc, #812]	; (8002ed4 <OTM8009A_Init+0x79c>)
 8002ba6:	4638      	mov	r0, r7
  ret += otm8009a_write_reg(&pObj->Ctx, 0xCB, lcd_reg_data14, 10);
 8002ba8:	4426      	add	r6, r4
  ret += otm8009a_write_reg(&pObj->Ctx, OTM8009A_CMD_NOP, &short_reg_data[31], 0);
 8002baa:	f000 faa9 	bl	8003100 <otm8009a_write_reg>
  ret += otm8009a_write_reg(&pObj->Ctx, 0xCB, lcd_reg_data15, 15);
 8002bae:	230f      	movs	r3, #15
  ret += otm8009a_write_reg(&pObj->Ctx, OTM8009A_CMD_NOP, &short_reg_data[31], 0);
 8002bb0:	4604      	mov	r4, r0
  ret += otm8009a_write_reg(&pObj->Ctx, 0xCB, lcd_reg_data15, 15);
 8002bb2:	4ac9      	ldr	r2, [pc, #804]	; (8002ed8 <OTM8009A_Init+0x7a0>)
 8002bb4:	21cb      	movs	r1, #203	; 0xcb
 8002bb6:	4638      	mov	r0, r7
 8002bb8:	f000 faa2 	bl	8003100 <otm8009a_write_reg>
  ret += otm8009a_write_reg(&pObj->Ctx, OTM8009A_CMD_NOP, &short_reg_data[32], 0);
 8002bbc:	2300      	movs	r3, #0
  ret += otm8009a_write_reg(&pObj->Ctx, OTM8009A_CMD_NOP, &short_reg_data[31], 0);
 8002bbe:	4426      	add	r6, r4
  ret += otm8009a_write_reg(&pObj->Ctx, 0xCB, lcd_reg_data15, 15);
 8002bc0:	4604      	mov	r4, r0
  ret += otm8009a_write_reg(&pObj->Ctx, OTM8009A_CMD_NOP, &short_reg_data[32], 0);
 8002bc2:	4619      	mov	r1, r3
 8002bc4:	4ac5      	ldr	r2, [pc, #788]	; (8002edc <OTM8009A_Init+0x7a4>)
 8002bc6:	4638      	mov	r0, r7
  ret += otm8009a_write_reg(&pObj->Ctx, 0xCB, lcd_reg_data15, 15);
 8002bc8:	4434      	add	r4, r6
  ret += otm8009a_write_reg(&pObj->Ctx, OTM8009A_CMD_NOP, &short_reg_data[32], 0);
 8002bca:	f000 fa99 	bl	8003100 <otm8009a_write_reg>
  ret += otm8009a_write_reg(&pObj->Ctx, 0xCB, lcd_reg_data16, 15);
 8002bce:	230f      	movs	r3, #15
  ret += otm8009a_write_reg(&pObj->Ctx, OTM8009A_CMD_NOP, &short_reg_data[32], 0);
 8002bd0:	4606      	mov	r6, r0
  ret += otm8009a_write_reg(&pObj->Ctx, 0xCB, lcd_reg_data16, 15);
 8002bd2:	4ac3      	ldr	r2, [pc, #780]	; (8002ee0 <OTM8009A_Init+0x7a8>)
 8002bd4:	21cb      	movs	r1, #203	; 0xcb
 8002bd6:	4638      	mov	r0, r7
 8002bd8:	f000 fa92 	bl	8003100 <otm8009a_write_reg>
  ret += otm8009a_write_reg(&pObj->Ctx, OTM8009A_CMD_NOP, &short_reg_data[34], 0);
 8002bdc:	2300      	movs	r3, #0
  ret += otm8009a_write_reg(&pObj->Ctx, OTM8009A_CMD_NOP, &short_reg_data[32], 0);
 8002bde:	4434      	add	r4, r6
  ret += otm8009a_write_reg(&pObj->Ctx, 0xCB, lcd_reg_data16, 15);
 8002be0:	4606      	mov	r6, r0
  ret += otm8009a_write_reg(&pObj->Ctx, OTM8009A_CMD_NOP, &short_reg_data[34], 0);
 8002be2:	4619      	mov	r1, r3
 8002be4:	4abf      	ldr	r2, [pc, #764]	; (8002ee4 <OTM8009A_Init+0x7ac>)
 8002be6:	4638      	mov	r0, r7
  ret += otm8009a_write_reg(&pObj->Ctx, 0xCB, lcd_reg_data16, 15);
 8002be8:	4426      	add	r6, r4
  ret += otm8009a_write_reg(&pObj->Ctx, OTM8009A_CMD_NOP, &short_reg_data[34], 0);
 8002bea:	f000 fa89 	bl	8003100 <otm8009a_write_reg>
  ret += otm8009a_write_reg(&pObj->Ctx, 0xCB, lcd_reg_data17, 10);
 8002bee:	230a      	movs	r3, #10
  ret += otm8009a_write_reg(&pObj->Ctx, OTM8009A_CMD_NOP, &short_reg_data[34], 0);
 8002bf0:	4604      	mov	r4, r0
  ret += otm8009a_write_reg(&pObj->Ctx, 0xCB, lcd_reg_data17, 10);
 8002bf2:	4abd      	ldr	r2, [pc, #756]	; (8002ee8 <OTM8009A_Init+0x7b0>)
 8002bf4:	21cb      	movs	r1, #203	; 0xcb
 8002bf6:	4638      	mov	r0, r7
 8002bf8:	f000 fa82 	bl	8003100 <otm8009a_write_reg>
  ret += otm8009a_write_reg(&pObj->Ctx, OTM8009A_CMD_NOP, &short_reg_data[35], 0);
 8002bfc:	2300      	movs	r3, #0
  ret += otm8009a_write_reg(&pObj->Ctx, OTM8009A_CMD_NOP, &short_reg_data[34], 0);
 8002bfe:	4426      	add	r6, r4
  ret += otm8009a_write_reg(&pObj->Ctx, 0xCB, lcd_reg_data17, 10);
 8002c00:	4604      	mov	r4, r0
  ret += otm8009a_write_reg(&pObj->Ctx, OTM8009A_CMD_NOP, &short_reg_data[35], 0);
 8002c02:	4619      	mov	r1, r3
 8002c04:	4ab9      	ldr	r2, [pc, #740]	; (8002eec <OTM8009A_Init+0x7b4>)
 8002c06:	4638      	mov	r0, r7
  ret += otm8009a_write_reg(&pObj->Ctx, 0xCB, lcd_reg_data17, 10);
 8002c08:	4434      	add	r4, r6
  ret += otm8009a_write_reg(&pObj->Ctx, OTM8009A_CMD_NOP, &short_reg_data[35], 0);
 8002c0a:	f000 fa79 	bl	8003100 <otm8009a_write_reg>
  ret += otm8009a_write_reg(&pObj->Ctx, 0xCB, lcd_reg_data18, 10);
 8002c0e:	230a      	movs	r3, #10
  ret += otm8009a_write_reg(&pObj->Ctx, OTM8009A_CMD_NOP, &short_reg_data[35], 0);
 8002c10:	4606      	mov	r6, r0
  ret += otm8009a_write_reg(&pObj->Ctx, 0xCB, lcd_reg_data18, 10);
 8002c12:	4ab7      	ldr	r2, [pc, #732]	; (8002ef0 <OTM8009A_Init+0x7b8>)
 8002c14:	21cb      	movs	r1, #203	; 0xcb
 8002c16:	4638      	mov	r0, r7
 8002c18:	f000 fa72 	bl	8003100 <otm8009a_write_reg>
  ret += otm8009a_write_reg(&pObj->Ctx, OTM8009A_CMD_NOP, &short_reg_data[2], 0);
 8002c1c:	2300      	movs	r3, #0
  ret += otm8009a_write_reg(&pObj->Ctx, OTM8009A_CMD_NOP, &short_reg_data[35], 0);
 8002c1e:	4434      	add	r4, r6
  ret += otm8009a_write_reg(&pObj->Ctx, 0xCB, lcd_reg_data18, 10);
 8002c20:	4606      	mov	r6, r0
  ret += otm8009a_write_reg(&pObj->Ctx, OTM8009A_CMD_NOP, &short_reg_data[2], 0);
 8002c22:	4619      	mov	r1, r3
 8002c24:	4ab3      	ldr	r2, [pc, #716]	; (8002ef4 <OTM8009A_Init+0x7bc>)
 8002c26:	4638      	mov	r0, r7
  ret += otm8009a_write_reg(&pObj->Ctx, 0xCB, lcd_reg_data18, 10);
 8002c28:	4426      	add	r6, r4
  ret += otm8009a_write_reg(&pObj->Ctx, OTM8009A_CMD_NOP, &short_reg_data[2], 0);
 8002c2a:	f000 fa69 	bl	8003100 <otm8009a_write_reg>
  ret += otm8009a_write_reg(&pObj->Ctx, 0xCC, lcd_reg_data19, 10);
 8002c2e:	230a      	movs	r3, #10
  ret += otm8009a_write_reg(&pObj->Ctx, OTM8009A_CMD_NOP, &short_reg_data[2], 0);
 8002c30:	4604      	mov	r4, r0
  ret += otm8009a_write_reg(&pObj->Ctx, 0xCC, lcd_reg_data19, 10);
 8002c32:	4ab1      	ldr	r2, [pc, #708]	; (8002ef8 <OTM8009A_Init+0x7c0>)
 8002c34:	21cc      	movs	r1, #204	; 0xcc
 8002c36:	4638      	mov	r0, r7
 8002c38:	f000 fa62 	bl	8003100 <otm8009a_write_reg>
  ret += otm8009a_write_reg(&pObj->Ctx, OTM8009A_CMD_NOP, &short_reg_data[33], 0);
 8002c3c:	2300      	movs	r3, #0
  ret += otm8009a_write_reg(&pObj->Ctx, OTM8009A_CMD_NOP, &short_reg_data[2], 0);
 8002c3e:	4426      	add	r6, r4
  ret += otm8009a_write_reg(&pObj->Ctx, 0xCC, lcd_reg_data19, 10);
 8002c40:	4604      	mov	r4, r0
  ret += otm8009a_write_reg(&pObj->Ctx, OTM8009A_CMD_NOP, &short_reg_data[33], 0);
 8002c42:	4619      	mov	r1, r3
 8002c44:	4aad      	ldr	r2, [pc, #692]	; (8002efc <OTM8009A_Init+0x7c4>)
 8002c46:	4638      	mov	r0, r7
  ret += otm8009a_write_reg(&pObj->Ctx, 0xCC, lcd_reg_data19, 10);
 8002c48:	4434      	add	r4, r6
  ret += otm8009a_write_reg(&pObj->Ctx, OTM8009A_CMD_NOP, &short_reg_data[33], 0);
 8002c4a:	f000 fa59 	bl	8003100 <otm8009a_write_reg>
  ret += otm8009a_write_reg(&pObj->Ctx, 0xCC, lcd_reg_data20, 15);
 8002c4e:	230f      	movs	r3, #15
  ret += otm8009a_write_reg(&pObj->Ctx, OTM8009A_CMD_NOP, &short_reg_data[33], 0);
 8002c50:	4606      	mov	r6, r0
  ret += otm8009a_write_reg(&pObj->Ctx, 0xCC, lcd_reg_data20, 15);
 8002c52:	4aab      	ldr	r2, [pc, #684]	; (8002f00 <OTM8009A_Init+0x7c8>)
 8002c54:	21cc      	movs	r1, #204	; 0xcc
 8002c56:	4638      	mov	r0, r7
 8002c58:	f000 fa52 	bl	8003100 <otm8009a_write_reg>
  ret += otm8009a_write_reg(&pObj->Ctx, OTM8009A_CMD_NOP, &short_reg_data[29], 0);
 8002c5c:	2300      	movs	r3, #0
  ret += otm8009a_write_reg(&pObj->Ctx, OTM8009A_CMD_NOP, &short_reg_data[33], 0);
 8002c5e:	4434      	add	r4, r6
  ret += otm8009a_write_reg(&pObj->Ctx, 0xCC, lcd_reg_data20, 15);
 8002c60:	4606      	mov	r6, r0
  ret += otm8009a_write_reg(&pObj->Ctx, OTM8009A_CMD_NOP, &short_reg_data[29], 0);
 8002c62:	4619      	mov	r1, r3
 8002c64:	4aa7      	ldr	r2, [pc, #668]	; (8002f04 <OTM8009A_Init+0x7cc>)
 8002c66:	4638      	mov	r0, r7
  ret += otm8009a_write_reg(&pObj->Ctx, 0xCC, lcd_reg_data20, 15);
 8002c68:	4426      	add	r6, r4
  ret += otm8009a_write_reg(&pObj->Ctx, OTM8009A_CMD_NOP, &short_reg_data[29], 0);
 8002c6a:	f000 fa49 	bl	8003100 <otm8009a_write_reg>
  ret += otm8009a_write_reg(&pObj->Ctx, 0xCC, lcd_reg_data21, 15);
 8002c6e:	230f      	movs	r3, #15
  ret += otm8009a_write_reg(&pObj->Ctx, OTM8009A_CMD_NOP, &short_reg_data[29], 0);
 8002c70:	4604      	mov	r4, r0
  ret += otm8009a_write_reg(&pObj->Ctx, 0xCC, lcd_reg_data21, 15);
 8002c72:	4aa5      	ldr	r2, [pc, #660]	; (8002f08 <OTM8009A_Init+0x7d0>)
 8002c74:	21cc      	movs	r1, #204	; 0xcc
 8002c76:	4638      	mov	r0, r7
 8002c78:	f000 fa42 	bl	8003100 <otm8009a_write_reg>
  ret += otm8009a_write_reg(&pObj->Ctx, OTM8009A_CMD_NOP, &short_reg_data[30], 0);
 8002c7c:	2300      	movs	r3, #0
  ret += otm8009a_write_reg(&pObj->Ctx, OTM8009A_CMD_NOP, &short_reg_data[29], 0);
 8002c7e:	4426      	add	r6, r4
  ret += otm8009a_write_reg(&pObj->Ctx, 0xCC, lcd_reg_data21, 15);
 8002c80:	4604      	mov	r4, r0
  ret += otm8009a_write_reg(&pObj->Ctx, OTM8009A_CMD_NOP, &short_reg_data[30], 0);
 8002c82:	4619      	mov	r1, r3
 8002c84:	4a91      	ldr	r2, [pc, #580]	; (8002ecc <OTM8009A_Init+0x794>)
 8002c86:	4638      	mov	r0, r7
  ret += otm8009a_write_reg(&pObj->Ctx, 0xCC, lcd_reg_data21, 15);
 8002c88:	4434      	add	r4, r6
  ret += otm8009a_write_reg(&pObj->Ctx, OTM8009A_CMD_NOP, &short_reg_data[30], 0);
 8002c8a:	f000 fa39 	bl	8003100 <otm8009a_write_reg>
  ret += otm8009a_write_reg(&pObj->Ctx, 0xCC, lcd_reg_data22, 10);
 8002c8e:	230a      	movs	r3, #10
  ret += otm8009a_write_reg(&pObj->Ctx, OTM8009A_CMD_NOP, &short_reg_data[30], 0);
 8002c90:	4606      	mov	r6, r0
  ret += otm8009a_write_reg(&pObj->Ctx, 0xCC, lcd_reg_data22, 10);
 8002c92:	4a9e      	ldr	r2, [pc, #632]	; (8002f0c <OTM8009A_Init+0x7d4>)
 8002c94:	21cc      	movs	r1, #204	; 0xcc
 8002c96:	4638      	mov	r0, r7
 8002c98:	f000 fa32 	bl	8003100 <otm8009a_write_reg>
  ret += otm8009a_write_reg(&pObj->Ctx, OTM8009A_CMD_NOP, &short_reg_data[31], 0);
 8002c9c:	2300      	movs	r3, #0
  ret += otm8009a_write_reg(&pObj->Ctx, OTM8009A_CMD_NOP, &short_reg_data[30], 0);
 8002c9e:	4434      	add	r4, r6
  ret += otm8009a_write_reg(&pObj->Ctx, 0xCC, lcd_reg_data22, 10);
 8002ca0:	4606      	mov	r6, r0
  ret += otm8009a_write_reg(&pObj->Ctx, OTM8009A_CMD_NOP, &short_reg_data[31], 0);
 8002ca2:	4619      	mov	r1, r3
 8002ca4:	4a8b      	ldr	r2, [pc, #556]	; (8002ed4 <OTM8009A_Init+0x79c>)
 8002ca6:	4638      	mov	r0, r7
  ret += otm8009a_write_reg(&pObj->Ctx, 0xCC, lcd_reg_data22, 10);
 8002ca8:	4426      	add	r6, r4
  ret += otm8009a_write_reg(&pObj->Ctx, OTM8009A_CMD_NOP, &short_reg_data[31], 0);
 8002caa:	f000 fa29 	bl	8003100 <otm8009a_write_reg>
  ret += otm8009a_write_reg(&pObj->Ctx, 0xCC, lcd_reg_data23, 15);
 8002cae:	230f      	movs	r3, #15
  ret += otm8009a_write_reg(&pObj->Ctx, OTM8009A_CMD_NOP, &short_reg_data[31], 0);
 8002cb0:	4604      	mov	r4, r0
  ret += otm8009a_write_reg(&pObj->Ctx, 0xCC, lcd_reg_data23, 15);
 8002cb2:	4a97      	ldr	r2, [pc, #604]	; (8002f10 <OTM8009A_Init+0x7d8>)
 8002cb4:	21cc      	movs	r1, #204	; 0xcc
 8002cb6:	4638      	mov	r0, r7
 8002cb8:	f000 fa22 	bl	8003100 <otm8009a_write_reg>
  ret += otm8009a_write_reg(&pObj->Ctx, OTM8009A_CMD_NOP, &short_reg_data[32], 0);
 8002cbc:	2300      	movs	r3, #0
  ret += otm8009a_write_reg(&pObj->Ctx, OTM8009A_CMD_NOP, &short_reg_data[31], 0);
 8002cbe:	4426      	add	r6, r4
  ret += otm8009a_write_reg(&pObj->Ctx, 0xCC, lcd_reg_data23, 15);
 8002cc0:	4604      	mov	r4, r0
  ret += otm8009a_write_reg(&pObj->Ctx, OTM8009A_CMD_NOP, &short_reg_data[32], 0);
 8002cc2:	4619      	mov	r1, r3
 8002cc4:	4a85      	ldr	r2, [pc, #532]	; (8002edc <OTM8009A_Init+0x7a4>)
 8002cc6:	4638      	mov	r0, r7
  ret += otm8009a_write_reg(&pObj->Ctx, 0xCC, lcd_reg_data23, 15);
 8002cc8:	4434      	add	r4, r6
  ret += otm8009a_write_reg(&pObj->Ctx, OTM8009A_CMD_NOP, &short_reg_data[32], 0);
 8002cca:	f000 fa19 	bl	8003100 <otm8009a_write_reg>
  ret += otm8009a_write_reg(&pObj->Ctx, 0xCC, lcd_reg_data24, 15);
 8002cce:	230f      	movs	r3, #15
  ret += otm8009a_write_reg(&pObj->Ctx, OTM8009A_CMD_NOP, &short_reg_data[32], 0);
 8002cd0:	4606      	mov	r6, r0
  ret += otm8009a_write_reg(&pObj->Ctx, 0xCC, lcd_reg_data24, 15);
 8002cd2:	4a90      	ldr	r2, [pc, #576]	; (8002f14 <OTM8009A_Init+0x7dc>)
 8002cd4:	21cc      	movs	r1, #204	; 0xcc
 8002cd6:	4638      	mov	r0, r7
 8002cd8:	f000 fa12 	bl	8003100 <otm8009a_write_reg>
  ret += otm8009a_write_reg(&pObj->Ctx, OTM8009A_CMD_NOP, &short_reg_data[13], 0);
 8002cdc:	2300      	movs	r3, #0
  ret += otm8009a_write_reg(&pObj->Ctx, OTM8009A_CMD_NOP, &short_reg_data[32], 0);
 8002cde:	4434      	add	r4, r6
  ret += otm8009a_write_reg(&pObj->Ctx, 0xCC, lcd_reg_data24, 15);
 8002ce0:	4606      	mov	r6, r0
  ret += otm8009a_write_reg(&pObj->Ctx, OTM8009A_CMD_NOP, &short_reg_data[13], 0);
 8002ce2:	4619      	mov	r1, r3
 8002ce4:	4a8c      	ldr	r2, [pc, #560]	; (8002f18 <OTM8009A_Init+0x7e0>)
 8002ce6:	4638      	mov	r0, r7
  ret += otm8009a_write_reg(&pObj->Ctx, 0xCC, lcd_reg_data24, 15);
 8002ce8:	4426      	add	r6, r4
  ret += otm8009a_write_reg(&pObj->Ctx, OTM8009A_CMD_NOP, &short_reg_data[13], 0);
 8002cea:	f000 fa09 	bl	8003100 <otm8009a_write_reg>
  ret += otm8009a_write_reg(&pObj->Ctx, 0xC5, &short_reg_data[46], 0);
 8002cee:	2300      	movs	r3, #0
  ret += otm8009a_write_reg(&pObj->Ctx, OTM8009A_CMD_NOP, &short_reg_data[13], 0);
 8002cf0:	4604      	mov	r4, r0
  ret += otm8009a_write_reg(&pObj->Ctx, 0xC5, &short_reg_data[46], 0);
 8002cf2:	4a8a      	ldr	r2, [pc, #552]	; (8002f1c <OTM8009A_Init+0x7e4>)
 8002cf4:	21c5      	movs	r1, #197	; 0xc5
 8002cf6:	4638      	mov	r0, r7
 8002cf8:	f000 fa02 	bl	8003100 <otm8009a_write_reg>
  ret += otm8009a_write_reg(&pObj->Ctx, OTM8009A_CMD_NOP, &short_reg_data[47], 0);
 8002cfc:	2300      	movs	r3, #0
  ret += otm8009a_write_reg(&pObj->Ctx, OTM8009A_CMD_NOP, &short_reg_data[13], 0);
 8002cfe:	4426      	add	r6, r4
  ret += otm8009a_write_reg(&pObj->Ctx, 0xC5, &short_reg_data[46], 0);
 8002d00:	4604      	mov	r4, r0
  ret += otm8009a_write_reg(&pObj->Ctx, OTM8009A_CMD_NOP, &short_reg_data[47], 0);
 8002d02:	4619      	mov	r1, r3
 8002d04:	4a86      	ldr	r2, [pc, #536]	; (8002f20 <OTM8009A_Init+0x7e8>)
 8002d06:	4638      	mov	r0, r7
  ret += otm8009a_write_reg(&pObj->Ctx, 0xC5, &short_reg_data[46], 0);
 8002d08:	4434      	add	r4, r6
  ret += otm8009a_write_reg(&pObj->Ctx, OTM8009A_CMD_NOP, &short_reg_data[47], 0);
 8002d0a:	f000 f9f9 	bl	8003100 <otm8009a_write_reg>
  ret += otm8009a_write_reg(&pObj->Ctx, 0xF5, &short_reg_data[48], 0);
 8002d0e:	2300      	movs	r3, #0
  ret += otm8009a_write_reg(&pObj->Ctx, OTM8009A_CMD_NOP, &short_reg_data[47], 0);
 8002d10:	4606      	mov	r6, r0
  ret += otm8009a_write_reg(&pObj->Ctx, 0xF5, &short_reg_data[48], 0);
 8002d12:	4a84      	ldr	r2, [pc, #528]	; (8002f24 <OTM8009A_Init+0x7ec>)
 8002d14:	21f5      	movs	r1, #245	; 0xf5
 8002d16:	4638      	mov	r0, r7
 8002d18:	f000 f9f2 	bl	8003100 <otm8009a_write_reg>
  ret += otm8009a_write_reg(&pObj->Ctx, OTM8009A_CMD_NOP, &short_reg_data[49], 0);
 8002d1c:	2300      	movs	r3, #0
  ret += otm8009a_write_reg(&pObj->Ctx, OTM8009A_CMD_NOP, &short_reg_data[47], 0);
 8002d1e:	4434      	add	r4, r6
  ret += otm8009a_write_reg(&pObj->Ctx, 0xF5, &short_reg_data[48], 0);
 8002d20:	4606      	mov	r6, r0
  ret += otm8009a_write_reg(&pObj->Ctx, OTM8009A_CMD_NOP, &short_reg_data[49], 0);
 8002d22:	4619      	mov	r1, r3
 8002d24:	4a80      	ldr	r2, [pc, #512]	; (8002f28 <OTM8009A_Init+0x7f0>)
 8002d26:	4638      	mov	r0, r7
  ret += otm8009a_write_reg(&pObj->Ctx, 0xF5, &short_reg_data[48], 0);
 8002d28:	4426      	add	r6, r4
  ret += otm8009a_write_reg(&pObj->Ctx, OTM8009A_CMD_NOP, &short_reg_data[49], 0);
 8002d2a:	f000 f9e9 	bl	8003100 <otm8009a_write_reg>
  ret += otm8009a_write_reg(&pObj->Ctx, 0xC6, &short_reg_data[50], 0);
 8002d2e:	2300      	movs	r3, #0
  ret += otm8009a_write_reg(&pObj->Ctx, OTM8009A_CMD_NOP, &short_reg_data[49], 0);
 8002d30:	4604      	mov	r4, r0
  ret += otm8009a_write_reg(&pObj->Ctx, 0xC6, &short_reg_data[50], 0);
 8002d32:	4a7e      	ldr	r2, [pc, #504]	; (8002f2c <OTM8009A_Init+0x7f4>)
 8002d34:	21c6      	movs	r1, #198	; 0xc6
 8002d36:	4638      	mov	r0, r7
 8002d38:	f000 f9e2 	bl	8003100 <otm8009a_write_reg>
  ret += otm8009a_write_reg(&pObj->Ctx, OTM8009A_CMD_NOP, &short_reg_data[1], 0);
 8002d3c:	2300      	movs	r3, #0
  ret += otm8009a_write_reg(&pObj->Ctx, OTM8009A_CMD_NOP, &short_reg_data[49], 0);
 8002d3e:	4426      	add	r6, r4
  ret += otm8009a_write_reg(&pObj->Ctx, 0xC6, &short_reg_data[50], 0);
 8002d40:	4604      	mov	r4, r0
  ret += otm8009a_write_reg(&pObj->Ctx, OTM8009A_CMD_NOP, &short_reg_data[1], 0);
 8002d42:	4619      	mov	r1, r3
 8002d44:	4a7a      	ldr	r2, [pc, #488]	; (8002f30 <OTM8009A_Init+0x7f8>)
 8002d46:	4638      	mov	r0, r7
  ret += otm8009a_write_reg(&pObj->Ctx, 0xC6, &short_reg_data[50], 0);
 8002d48:	4434      	add	r4, r6
  ret += otm8009a_write_reg(&pObj->Ctx, OTM8009A_CMD_NOP, &short_reg_data[1], 0);
 8002d4a:	f000 f9d9 	bl	8003100 <otm8009a_write_reg>
  ret += otm8009a_write_reg(&pObj->Ctx, 0xFF, lcd_reg_data25, 3);
 8002d4e:	2303      	movs	r3, #3
  ret += otm8009a_write_reg(&pObj->Ctx, OTM8009A_CMD_NOP, &short_reg_data[1], 0);
 8002d50:	4606      	mov	r6, r0
  ret += otm8009a_write_reg(&pObj->Ctx, 0xFF, lcd_reg_data25, 3);
 8002d52:	4a78      	ldr	r2, [pc, #480]	; (8002f34 <OTM8009A_Init+0x7fc>)
 8002d54:	21ff      	movs	r1, #255	; 0xff
 8002d56:	4638      	mov	r0, r7
 8002d58:	f000 f9d2 	bl	8003100 <otm8009a_write_reg>
  ret += otm8009a_write_reg(&pObj->Ctx, OTM8009A_CMD_NOP, &short_reg_data[1], 0);
 8002d5c:	2300      	movs	r3, #0
  ret += otm8009a_write_reg(&pObj->Ctx, OTM8009A_CMD_NOP, &short_reg_data[1], 0);
 8002d5e:	4434      	add	r4, r6
  ret += otm8009a_write_reg(&pObj->Ctx, OTM8009A_CMD_NOP, &short_reg_data[1], 0);
 8002d60:	4a73      	ldr	r2, [pc, #460]	; (8002f30 <OTM8009A_Init+0x7f8>)
 8002d62:	4619      	mov	r1, r3
  ret += otm8009a_write_reg(&pObj->Ctx, 0xFF, lcd_reg_data25, 3);
 8002d64:	4606      	mov	r6, r0
  ret += otm8009a_write_reg(&pObj->Ctx, OTM8009A_CMD_NOP, &short_reg_data[1], 0);
 8002d66:	4638      	mov	r0, r7
 8002d68:	f000 f9ca 	bl	8003100 <otm8009a_write_reg>
  ret += otm8009a_write_reg(&pObj->Ctx, OTM8009A_CMD_NOP, &short_reg_data[1], 0);
 8002d6c:	2300      	movs	r3, #0
  ret += otm8009a_write_reg(&pObj->Ctx, 0xFF, lcd_reg_data25, 3);
 8002d6e:	4426      	add	r6, r4
  ret += otm8009a_write_reg(&pObj->Ctx, OTM8009A_CMD_NOP, &short_reg_data[1], 0);
 8002d70:	4604      	mov	r4, r0
  ret += otm8009a_write_reg(&pObj->Ctx, OTM8009A_CMD_NOP, &short_reg_data[1], 0);
 8002d72:	4619      	mov	r1, r3
 8002d74:	4a6e      	ldr	r2, [pc, #440]	; (8002f30 <OTM8009A_Init+0x7f8>)
 8002d76:	4638      	mov	r0, r7
  ret += otm8009a_write_reg(&pObj->Ctx, OTM8009A_CMD_NOP, &short_reg_data[1], 0);
 8002d78:	4426      	add	r6, r4
  ret += otm8009a_write_reg(&pObj->Ctx, OTM8009A_CMD_NOP, &short_reg_data[1], 0);
 8002d7a:	f000 f9c1 	bl	8003100 <otm8009a_write_reg>
  ret += otm8009a_write_reg(&pObj->Ctx, 0xE1, lcd_reg_data3, 16);
 8002d7e:	2310      	movs	r3, #16
  ret += otm8009a_write_reg(&pObj->Ctx, OTM8009A_CMD_NOP, &short_reg_data[1], 0);
 8002d80:	4604      	mov	r4, r0
  ret += otm8009a_write_reg(&pObj->Ctx, 0xE1, lcd_reg_data3, 16);
 8002d82:	4a6d      	ldr	r2, [pc, #436]	; (8002f38 <OTM8009A_Init+0x800>)
 8002d84:	21e1      	movs	r1, #225	; 0xe1
 8002d86:	4638      	mov	r0, r7
 8002d88:	f000 f9ba 	bl	8003100 <otm8009a_write_reg>
  ret += otm8009a_write_reg(&pObj->Ctx, OTM8009A_CMD_NOP, &short_reg_data[1], 0);
 8002d8c:	2300      	movs	r3, #0
  ret += otm8009a_write_reg(&pObj->Ctx, OTM8009A_CMD_NOP, &short_reg_data[1], 0);
 8002d8e:	4434      	add	r4, r6
  ret += otm8009a_write_reg(&pObj->Ctx, 0xE1, lcd_reg_data3, 16);
 8002d90:	4606      	mov	r6, r0
  ret += otm8009a_write_reg(&pObj->Ctx, OTM8009A_CMD_NOP, &short_reg_data[1], 0);
 8002d92:	4619      	mov	r1, r3
 8002d94:	4a66      	ldr	r2, [pc, #408]	; (8002f30 <OTM8009A_Init+0x7f8>)
 8002d96:	4638      	mov	r0, r7
  ret += otm8009a_write_reg(&pObj->Ctx, 0xE1, lcd_reg_data3, 16);
 8002d98:	4434      	add	r4, r6
  ret += otm8009a_write_reg(&pObj->Ctx, OTM8009A_CMD_NOP, &short_reg_data[1], 0);
 8002d9a:	f000 f9b1 	bl	8003100 <otm8009a_write_reg>
 8002d9e:	4605      	mov	r5, r0
  ret += otm8009a_write_reg(&pObj->Ctx, 0xE2, lcd_reg_data4, 16);
 8002da0:	2310      	movs	r3, #16
 8002da2:	4a66      	ldr	r2, [pc, #408]	; (8002f3c <OTM8009A_Init+0x804>)
 8002da4:	21e2      	movs	r1, #226	; 0xe2
 8002da6:	4638      	mov	r0, r7
 8002da8:	f000 f9aa 	bl	8003100 <otm8009a_write_reg>
  ret += otm8009a_write_reg(&pObj->Ctx, OTM8009A_CMD_NOP, &short_reg_data[1], 0);
 8002dac:	4425      	add	r5, r4
  ret += otm8009a_write_reg(&pObj->Ctx, 0xE2, lcd_reg_data4, 16);
 8002dae:	4604      	mov	r4, r0
  ret += otm8009a_write_reg(&pObj->Ctx, OTM8009A_CMD_SLPOUT, &short_reg_data[36], 0);
 8002db0:	2300      	movs	r3, #0
 8002db2:	4a63      	ldr	r2, [pc, #396]	; (8002f40 <OTM8009A_Init+0x808>)
 8002db4:	2111      	movs	r1, #17
  ret += otm8009a_write_reg(&pObj->Ctx, 0xE2, lcd_reg_data4, 16);
 8002db6:	442c      	add	r4, r5
  ret += otm8009a_write_reg(&pObj->Ctx, OTM8009A_CMD_SLPOUT, &short_reg_data[36], 0);
 8002db8:	4638      	mov	r0, r7
 8002dba:	f000 f9a1 	bl	8003100 <otm8009a_write_reg>
  tickstart = pObj->IO.GetTick();
 8002dbe:	f8d8 300c 	ldr.w	r3, [r8, #12]
  ret += otm8009a_write_reg(&pObj->Ctx, OTM8009A_CMD_SLPOUT, &short_reg_data[36], 0);
 8002dc2:	4404      	add	r4, r0
  tickstart = pObj->IO.GetTick();
 8002dc4:	4798      	blx	r3
 8002dc6:	4605      	mov	r5, r0
  while((pObj->IO.GetTick() - tickstart) < Delay)
 8002dc8:	f8d8 300c 	ldr.w	r3, [r8, #12]
 8002dcc:	4798      	blx	r3
 8002dce:	1b40      	subs	r0, r0, r5
 8002dd0:	2877      	cmp	r0, #119	; 0x77
 8002dd2:	d9f9      	bls.n	8002dc8 <OTM8009A_Init+0x690>
  switch(ColorCoding)
 8002dd4:	f1b9 0f00 	cmp.w	r9, #0
 8002dd8:	d074      	beq.n	8002ec4 <OTM8009A_Init+0x78c>
 8002dda:	f1b9 0f02 	cmp.w	r9, #2
 8002dde:	d14f      	bne.n	8002e80 <OTM8009A_Init+0x748>
    ret += otm8009a_write_reg(&pObj->Ctx, OTM8009A_CMD_COLMOD, &short_reg_data[37], 0);
 8002de0:	2300      	movs	r3, #0
 8002de2:	4a58      	ldr	r2, [pc, #352]	; (8002f44 <OTM8009A_Init+0x80c>)
    ret += otm8009a_write_reg(&pObj->Ctx, OTM8009A_CMD_COLMOD, &short_reg_data[38], 0);
 8002de4:	213a      	movs	r1, #58	; 0x3a
 8002de6:	4638      	mov	r0, r7
 8002de8:	f000 f98a 	bl	8003100 <otm8009a_write_reg>
    OTM8009ACtx.ColorCode = OTM8009A_FORMAT_RGB888;
 8002dec:	4d56      	ldr	r5, [pc, #344]	; (8002f48 <OTM8009A_Init+0x810>)
  if(Orientation == OTM8009A_ORIENTATION_LANDSCAPE)
 8002dee:	f1ba 0f01 	cmp.w	sl, #1
    ret += otm8009a_write_reg(&pObj->Ctx, OTM8009A_CMD_COLMOD, &short_reg_data[38], 0);
 8002df2:	4404      	add	r4, r0
    OTM8009ACtx.ColorCode = OTM8009A_FORMAT_RGB888;
 8002df4:	f8c5 9004 	str.w	r9, [r5, #4]
  if(Orientation == OTM8009A_ORIENTATION_LANDSCAPE)
 8002df8:	d046      	beq.n	8002e88 <OTM8009A_Init+0x750>
    OTM8009ACtx.Orientation = OTM8009A_ORIENTATION_PORTRAIT;
 8002dfa:	2300      	movs	r3, #0
 8002dfc:	602b      	str	r3, [r5, #0]
  ret += otm8009a_write_reg(&pObj->Ctx, OTM8009A_CMD_WRDISBV, &short_reg_data[39], 0);
 8002dfe:	2300      	movs	r3, #0
 8002e00:	4a52      	ldr	r2, [pc, #328]	; (8002f4c <OTM8009A_Init+0x814>)
 8002e02:	2151      	movs	r1, #81	; 0x51
 8002e04:	4638      	mov	r0, r7
  OTM8009ACtx.Brightness = ((uint32_t)short_reg_data[39] / 0xFFU) * 100U;
 8002e06:	469a      	mov	sl, r3
  ret += otm8009a_write_reg(&pObj->Ctx, OTM8009A_CMD_WRDISBV, &short_reg_data[39], 0);
 8002e08:	f000 f97a 	bl	8003100 <otm8009a_write_reg>
  ret += otm8009a_write_reg(&pObj->Ctx, OTM8009A_CMD_WRCTRLD, &short_reg_data[40], 0);
 8002e0c:	4a50      	ldr	r2, [pc, #320]	; (8002f50 <OTM8009A_Init+0x818>)
  ret += otm8009a_write_reg(&pObj->Ctx, OTM8009A_CMD_WRDISBV, &short_reg_data[39], 0);
 8002e0e:	eb04 0900 	add.w	r9, r4, r0
  ret += otm8009a_write_reg(&pObj->Ctx, OTM8009A_CMD_WRCTRLD, &short_reg_data[40], 0);
 8002e12:	4653      	mov	r3, sl
 8002e14:	2153      	movs	r1, #83	; 0x53
 8002e16:	4638      	mov	r0, r7
  OTM8009ACtx.Brightness = ((uint32_t)short_reg_data[39] / 0xFFU) * 100U;
 8002e18:	f8c5 a008 	str.w	sl, [r5, #8]
  ret += otm8009a_write_reg(&pObj->Ctx, OTM8009A_CMD_WRCTRLD, &short_reg_data[40], 0);
 8002e1c:	f000 f970 	bl	8003100 <otm8009a_write_reg>
 8002e20:	4604      	mov	r4, r0
  ret += otm8009a_write_reg(&pObj->Ctx, OTM8009A_CMD_WRCABC, &short_reg_data[41], 0);
 8002e22:	4653      	mov	r3, sl
 8002e24:	4a4b      	ldr	r2, [pc, #300]	; (8002f54 <OTM8009A_Init+0x81c>)
 8002e26:	2155      	movs	r1, #85	; 0x55
 8002e28:	4638      	mov	r0, r7
 8002e2a:	f000 f969 	bl	8003100 <otm8009a_write_reg>
  ret += otm8009a_write_reg(&pObj->Ctx, OTM8009A_CMD_WRCTRLD, &short_reg_data[40], 0);
 8002e2e:	444c      	add	r4, r9
  ret += otm8009a_write_reg(&pObj->Ctx, OTM8009A_CMD_WRCABC, &short_reg_data[41], 0);
 8002e30:	4606      	mov	r6, r0
  ret += otm8009a_write_reg(&pObj->Ctx, OTM8009A_CMD_WRCABCMB, &short_reg_data[42], 0);
 8002e32:	4653      	mov	r3, sl
 8002e34:	4a48      	ldr	r2, [pc, #288]	; (8002f58 <OTM8009A_Init+0x820>)
 8002e36:	215e      	movs	r1, #94	; 0x5e
 8002e38:	4638      	mov	r0, r7
  ret += otm8009a_write_reg(&pObj->Ctx, OTM8009A_CMD_WRCABC, &short_reg_data[41], 0);
 8002e3a:	4434      	add	r4, r6
  ret += otm8009a_write_reg(&pObj->Ctx, OTM8009A_CMD_WRCABCMB, &short_reg_data[42], 0);
 8002e3c:	f000 f960 	bl	8003100 <otm8009a_write_reg>
 8002e40:	4606      	mov	r6, r0
  ret += otm8009a_write_reg(&pObj->Ctx, OTM8009A_CMD_DISPON, &short_reg_data[43], 0);
 8002e42:	4653      	mov	r3, sl
 8002e44:	4a45      	ldr	r2, [pc, #276]	; (8002f5c <OTM8009A_Init+0x824>)
 8002e46:	2129      	movs	r1, #41	; 0x29
 8002e48:	4638      	mov	r0, r7
 8002e4a:	f000 f959 	bl	8003100 <otm8009a_write_reg>
  ret += otm8009a_write_reg(&pObj->Ctx, OTM8009A_CMD_WRCABCMB, &short_reg_data[42], 0);
 8002e4e:	4426      	add	r6, r4
  ret += otm8009a_write_reg(&pObj->Ctx, OTM8009A_CMD_DISPON, &short_reg_data[43], 0);
 8002e50:	4604      	mov	r4, r0
  ret += otm8009a_write_reg(&pObj->Ctx, OTM8009A_CMD_NOP, &short_reg_data[1], 0);
 8002e52:	4653      	mov	r3, sl
 8002e54:	4651      	mov	r1, sl
 8002e56:	4a36      	ldr	r2, [pc, #216]	; (8002f30 <OTM8009A_Init+0x7f8>)
 8002e58:	4638      	mov	r0, r7
  ret += otm8009a_write_reg(&pObj->Ctx, OTM8009A_CMD_DISPON, &short_reg_data[43], 0);
 8002e5a:	4426      	add	r6, r4
  ret += otm8009a_write_reg(&pObj->Ctx, OTM8009A_CMD_NOP, &short_reg_data[1], 0);
 8002e5c:	f000 f950 	bl	8003100 <otm8009a_write_reg>
 8002e60:	4604      	mov	r4, r0
  ret += otm8009a_write_reg(&pObj->Ctx, OTM8009A_CMD_RAMWR, &short_reg_data[44], 0);
 8002e62:	4653      	mov	r3, sl
 8002e64:	4638      	mov	r0, r7
  ret += otm8009a_write_reg(&pObj->Ctx, OTM8009A_CMD_NOP, &short_reg_data[1], 0);
 8002e66:	4434      	add	r4, r6
  ret += otm8009a_write_reg(&pObj->Ctx, OTM8009A_CMD_RAMWR, &short_reg_data[44], 0);
 8002e68:	4a3d      	ldr	r2, [pc, #244]	; (8002f60 <OTM8009A_Init+0x828>)
 8002e6a:	212c      	movs	r1, #44	; 0x2c
 8002e6c:	f000 f948 	bl	8003100 <otm8009a_write_reg>
  if(ret != OTM8009A_OK)
 8002e70:	42c4      	cmn	r4, r0
}
 8002e72:	bf14      	ite	ne
 8002e74:	f04f 30ff 	movne.w	r0, #4294967295
 8002e78:	4650      	moveq	r0, sl
 8002e7a:	b002      	add	sp, #8
 8002e7c:	e8bd 87f0 	ldmia.w	sp!, {r4, r5, r6, r7, r8, r9, sl, pc}
  if(Orientation == OTM8009A_ORIENTATION_LANDSCAPE)
 8002e80:	f1ba 0f01 	cmp.w	sl, #1
 8002e84:	4d30      	ldr	r5, [pc, #192]	; (8002f48 <OTM8009A_Init+0x810>)
 8002e86:	d1b8      	bne.n	8002dfa <OTM8009A_Init+0x6c2>
	uint8_t tmp = OTM8009A_MADCTR_MODE_LANDSCAPE;
 8002e88:	2660      	movs	r6, #96	; 0x60
    ret += otm8009a_write_reg(&pObj->Ctx, OTM8009A_CMD_MADCTR, &tmp, 0);
 8002e8a:	2300      	movs	r3, #0
 8002e8c:	f10d 0207 	add.w	r2, sp, #7
 8002e90:	2136      	movs	r1, #54	; 0x36
 8002e92:	4638      	mov	r0, r7
	uint8_t tmp = OTM8009A_MADCTR_MODE_LANDSCAPE;
 8002e94:	f88d 6007 	strb.w	r6, [sp, #7]
    ret += otm8009a_write_reg(&pObj->Ctx, OTM8009A_CMD_MADCTR, &tmp, 0);
 8002e98:	f000 f932 	bl	8003100 <otm8009a_write_reg>
 8002e9c:	4606      	mov	r6, r0
    ret += otm8009a_write_reg(&pObj->Ctx, OTM8009A_CMD_CASET, LcdRegData27, 4);
 8002e9e:	2304      	movs	r3, #4
 8002ea0:	4a30      	ldr	r2, [pc, #192]	; (8002f64 <OTM8009A_Init+0x82c>)
 8002ea2:	212a      	movs	r1, #42	; 0x2a
 8002ea4:	4638      	mov	r0, r7
 8002ea6:	f000 f92b 	bl	8003100 <otm8009a_write_reg>
    ret += otm8009a_write_reg(&pObj->Ctx, OTM8009A_CMD_MADCTR, &tmp, 0);
 8002eaa:	4434      	add	r4, r6
    ret += otm8009a_write_reg(&pObj->Ctx, OTM8009A_CMD_CASET, LcdRegData27, 4);
 8002eac:	4606      	mov	r6, r0
    ret += otm8009a_write_reg(&pObj->Ctx, OTM8009A_CMD_PASET, LcdRegData28, 4);
 8002eae:	2304      	movs	r3, #4
 8002eb0:	4a2d      	ldr	r2, [pc, #180]	; (8002f68 <OTM8009A_Init+0x830>)
 8002eb2:	212b      	movs	r1, #43	; 0x2b
    ret += otm8009a_write_reg(&pObj->Ctx, OTM8009A_CMD_CASET, LcdRegData27, 4);
 8002eb4:	4434      	add	r4, r6
    ret += otm8009a_write_reg(&pObj->Ctx, OTM8009A_CMD_PASET, LcdRegData28, 4);
 8002eb6:	4638      	mov	r0, r7
 8002eb8:	f000 f922 	bl	8003100 <otm8009a_write_reg>
    OTM8009ACtx.Orientation = OTM8009A_ORIENTATION_LANDSCAPE;
 8002ebc:	f8c5 a000 	str.w	sl, [r5]
    ret += otm8009a_write_reg(&pObj->Ctx, OTM8009A_CMD_PASET, LcdRegData28, 4);
 8002ec0:	4404      	add	r4, r0
    OTM8009ACtx.Orientation = OTM8009A_ORIENTATION_LANDSCAPE;
 8002ec2:	e79c      	b.n	8002dfe <OTM8009A_Init+0x6c6>
    ret += otm8009a_write_reg(&pObj->Ctx, OTM8009A_CMD_COLMOD, &short_reg_data[38], 0);
 8002ec4:	464b      	mov	r3, r9
 8002ec6:	4a29      	ldr	r2, [pc, #164]	; (8002f6c <OTM8009A_Init+0x834>)
 8002ec8:	e78c      	b.n	8002de4 <OTM8009A_Init+0x6ac>
 8002eca:	bf00      	nop
 8002ecc:	080079aa 	.word	0x080079aa
 8002ed0:	08007898 	.word	0x08007898
 8002ed4:	080079ab 	.word	0x080079ab
 8002ed8:	080078a4 	.word	0x080078a4
 8002edc:	080079ac 	.word	0x080079ac
 8002ee0:	080078b4 	.word	0x080078b4
 8002ee4:	080079ae 	.word	0x080079ae
 8002ee8:	080078c4 	.word	0x080078c4
 8002eec:	080079af 	.word	0x080079af
 8002ef0:	080078d0 	.word	0x080078d0
 8002ef4:	0800798e 	.word	0x0800798e
 8002ef8:	080078dc 	.word	0x080078dc
 8002efc:	080079ad 	.word	0x080079ad
 8002f00:	080078ec 	.word	0x080078ec
 8002f04:	080079a9 	.word	0x080079a9
 8002f08:	080078fc 	.word	0x080078fc
 8002f0c:	0800790c 	.word	0x0800790c
 8002f10:	08007918 	.word	0x08007918
 8002f14:	08007928 	.word	0x08007928
 8002f18:	08007999 	.word	0x08007999
 8002f1c:	080079ba 	.word	0x080079ba
 8002f20:	080079bb 	.word	0x080079bb
 8002f24:	080079bc 	.word	0x080079bc
 8002f28:	080079bd 	.word	0x080079bd
 8002f2c:	080079be 	.word	0x080079be
 8002f30:	0800798d 	.word	0x0800798d
 8002f34:	08007938 	.word	0x08007938
 8002f38:	0800793c 	.word	0x0800793c
 8002f3c:	0800794c 	.word	0x0800794c
 8002f40:	080079b0 	.word	0x080079b0
 8002f44:	080079b1 	.word	0x080079b1
 8002f48:	240008fc 	.word	0x240008fc
 8002f4c:	080079b3 	.word	0x080079b3
 8002f50:	080079b4 	.word	0x080079b4
 8002f54:	080079b5 	.word	0x080079b5
 8002f58:	080079b6 	.word	0x080079b6
 8002f5c:	080079b7 	.word	0x080079b7
 8002f60:	080079b8 	.word	0x080079b8
 8002f64:	08007854 	.word	0x08007854
 8002f68:	08007858 	.word	0x08007858
 8002f6c:	080079b2 	.word	0x080079b2

08002f70 <OTM8009A_SetBrightness>:
{
 8002f70:	b570      	push	{r4, r5, r6, lr}
  uint8_t brightness = (uint8_t)((Brightness * 255U)/100U);
 8002f72:	ebc1 2401 	rsb	r4, r1, r1, lsl #8
 8002f76:	4e0b      	ldr	r6, [pc, #44]	; (8002fa4 <OTM8009A_SetBrightness+0x34>)
{
 8002f78:	b082      	sub	sp, #8
 8002f7a:	460d      	mov	r5, r1
  uint8_t brightness = (uint8_t)((Brightness * 255U)/100U);
 8002f7c:	fba6 6404 	umull	r6, r4, r6, r4
  if(otm8009a_write_reg(&pObj->Ctx, OTM8009A_CMD_WRDISBV, &brightness, 0) != OTM8009A_OK)
 8002f80:	2300      	movs	r3, #0
 8002f82:	f10d 0207 	add.w	r2, sp, #7
 8002f86:	3010      	adds	r0, #16
  uint8_t brightness = (uint8_t)((Brightness * 255U)/100U);
 8002f88:	0964      	lsrs	r4, r4, #5
  if(otm8009a_write_reg(&pObj->Ctx, OTM8009A_CMD_WRDISBV, &brightness, 0) != OTM8009A_OK)
 8002f8a:	2151      	movs	r1, #81	; 0x51
  uint8_t brightness = (uint8_t)((Brightness * 255U)/100U);
 8002f8c:	f88d 4007 	strb.w	r4, [sp, #7]
  if(otm8009a_write_reg(&pObj->Ctx, OTM8009A_CMD_WRDISBV, &brightness, 0) != OTM8009A_OK)
 8002f90:	f000 f8b6 	bl	8003100 <otm8009a_write_reg>
 8002f94:	b918      	cbnz	r0, 8002f9e <OTM8009A_SetBrightness+0x2e>
    OTM8009ACtx.Brightness = Brightness;
 8002f96:	4b04      	ldr	r3, [pc, #16]	; (8002fa8 <OTM8009A_SetBrightness+0x38>)
 8002f98:	609d      	str	r5, [r3, #8]
}
 8002f9a:	b002      	add	sp, #8
 8002f9c:	bd70      	pop	{r4, r5, r6, pc}
    ret = OTM8009A_ERROR;
 8002f9e:	f04f 30ff 	mov.w	r0, #4294967295
  return ret;  
 8002fa2:	e7fa      	b.n	8002f9a <OTM8009A_SetBrightness+0x2a>
 8002fa4:	51eb851f 	.word	0x51eb851f
 8002fa8:	240008fc 	.word	0x240008fc

08002fac <OTM8009A_DisplayOn>:
{
 8002fac:	b500      	push	{lr}
 8002fae:	b083      	sub	sp, #12
  uint8_t display = 0;
 8002fb0:	2300      	movs	r3, #0
  if(otm8009a_write_reg(&pObj->Ctx, OTM8009A_CMD_DISPON, &display, 0) != OTM8009A_OK)
 8002fb2:	2129      	movs	r1, #41	; 0x29
 8002fb4:	3010      	adds	r0, #16
 8002fb6:	f10d 0207 	add.w	r2, sp, #7
  uint8_t display = 0;
 8002fba:	f88d 3007 	strb.w	r3, [sp, #7]
  if(otm8009a_write_reg(&pObj->Ctx, OTM8009A_CMD_DISPON, &display, 0) != OTM8009A_OK)
 8002fbe:	f000 f89f 	bl	8003100 <otm8009a_write_reg>
 8002fc2:	3800      	subs	r0, #0
 8002fc4:	bf18      	it	ne
 8002fc6:	2001      	movne	r0, #1
}
 8002fc8:	4240      	negs	r0, r0
 8002fca:	b003      	add	sp, #12
 8002fcc:	f85d fb04 	ldr.w	pc, [sp], #4

08002fd0 <OTM8009A_DisplayOff>:
{
 8002fd0:	b500      	push	{lr}
 8002fd2:	b083      	sub	sp, #12
  uint8_t display = 0;
 8002fd4:	2300      	movs	r3, #0
  if(otm8009a_write_reg(&pObj->Ctx, OTM8009A_CMD_DISPOFF, &display, 0) != OTM8009A_OK)
 8002fd6:	2128      	movs	r1, #40	; 0x28
 8002fd8:	3010      	adds	r0, #16
 8002fda:	f10d 0207 	add.w	r2, sp, #7
  uint8_t display = 0;
 8002fde:	f88d 3007 	strb.w	r3, [sp, #7]
  if(otm8009a_write_reg(&pObj->Ctx, OTM8009A_CMD_DISPOFF, &display, 0) != OTM8009A_OK)
 8002fe2:	f000 f88d 	bl	8003100 <otm8009a_write_reg>
 8002fe6:	3800      	subs	r0, #0
 8002fe8:	bf18      	it	ne
 8002fea:	2001      	movne	r0, #1
}
 8002fec:	4240      	negs	r0, r0
 8002fee:	b003      	add	sp, #12
 8002ff0:	f85d fb04 	ldr.w	pc, [sp], #4

08002ff4 <OTM8009A_SetOrientation>:
{
 8002ff4:	b5f0      	push	{r4, r5, r6, r7, lr}
  uint8_t tmp = OTM8009A_MADCTR_MODE_LANDSCAPE;
 8002ff6:	2360      	movs	r3, #96	; 0x60
{
 8002ff8:	b083      	sub	sp, #12
  uint8_t tmp1 = OTM8009A_MADCTR_MODE_PORTRAIT;
 8002ffa:	2600      	movs	r6, #0
  if((Orientation != OTM8009A_ORIENTATION_LANDSCAPE) && (Orientation != OTM8009A_ORIENTATION_PORTRAIT))
 8002ffc:	2901      	cmp	r1, #1
  uint8_t tmp = OTM8009A_MADCTR_MODE_LANDSCAPE;
 8002ffe:	f88d 3006 	strb.w	r3, [sp, #6]
  uint8_t tmp1 = OTM8009A_MADCTR_MODE_PORTRAIT;
 8003002:	f88d 6007 	strb.w	r6, [sp, #7]
  if((Orientation != OTM8009A_ORIENTATION_LANDSCAPE) && (Orientation != OTM8009A_ORIENTATION_PORTRAIT))
 8003006:	d83e      	bhi.n	8003086 <OTM8009A_SetOrientation+0x92>
  else if(Orientation == OTM8009A_ORIENTATION_LANDSCAPE)
 8003008:	d020      	beq.n	800304c <OTM8009A_SetOrientation+0x58>
    ret = otm8009a_write_reg(&pObj->Ctx, OTM8009A_CMD_MADCTR, &tmp1, 0);
 800300a:	f100 0510 	add.w	r5, r0, #16
 800300e:	4633      	mov	r3, r6
 8003010:	f10d 0207 	add.w	r2, sp, #7
 8003014:	2136      	movs	r1, #54	; 0x36
 8003016:	4628      	mov	r0, r5
 8003018:	f000 f872 	bl	8003100 <otm8009a_write_reg>
    ret += otm8009a_write_reg(&pObj->Ctx, OTM8009A_CMD_CASET, LcdRegData27, 4);
 800301c:	2304      	movs	r3, #4
    ret = otm8009a_write_reg(&pObj->Ctx, OTM8009A_CMD_MADCTR, &tmp1, 0);
 800301e:	4604      	mov	r4, r0
    ret += otm8009a_write_reg(&pObj->Ctx, OTM8009A_CMD_CASET, LcdRegData27, 4);
 8003020:	4a1a      	ldr	r2, [pc, #104]	; (800308c <OTM8009A_SetOrientation+0x98>)
 8003022:	212a      	movs	r1, #42	; 0x2a
 8003024:	4628      	mov	r0, r5
 8003026:	f000 f86b 	bl	8003100 <otm8009a_write_reg>
 800302a:	4607      	mov	r7, r0
    ret += otm8009a_write_reg(&pObj->Ctx, OTM8009A_CMD_PASET, LcdRegData28, 4);
 800302c:	2304      	movs	r3, #4
 800302e:	4628      	mov	r0, r5
    ret += otm8009a_write_reg(&pObj->Ctx, OTM8009A_CMD_CASET, LcdRegData27, 4);
 8003030:	443c      	add	r4, r7
    ret += otm8009a_write_reg(&pObj->Ctx, OTM8009A_CMD_PASET, LcdRegData28, 4);
 8003032:	4a17      	ldr	r2, [pc, #92]	; (8003090 <OTM8009A_SetOrientation+0x9c>)
 8003034:	212b      	movs	r1, #43	; 0x2b
 8003036:	f000 f863 	bl	8003100 <otm8009a_write_reg>
    OTM8009ACtx.Orientation = OTM8009A_ORIENTATION_PORTRAIT;
 800303a:	4b16      	ldr	r3, [pc, #88]	; (8003094 <OTM8009A_SetOrientation+0xa0>)
    ret += otm8009a_write_reg(&pObj->Ctx, OTM8009A_CMD_PASET, LcdRegData28, 4);
 800303c:	4420      	add	r0, r4
    OTM8009ACtx.Orientation = OTM8009A_ORIENTATION_PORTRAIT;
 800303e:	601e      	str	r6, [r3, #0]
  if(ret != OTM8009A_OK)
 8003040:	3800      	subs	r0, #0
 8003042:	bf18      	it	ne
 8003044:	2001      	movne	r0, #1
 8003046:	4240      	negs	r0, r0
}
 8003048:	b003      	add	sp, #12
 800304a:	bdf0      	pop	{r4, r5, r6, r7, pc}
    ret = otm8009a_write_reg(&pObj->Ctx, OTM8009A_CMD_MADCTR, &tmp, 0);
 800304c:	f100 0510 	add.w	r5, r0, #16
 8003050:	4633      	mov	r3, r6
 8003052:	460f      	mov	r7, r1
 8003054:	f10d 0206 	add.w	r2, sp, #6
 8003058:	2136      	movs	r1, #54	; 0x36
 800305a:	4628      	mov	r0, r5
 800305c:	f000 f850 	bl	8003100 <otm8009a_write_reg>
    ret += otm8009a_write_reg(&pObj->Ctx, OTM8009A_CMD_CASET, LcdRegData27, 4);
 8003060:	2304      	movs	r3, #4
    ret = otm8009a_write_reg(&pObj->Ctx, OTM8009A_CMD_MADCTR, &tmp, 0);
 8003062:	4604      	mov	r4, r0
    ret += otm8009a_write_reg(&pObj->Ctx, OTM8009A_CMD_CASET, LcdRegData27, 4);
 8003064:	4a09      	ldr	r2, [pc, #36]	; (800308c <OTM8009A_SetOrientation+0x98>)
 8003066:	212a      	movs	r1, #42	; 0x2a
 8003068:	4628      	mov	r0, r5
 800306a:	f000 f849 	bl	8003100 <otm8009a_write_reg>
 800306e:	4606      	mov	r6, r0
    ret += otm8009a_write_reg(&pObj->Ctx, OTM8009A_CMD_PASET, LcdRegData28, 4);
 8003070:	2304      	movs	r3, #4
 8003072:	4628      	mov	r0, r5
 8003074:	4a06      	ldr	r2, [pc, #24]	; (8003090 <OTM8009A_SetOrientation+0x9c>)
 8003076:	212b      	movs	r1, #43	; 0x2b
 8003078:	f000 f842 	bl	8003100 <otm8009a_write_reg>
    ret += otm8009a_write_reg(&pObj->Ctx, OTM8009A_CMD_CASET, LcdRegData27, 4);
 800307c:	4434      	add	r4, r6
    OTM8009ACtx.Orientation = OTM8009A_ORIENTATION_LANDSCAPE;
 800307e:	4b05      	ldr	r3, [pc, #20]	; (8003094 <OTM8009A_SetOrientation+0xa0>)
    ret += otm8009a_write_reg(&pObj->Ctx, OTM8009A_CMD_PASET, LcdRegData28, 4);
 8003080:	4420      	add	r0, r4
    OTM8009ACtx.Orientation = OTM8009A_ORIENTATION_LANDSCAPE;
 8003082:	601f      	str	r7, [r3, #0]
 8003084:	e7dc      	b.n	8003040 <OTM8009A_SetOrientation+0x4c>
    ret = OTM8009A_ERROR;
 8003086:	f04f 30ff 	mov.w	r0, #4294967295
  return ret;
 800308a:	e7dd      	b.n	8003048 <OTM8009A_SetOrientation+0x54>
 800308c:	08007854 	.word	0x08007854
 8003090:	08007858 	.word	0x08007858
 8003094:	240008fc 	.word	0x240008fc

08003098 <OTM8009A_ReadID>:
{ 
 8003098:	460a      	mov	r2, r1
  if(otm8009a_read_reg(&pObj->Ctx, OTM8009A_CMD_ID1, (uint8_t *)Id, 0)!= OTM8009A_OK)
 800309a:	3010      	adds	r0, #16
 800309c:	21da      	movs	r1, #218	; 0xda
{ 
 800309e:	b508      	push	{r3, lr}
  if(otm8009a_read_reg(&pObj->Ctx, OTM8009A_CMD_ID1, (uint8_t *)Id, 0)!= OTM8009A_OK)
 80030a0:	2300      	movs	r3, #0
 80030a2:	f000 f825 	bl	80030f0 <otm8009a_read_reg>
 80030a6:	3800      	subs	r0, #0
 80030a8:	bf18      	it	ne
 80030aa:	2001      	movne	r0, #1
}  
 80030ac:	4240      	negs	r0, r0
 80030ae:	bd08      	pop	{r3, pc}

080030b0 <OTM8009A_DrawVLine>:
 80030b0:	f04f 30ff 	mov.w	r0, #4294967295
 80030b4:	4770      	bx	lr
 80030b6:	bf00      	nop

080030b8 <OTM8009A_GetPixel>:
 80030b8:	f04f 30ff 	mov.w	r0, #4294967295
 80030bc:	4770      	bx	lr
 80030be:	bf00      	nop

080030c0 <OTM8009A_RegisterBusIO>:
  if(pObj == NULL)
 80030c0:	b178      	cbz	r0, 80030e2 <OTM8009A_RegisterBusIO+0x22>
    pObj->IO.WriteReg  = pIO->WriteReg;
 80030c2:	684a      	ldr	r2, [r1, #4]
 80030c4:	4603      	mov	r3, r0
  int32_t ret = OTM8009A_OK;
 80030c6:	2000      	movs	r0, #0
{
 80030c8:	b430      	push	{r4, r5}
    pObj->IO.GetTick   = pIO->GetTick;
 80030ca:	e9d1 5402 	ldrd	r5, r4, [r1, #8]
    pObj->Ctx.ReadReg  = OTM8009A_ReadRegWrap;
 80030ce:	4906      	ldr	r1, [pc, #24]	; (80030e8 <OTM8009A_RegisterBusIO+0x28>)
    pObj->IO.WriteReg  = pIO->WriteReg;
 80030d0:	605a      	str	r2, [r3, #4]
    pObj->Ctx.WriteReg = OTM8009A_WriteRegWrap;
 80030d2:	4a06      	ldr	r2, [pc, #24]	; (80030ec <OTM8009A_RegisterBusIO+0x2c>)
    pObj->IO.GetTick   = pIO->GetTick;
 80030d4:	e9c3 5402 	strd	r5, r4, [r3, #8]
    pObj->Ctx.ReadReg  = OTM8009A_ReadRegWrap;
 80030d8:	e9c3 1305 	strd	r1, r3, [r3, #20]
}
 80030dc:	bc30      	pop	{r4, r5}
    pObj->Ctx.WriteReg = OTM8009A_WriteRegWrap;
 80030de:	611a      	str	r2, [r3, #16]
}
 80030e0:	4770      	bx	lr
    ret = OTM8009A_ERROR;
 80030e2:	f04f 30ff 	mov.w	r0, #4294967295
}
 80030e6:	4770      	bx	lr
 80030e8:	08002719 	.word	0x08002719
 80030ec:	08002729 	.word	0x08002729

080030f0 <otm8009a_read_reg>:
*                 I2C or SPI reading functions
* Input         : Register Address, length of buffer
* Output        : Data Read
*******************************************************************************/
int32_t otm8009a_read_reg(otm8009a_ctx_t *ctx, uint16_t reg, uint8_t *pdata, uint16_t length)
{
 80030f0:	b410      	push	{r4}
  return ctx->ReadReg(ctx->handle, reg, pdata, length);
 80030f2:	e9d0 4001 	ldrd	r4, r0, [r0, #4]
 80030f6:	46a4      	mov	ip, r4
}
 80030f8:	f85d 4b04 	ldr.w	r4, [sp], #4
  return ctx->ReadReg(ctx->handle, reg, pdata, length);
 80030fc:	4760      	bx	ip
 80030fe:	bf00      	nop

08003100 <otm8009a_write_reg>:
*                 I2C or SPI writing function
* Input         : Register Address, Data to be written, length of buffer
* Output        : None
*******************************************************************************/
int32_t otm8009a_write_reg(otm8009a_ctx_t *ctx, uint16_t reg, const uint8_t *pdata, uint16_t length)
{
 8003100:	b410      	push	{r4}
  return ctx->WriteReg(ctx->handle, reg, (uint8_t *)pdata, length);
 8003102:	6804      	ldr	r4, [r0, #0]
 8003104:	6880      	ldr	r0, [r0, #8]
 8003106:	46a4      	mov	ip, r4
}
 8003108:	f85d 4b04 	ldr.w	r4, [sp], #4
  return ctx->WriteReg(ctx->handle, reg, (uint8_t *)pdata, length);
 800310c:	4760      	bx	ip
 800310e:	bf00      	nop

08003110 <BSP_GetTick>:
  * @brief  Delay function
  * @retval Tick value
  */
int32_t BSP_GetTick(void)
{
  return (int32_t)HAL_GetTick();
 8003110:	f000 be90 	b.w	8003e34 <HAL_GetTick>

08003114 <BSP_LCD_SetActiveLayer>:
  */
int32_t BSP_LCD_SetActiveLayer(uint32_t Instance, uint32_t LayerIndex)
{
  int32_t ret = BSP_ERROR_NONE;

  if(Instance >= LCD_INSTANCES_NBR)
 8003114:	b910      	cbnz	r0, 800311c <BSP_LCD_SetActiveLayer+0x8>
  {
    ret = BSP_ERROR_WRONG_PARAM;
  }
  else
  {
    Lcd_Ctx[Instance].ActiveLayer = LayerIndex;
 8003116:	4b03      	ldr	r3, [pc, #12]	; (8003124 <BSP_LCD_SetActiveLayer+0x10>)
 8003118:	6099      	str	r1, [r3, #8]
 800311a:	4770      	bx	lr
    ret = BSP_ERROR_WRONG_PARAM;
 800311c:	f06f 0001 	mvn.w	r0, #1
  }

  return ret;
}
 8003120:	4770      	bx	lr
 8003122:	bf00      	nop
 8003124:	24010ae8 	.word	0x24010ae8

08003128 <BSP_LCD_GetPixelFormat>:
  */
int32_t BSP_LCD_GetPixelFormat(uint32_t Instance, uint32_t *PixelFormat)
{
  int32_t ret = BSP_ERROR_NONE;

  if(Instance >= LCD_INSTANCES_NBR)
 8003128:	b918      	cbnz	r0, 8003132 <BSP_LCD_GetPixelFormat+0xa>
    ret = BSP_ERROR_WRONG_PARAM;
  }
  else
  {
    /* Only RGB565 format is supported */
    *PixelFormat = Lcd_Ctx[Instance].PixelFormat;
 800312a:	4b03      	ldr	r3, [pc, #12]	; (8003138 <BSP_LCD_GetPixelFormat+0x10>)
 800312c:	68db      	ldr	r3, [r3, #12]
 800312e:	600b      	str	r3, [r1, #0]
 8003130:	4770      	bx	lr
    ret = BSP_ERROR_WRONG_PARAM;
 8003132:	f06f 0001 	mvn.w	r0, #1
  }

  return ret;
}
 8003136:	4770      	bx	lr
 8003138:	24010ae8 	.word	0x24010ae8

0800313c <BSP_LCD_GetXSize>:
  */
int32_t BSP_LCD_GetXSize(uint32_t Instance, uint32_t *XSize)
{
  int32_t ret = BSP_ERROR_NONE;

  if(Instance >= LCD_INSTANCES_NBR)
 800313c:	b948      	cbnz	r0, 8003152 <BSP_LCD_GetXSize+0x16>
  {
    ret = BSP_ERROR_WRONG_PARAM;
  }
  else if(Lcd_Drv->GetXSize != NULL)
 800313e:	4b06      	ldr	r3, [pc, #24]	; (8003158 <BSP_LCD_GetXSize+0x1c>)
 8003140:	681b      	ldr	r3, [r3, #0]
 8003142:	6c5b      	ldr	r3, [r3, #68]	; 0x44
 8003144:	b11b      	cbz	r3, 800314e <BSP_LCD_GetXSize+0x12>
  {
    *XSize = Lcd_Ctx[Instance].XSize;
 8003146:	4b05      	ldr	r3, [pc, #20]	; (800315c <BSP_LCD_GetXSize+0x20>)
 8003148:	681b      	ldr	r3, [r3, #0]
 800314a:	600b      	str	r3, [r1, #0]
 800314c:	4770      	bx	lr
  int32_t ret = BSP_ERROR_NONE;
 800314e:	4618      	mov	r0, r3
  }

  return ret;
}
 8003150:	4770      	bx	lr
    ret = BSP_ERROR_WRONG_PARAM;
 8003152:	f06f 0001 	mvn.w	r0, #1
 8003156:	4770      	bx	lr
 8003158:	2400090c 	.word	0x2400090c
 800315c:	24010ae8 	.word	0x24010ae8

08003160 <BSP_LCD_GetYSize>:
  */
int32_t BSP_LCD_GetYSize(uint32_t Instance, uint32_t *YSize)
{
  int32_t ret = BSP_ERROR_NONE;

  if(Instance >= LCD_INSTANCES_NBR)
 8003160:	b948      	cbnz	r0, 8003176 <BSP_LCD_GetYSize+0x16>
  {
    ret = BSP_ERROR_WRONG_PARAM;
  }
  else if(Lcd_Drv->GetYSize != NULL)
 8003162:	4b06      	ldr	r3, [pc, #24]	; (800317c <BSP_LCD_GetYSize+0x1c>)
 8003164:	681b      	ldr	r3, [r3, #0]
 8003166:	6c9b      	ldr	r3, [r3, #72]	; 0x48
 8003168:	b11b      	cbz	r3, 8003172 <BSP_LCD_GetYSize+0x12>
  {
    *YSize = Lcd_Ctx[Instance].YSize;
 800316a:	4b05      	ldr	r3, [pc, #20]	; (8003180 <BSP_LCD_GetYSize+0x20>)
 800316c:	685b      	ldr	r3, [r3, #4]
 800316e:	600b      	str	r3, [r1, #0]
 8003170:	4770      	bx	lr
  int32_t ret = BSP_ERROR_NONE;
 8003172:	4618      	mov	r0, r3
  }

  return ret;
}
 8003174:	4770      	bx	lr
    ret = BSP_ERROR_WRONG_PARAM;
 8003176:	f06f 0001 	mvn.w	r0, #1
 800317a:	4770      	bx	lr
 800317c:	2400090c 	.word	0x2400090c
 8003180:	24010ae8 	.word	0x24010ae8

08003184 <BSP_LCD_FillRGBRect>:
  * @param  Width Rectangle width.
  * @param  Height Rectangle Height.
  * @retval BSP status.
  */
int32_t BSP_LCD_FillRGBRect(uint32_t Instance, uint32_t Xpos, uint32_t Ypos, uint8_t *pData, uint32_t Width, uint32_t Height)
{
 8003184:	e92d 4ff0 	stmdb	sp!, {r4, r5, r6, r7, r8, r9, sl, fp, lr}
 8003188:	e9dd b409 	ldrd	fp, r4, [sp, #36]	; 0x24
    }
    pData += Lcd_Ctx[Instance].BppFactor*Width;
  }
#else
  uint32_t color, j;
  for(i = 0; i < Height; i++)
 800318c:	b39c      	cbz	r4, 80031f6 <BSP_LCD_FillRGBRect+0x72>
  * @param  Color Pixel color
  * @retval BSP status
  */
int32_t BSP_LCD_WritePixel(uint32_t Instance, uint32_t Xpos, uint32_t Ypos, uint32_t Color)
{
  if(hlcd_ltdc.LayerCfg[Lcd_Ctx[Instance].ActiveLayer].PixelFormat == LTDC_PIXEL_FORMAT_ARGB8888)
 800318e:	ebc0 00c0 	rsb	r0, r0, r0, lsl #3
 8003192:	4d1a      	ldr	r5, [pc, #104]	; (80031fc <BSP_LCD_FillRGBRect+0x78>)
 8003194:	eb04 0802 	add.w	r8, r4, r2
 8003198:	eb0b 0e01 	add.w	lr, fp, r1
 800319c:	eb05 0580 	add.w	r5, r5, r0, lsl #2
 80031a0:	f8df c05c 	ldr.w	ip, [pc, #92]	; 8003200 <BSP_LCD_FillRGBRect+0x7c>
 80031a4:	2734      	movs	r7, #52	; 0x34
    for(j = 0; j < Width; j++)
 80031a6:	f1bb 0f00 	cmp.w	fp, #0
 80031aa:	d021      	beq.n	80031f0 <BSP_LCD_FillRGBRect+0x6c>
 80031ac:	460c      	mov	r4, r1
 80031ae:	e00a      	b.n	80031c6 <BSP_LCD_FillRGBRect+0x42>
  {
    /* Write data value to SDRAM memory */
    *(__IO uint32_t*) (hlcd_ltdc.LayerCfg[Lcd_Ctx[Instance].ActiveLayer].FBStartAdress + (4U*(Ypos*Lcd_Ctx[Instance].XSize + Xpos))) = Color;
 80031b0:	682e      	ldr	r6, [r5, #0]
 80031b2:	6dc0      	ldr	r0, [r0, #92]	; 0x5c
 80031b4:	fb06 4602 	mla	r6, r6, r2, r4
 80031b8:	3401      	adds	r4, #1
 80031ba:	f840 9026 	str.w	r9, [r0, r6, lsl #2]
    for(j = 0; j < Width; j++)
 80031be:	4574      	cmp	r4, lr
      pData += Lcd_Ctx[Instance].BppFactor;
 80031c0:	6928      	ldr	r0, [r5, #16]
 80031c2:	4403      	add	r3, r0
    for(j = 0; j < Width; j++)
 80031c4:	d014      	beq.n	80031f0 <BSP_LCD_FillRGBRect+0x6c>
  if(hlcd_ltdc.LayerCfg[Lcd_Ctx[Instance].ActiveLayer].PixelFormat == LTDC_PIXEL_FORMAT_ARGB8888)
 80031c6:	68a8      	ldr	r0, [r5, #8]
 80031c8:	f8d3 9000 	ldr.w	r9, [r3]
 80031cc:	fb07 c000 	mla	r0, r7, r0, ip
  }
  else
  {
    /* Write data value to SDRAM memory */
    *(__IO uint16_t*) (hlcd_ltdc.LayerCfg[Lcd_Ctx[Instance].ActiveLayer].FBStartAdress + (2U*(Ypos*Lcd_Ctx[Instance].XSize + Xpos))) = Color;
 80031d0:	fa1f fa89 	uxth.w	sl, r9
  if(hlcd_ltdc.LayerCfg[Lcd_Ctx[Instance].ActiveLayer].PixelFormat == LTDC_PIXEL_FORMAT_ARGB8888)
 80031d4:	6c86      	ldr	r6, [r0, #72]	; 0x48
 80031d6:	2e00      	cmp	r6, #0
 80031d8:	d0ea      	beq.n	80031b0 <BSP_LCD_FillRGBRect+0x2c>
    *(__IO uint16_t*) (hlcd_ltdc.LayerCfg[Lcd_Ctx[Instance].ActiveLayer].FBStartAdress + (2U*(Ypos*Lcd_Ctx[Instance].XSize + Xpos))) = Color;
 80031da:	682e      	ldr	r6, [r5, #0]
 80031dc:	6dc0      	ldr	r0, [r0, #92]	; 0x5c
 80031de:	fb06 4602 	mla	r6, r6, r2, r4
 80031e2:	3401      	adds	r4, #1
 80031e4:	f820 a016 	strh.w	sl, [r0, r6, lsl #1]
    for(j = 0; j < Width; j++)
 80031e8:	4574      	cmp	r4, lr
      pData += Lcd_Ctx[Instance].BppFactor;
 80031ea:	6928      	ldr	r0, [r5, #16]
 80031ec:	4403      	add	r3, r0
    for(j = 0; j < Width; j++)
 80031ee:	d1ea      	bne.n	80031c6 <BSP_LCD_FillRGBRect+0x42>
  for(i = 0; i < Height; i++)
 80031f0:	3201      	adds	r2, #1
 80031f2:	4542      	cmp	r2, r8
 80031f4:	d1d7      	bne.n	80031a6 <BSP_LCD_FillRGBRect+0x22>
}
 80031f6:	2000      	movs	r0, #0
 80031f8:	e8bd 8ff0 	ldmia.w	sp!, {r4, r5, r6, r7, r8, r9, sl, fp, pc}
 80031fc:	24010ae8 	.word	0x24010ae8
 8003200:	24010a40 	.word	0x24010a40

08003204 <BSP_LCD_ReadPixel>:
{
 8003204:	b4f0      	push	{r4, r5, r6, r7}
  if(hlcd_ltdc.LayerCfg[Lcd_Ctx[Instance].ActiveLayer].PixelFormat == LTDC_PIXEL_FORMAT_ARGB8888)
 8003206:	ebc0 00c0 	rsb	r0, r0, r0, lsl #3
 800320a:	4e10      	ldr	r6, [pc, #64]	; (800324c <BSP_LCD_ReadPixel+0x48>)
 800320c:	4f10      	ldr	r7, [pc, #64]	; (8003250 <BSP_LCD_ReadPixel+0x4c>)
 800320e:	f04f 0c34 	mov.w	ip, #52	; 0x34
 8003212:	eb06 0580 	add.w	r5, r6, r0, lsl #2
 8003216:	0080      	lsls	r0, r0, #2
 8003218:	68ac      	ldr	r4, [r5, #8]
 800321a:	fb0c 7404 	mla	r4, ip, r4, r7
 800321e:	6ca5      	ldr	r5, [r4, #72]	; 0x48
 8003220:	b94d      	cbnz	r5, 8003236 <BSP_LCD_ReadPixel+0x32>
    *Color = *(__IO uint32_t*) (hlcd_ltdc.LayerCfg[Lcd_Ctx[Instance].ActiveLayer].FBStartAdress + (4U*(Ypos*Lcd_Ctx[Instance].XSize + Xpos)));
 8003222:	5830      	ldr	r0, [r6, r0]
 8003224:	6de4      	ldr	r4, [r4, #92]	; 0x5c
 8003226:	fb00 1202 	mla	r2, r0, r2, r1
}
 800322a:	2000      	movs	r0, #0
    *Color = *(__IO uint32_t*) (hlcd_ltdc.LayerCfg[Lcd_Ctx[Instance].ActiveLayer].FBStartAdress + (4U*(Ypos*Lcd_Ctx[Instance].XSize + Xpos)));
 800322c:	f854 2022 	ldr.w	r2, [r4, r2, lsl #2]
}
 8003230:	bcf0      	pop	{r4, r5, r6, r7}
 8003232:	601a      	str	r2, [r3, #0]
 8003234:	4770      	bx	lr
    *Color = *(__IO uint16_t*) (hlcd_ltdc.LayerCfg[Lcd_Ctx[Instance].ActiveLayer].FBStartAdress + (2U*(Ypos*Lcd_Ctx[Instance].XSize + Xpos)));
 8003236:	5835      	ldr	r5, [r6, r0]
 8003238:	6de0      	ldr	r0, [r4, #92]	; 0x5c
 800323a:	fb05 1202 	mla	r2, r5, r2, r1
 800323e:	f830 2012 	ldrh.w	r2, [r0, r2, lsl #1]
}
 8003242:	2000      	movs	r0, #0
    *Color = *(__IO uint16_t*) (hlcd_ltdc.LayerCfg[Lcd_Ctx[Instance].ActiveLayer].FBStartAdress + (2U*(Ypos*Lcd_Ctx[Instance].XSize + Xpos)));
 8003244:	b292      	uxth	r2, r2
}
 8003246:	bcf0      	pop	{r4, r5, r6, r7}
 8003248:	601a      	str	r2, [r3, #0]
 800324a:	4770      	bx	lr
 800324c:	24010ae8 	.word	0x24010ae8
 8003250:	24010a40 	.word	0x24010a40

08003254 <BSP_LCD_WritePixel>:
{
 8003254:	b4f0      	push	{r4, r5, r6, r7}
  if(hlcd_ltdc.LayerCfg[Lcd_Ctx[Instance].ActiveLayer].PixelFormat == LTDC_PIXEL_FORMAT_ARGB8888)
 8003256:	ebc0 00c0 	rsb	r0, r0, r0, lsl #3
 800325a:	4e0f      	ldr	r6, [pc, #60]	; (8003298 <BSP_LCD_WritePixel+0x44>)
 800325c:	4f0f      	ldr	r7, [pc, #60]	; (800329c <BSP_LCD_WritePixel+0x48>)
 800325e:	f04f 0c34 	mov.w	ip, #52	; 0x34
 8003262:	eb06 0580 	add.w	r5, r6, r0, lsl #2
 8003266:	0080      	lsls	r0, r0, #2
 8003268:	68ac      	ldr	r4, [r5, #8]
 800326a:	fb0c 7404 	mla	r4, ip, r4, r7
 800326e:	6ca5      	ldr	r5, [r4, #72]	; 0x48
 8003270:	b945      	cbnz	r5, 8003284 <BSP_LCD_WritePixel+0x30>
    *(__IO uint32_t*) (hlcd_ltdc.LayerCfg[Lcd_Ctx[Instance].ActiveLayer].FBStartAdress + (4U*(Ypos*Lcd_Ctx[Instance].XSize + Xpos))) = Color;
 8003272:	5830      	ldr	r0, [r6, r0]
 8003274:	6de4      	ldr	r4, [r4, #92]	; 0x5c
 8003276:	fb00 1202 	mla	r2, r0, r2, r1
  }

  return BSP_ERROR_NONE;
}
 800327a:	2000      	movs	r0, #0
    *(__IO uint32_t*) (hlcd_ltdc.LayerCfg[Lcd_Ctx[Instance].ActiveLayer].FBStartAdress + (4U*(Ypos*Lcd_Ctx[Instance].XSize + Xpos))) = Color;
 800327c:	f844 3022 	str.w	r3, [r4, r2, lsl #2]
}
 8003280:	bcf0      	pop	{r4, r5, r6, r7}
 8003282:	4770      	bx	lr
    *(__IO uint16_t*) (hlcd_ltdc.LayerCfg[Lcd_Ctx[Instance].ActiveLayer].FBStartAdress + (2U*(Ypos*Lcd_Ctx[Instance].XSize + Xpos))) = Color;
 8003284:	5835      	ldr	r5, [r6, r0]
 8003286:	b29b      	uxth	r3, r3
 8003288:	6de0      	ldr	r0, [r4, #92]	; 0x5c
 800328a:	fb05 1202 	mla	r2, r5, r2, r1
}
 800328e:	bcf0      	pop	{r4, r5, r6, r7}
    *(__IO uint16_t*) (hlcd_ltdc.LayerCfg[Lcd_Ctx[Instance].ActiveLayer].FBStartAdress + (2U*(Ypos*Lcd_Ctx[Instance].XSize + Xpos))) = Color;
 8003290:	f820 3012 	strh.w	r3, [r0, r2, lsl #1]
}
 8003294:	2000      	movs	r0, #0
 8003296:	4770      	bx	lr
 8003298:	24010ae8 	.word	0x24010ae8
 800329c:	24010a40 	.word	0x24010a40

080032a0 <DSI_IO_Read>:
  * @param  pData pointer to a buffer to store the payload of a read back operation.
  * @param  Size  Data size to be read (in byte).
  * @retval BSP status
  */
static int32_t DSI_IO_Read(uint16_t ChannelNbr, uint16_t Reg, uint8_t *pData, uint16_t Size)
{
 80032a0:	b510      	push	{r4, lr}
  int32_t ret = BSP_ERROR_NONE;

  if(HAL_DSI_Read(&hlcd_dsi, ChannelNbr, pData, Size, DSI_DCS_SHORT_PKT_READ, Reg, pData) != HAL_OK)
 80032a2:	2406      	movs	r4, #6
{
 80032a4:	b084      	sub	sp, #16
  if(HAL_DSI_Read(&hlcd_dsi, ChannelNbr, pData, Size, DSI_DCS_SHORT_PKT_READ, Reg, pData) != HAL_OK)
 80032a6:	9101      	str	r1, [sp, #4]
 80032a8:	4601      	mov	r1, r0
 80032aa:	9202      	str	r2, [sp, #8]
 80032ac:	9400      	str	r4, [sp, #0]
 80032ae:	4805      	ldr	r0, [pc, #20]	; (80032c4 <DSI_IO_Read+0x24>)
 80032b0:	f001 fb36 	bl	8004920 <HAL_DSI_Read>
 80032b4:	2800      	cmp	r0, #0
  {
    ret = BSP_ERROR_BUS_FAILURE;
  }

  return ret;
}
 80032b6:	bf14      	ite	ne
 80032b8:	f06f 0007 	mvnne.w	r0, #7
 80032bc:	2000      	moveq	r0, #0
 80032be:	b004      	add	sp, #16
 80032c0:	bd10      	pop	{r4, pc}
 80032c2:	bf00      	nop
 80032c4:	24010b04 	.word	0x24010b04

080032c8 <BSP_LCD_DrawBitmap>:
{
 80032c8:	e92d 4ff0 	stmdb	sp!, {r4, r5, r6, r7, r8, r9, sl, fp, lr}
  Address = hlcd_ltdc.LayerCfg[Lcd_Ctx[Instance].ActiveLayer].FBStartAdress + (((Lcd_Ctx[Instance].XSize*Ypos) + Xpos)*Lcd_Ctx[Instance].BppFactor);
 80032cc:	ebc0 0cc0 	rsb	ip, r0, r0, lsl #3
 80032d0:	4e4f      	ldr	r6, [pc, #316]	; (8003410 <BSP_LCD_DrawBitmap+0x148>)
  width = (uint32_t)pBmp[18] + ((uint32_t)pBmp[19] << 8) + ((uint32_t)pBmp[20] << 16)  + ((uint32_t)pBmp[21] << 24);
 80032d2:	7d1c      	ldrb	r4, [r3, #20]
  Address = hlcd_ltdc.LayerCfg[Lcd_Ctx[Instance].ActiveLayer].FBStartAdress + (((Lcd_Ctx[Instance].XSize*Ypos) + Xpos)*Lcd_Ctx[Instance].BppFactor);
 80032d4:	f04f 0934 	mov.w	r9, #52	; 0x34
 80032d8:	eb06 078c 	add.w	r7, r6, ip, lsl #2
 80032dc:	f856 802c 	ldr.w	r8, [r6, ip, lsl #2]
 80032e0:	f8df e138 	ldr.w	lr, [pc, #312]	; 800341c <BSP_LCD_DrawBitmap+0x154>
  width = (uint32_t)pBmp[18] + ((uint32_t)pBmp[19] << 8) + ((uint32_t)pBmp[20] << 16)  + ((uint32_t)pBmp[21] << 24);
 80032e4:	0424      	lsls	r4, r4, #16
  Address = hlcd_ltdc.LayerCfg[Lcd_Ctx[Instance].ActiveLayer].FBStartAdress + (((Lcd_Ctx[Instance].XSize*Ypos) + Xpos)*Lcd_Ctx[Instance].BppFactor);
 80032e6:	fb08 1202 	mla	r2, r8, r2, r1
  width = (uint32_t)pBmp[18] + ((uint32_t)pBmp[19] << 8) + ((uint32_t)pBmp[20] << 16)  + ((uint32_t)pBmp[21] << 24);
 80032ea:	f893 c013 	ldrb.w	ip, [r3, #19]
  Address = hlcd_ltdc.LayerCfg[Lcd_Ctx[Instance].ActiveLayer].FBStartAdress + (((Lcd_Ctx[Instance].XSize*Ypos) + Xpos)*Lcd_Ctx[Instance].BppFactor);
 80032ee:	68b9      	ldr	r1, [r7, #8]
{
 80032f0:	b085      	sub	sp, #20
  index = (uint32_t)pBmp[10] + ((uint32_t)pBmp[11] << 8) + ((uint32_t)pBmp[12] << 16)  + ((uint32_t)pBmp[13] << 24);
 80032f2:	7b1d      	ldrb	r5, [r3, #12]
  width = (uint32_t)pBmp[18] + ((uint32_t)pBmp[19] << 8) + ((uint32_t)pBmp[20] << 16)  + ((uint32_t)pBmp[21] << 24);
 80032f4:	eb04 240c 	add.w	r4, r4, ip, lsl #8
  Address = hlcd_ltdc.LayerCfg[Lcd_Ctx[Instance].ActiveLayer].FBStartAdress + (((Lcd_Ctx[Instance].XSize*Ypos) + Xpos)*Lcd_Ctx[Instance].BppFactor);
 80032f8:	fb09 e101 	mla	r1, r9, r1, lr
  index = (uint32_t)pBmp[10] + ((uint32_t)pBmp[11] << 8) + ((uint32_t)pBmp[12] << 16)  + ((uint32_t)pBmp[13] << 24);
 80032fc:	f893 800b 	ldrb.w	r8, [r3, #11]
  bit_pixel = (uint32_t)pBmp[28] + ((uint32_t)pBmp[29] << 8);
 8003300:	f893 c01d 	ldrb.w	ip, [r3, #29]
  index = (uint32_t)pBmp[10] + ((uint32_t)pBmp[11] << 8) + ((uint32_t)pBmp[12] << 16)  + ((uint32_t)pBmp[13] << 24);
 8003304:	042d      	lsls	r5, r5, #16
  height = (uint32_t)pBmp[22] + ((uint32_t)pBmp[23] << 8) + ((uint32_t)pBmp[24] << 16)  + ((uint32_t)pBmp[25] << 24);
 8003306:	f893 a018 	ldrb.w	sl, [r3, #24]
  bit_pixel = (uint32_t)pBmp[28] + ((uint32_t)pBmp[29] << 8);
 800330a:	f893 901c 	ldrb.w	r9, [r3, #28]
  index = (uint32_t)pBmp[10] + ((uint32_t)pBmp[11] << 8) + ((uint32_t)pBmp[12] << 16)  + ((uint32_t)pBmp[13] << 24);
 800330e:	eb05 2508 	add.w	r5, r5, r8, lsl #8
  Address = hlcd_ltdc.LayerCfg[Lcd_Ctx[Instance].ActiveLayer].FBStartAdress + (((Lcd_Ctx[Instance].XSize*Ypos) + Xpos)*Lcd_Ctx[Instance].BppFactor);
 8003312:	6dc9      	ldr	r1, [r1, #92]	; 0x5c
  height = (uint32_t)pBmp[22] + ((uint32_t)pBmp[23] << 8) + ((uint32_t)pBmp[24] << 16)  + ((uint32_t)pBmp[25] << 24);
 8003314:	ea4f 4a0a 	mov.w	sl, sl, lsl #16
  Address = hlcd_ltdc.LayerCfg[Lcd_Ctx[Instance].ActiveLayer].FBStartAdress + (((Lcd_Ctx[Instance].XSize*Ypos) + Xpos)*Lcd_Ctx[Instance].BppFactor);
 8003318:	f8d7 8010 	ldr.w	r8, [r7, #16]
  bit_pixel = (uint32_t)pBmp[28] + ((uint32_t)pBmp[29] << 8);
 800331c:	eb09 290c 	add.w	r9, r9, ip, lsl #8
  width = (uint32_t)pBmp[18] + ((uint32_t)pBmp[19] << 8) + ((uint32_t)pBmp[20] << 16)  + ((uint32_t)pBmp[21] << 24);
 8003320:	7c9f      	ldrb	r7, [r3, #18]
  height = (uint32_t)pBmp[22] + ((uint32_t)pBmp[23] << 8) + ((uint32_t)pBmp[24] << 16)  + ((uint32_t)pBmp[25] << 24);
 8003322:	f893 e017 	ldrb.w	lr, [r3, #23]
  Address = hlcd_ltdc.LayerCfg[Lcd_Ctx[Instance].ActiveLayer].FBStartAdress + (((Lcd_Ctx[Instance].XSize*Ypos) + Xpos)*Lcd_Ctx[Instance].BppFactor);
 8003326:	fb08 1802 	mla	r8, r8, r2, r1
  index = (uint32_t)pBmp[10] + ((uint32_t)pBmp[11] << 8) + ((uint32_t)pBmp[12] << 16)  + ((uint32_t)pBmp[13] << 24);
 800332a:	f893 c00a 	ldrb.w	ip, [r3, #10]
  width = (uint32_t)pBmp[18] + ((uint32_t)pBmp[19] << 8) + ((uint32_t)pBmp[20] << 16)  + ((uint32_t)pBmp[21] << 24);
 800332e:	443c      	add	r4, r7
  height = (uint32_t)pBmp[22] + ((uint32_t)pBmp[23] << 8) + ((uint32_t)pBmp[24] << 16)  + ((uint32_t)pBmp[25] << 24);
 8003330:	eb0a 2a0e 	add.w	sl, sl, lr, lsl #8
 8003334:	7d9f      	ldrb	r7, [r3, #22]
  index = (uint32_t)pBmp[10] + ((uint32_t)pBmp[11] << 8) + ((uint32_t)pBmp[12] << 16)  + ((uint32_t)pBmp[13] << 24);
 8003336:	4465      	add	r5, ip
 8003338:	7b59      	ldrb	r1, [r3, #13]
  height = (uint32_t)pBmp[22] + ((uint32_t)pBmp[23] << 8) + ((uint32_t)pBmp[24] << 16)  + ((uint32_t)pBmp[25] << 24);
 800333a:	44ba      	add	sl, r7
  width = (uint32_t)pBmp[18] + ((uint32_t)pBmp[19] << 8) + ((uint32_t)pBmp[20] << 16)  + ((uint32_t)pBmp[21] << 24);
 800333c:	7d5f      	ldrb	r7, [r3, #21]
  index = (uint32_t)pBmp[10] + ((uint32_t)pBmp[11] << 8) + ((uint32_t)pBmp[12] << 16)  + ((uint32_t)pBmp[13] << 24);
 800333e:	eb05 6101 	add.w	r1, r5, r1, lsl #24
  if ((bit_pixel/8U) == 4U)
 8003342:	f1a9 0520 	sub.w	r5, r9, #32
  height = (uint32_t)pBmp[22] + ((uint32_t)pBmp[23] << 8) + ((uint32_t)pBmp[24] << 16)  + ((uint32_t)pBmp[25] << 24);
 8003346:	7e5a      	ldrb	r2, [r3, #25]
  width = (uint32_t)pBmp[18] + ((uint32_t)pBmp[19] << 8) + ((uint32_t)pBmp[20] << 16)  + ((uint32_t)pBmp[21] << 24);
 8003348:	eb04 6407 	add.w	r4, r4, r7, lsl #24
  if ((bit_pixel/8U) == 4U)
 800334c:	2d07      	cmp	r5, #7
  height = (uint32_t)pBmp[22] + ((uint32_t)pBmp[23] << 8) + ((uint32_t)pBmp[24] << 16)  + ((uint32_t)pBmp[25] << 24);
 800334e:	eb0a 6a02 	add.w	sl, sl, r2, lsl #24
  width = (uint32_t)pBmp[18] + ((uint32_t)pBmp[19] << 8) + ((uint32_t)pBmp[20] << 16)  + ((uint32_t)pBmp[21] << 24);
 8003352:	9403      	str	r4, [sp, #12]
  Address = hlcd_ltdc.LayerCfg[Lcd_Ctx[Instance].ActiveLayer].FBStartAdress + (((Lcd_Ctx[Instance].XSize*Ypos) + Xpos)*Lcd_Ctx[Instance].BppFactor);
 8003354:	ea4f 02c0 	mov.w	r2, r0, lsl #3
  if ((bit_pixel/8U) == 4U)
 8003358:	d957      	bls.n	800340a <BSP_LCD_DrawBitmap+0x142>
  else if ((bit_pixel/8U) == 2U)
 800335a:	f1a9 0410 	sub.w	r4, r9, #16
    input_color_mode = DMA2D_INPUT_RGB888;
 800335e:	2c08      	cmp	r4, #8
 8003360:	bf34      	ite	cc
 8003362:	f04f 0b02 	movcc.w	fp, #2
 8003366:	f04f 0b01 	movcs.w	fp, #1
  pbmp = pBmp + (index + (width * (height - 1U) * (bit_pixel/8U)));
 800336a:	ea4f 09d9 	mov.w	r9, r9, lsr #3
 800336e:	9c03      	ldr	r4, [sp, #12]
 8003370:	f10a 35ff 	add.w	r5, sl, #4294967295
 8003374:	fb04 f909 	mul.w	r9, r4, r9
 8003378:	fb09 1505 	mla	r5, r9, r5, r1
 800337c:	441d      	add	r5, r3
  for(index=0; index < height; index++)
 800337e:	f1ba 0f00 	cmp.w	sl, #0
 8003382:	d03e      	beq.n	8003402 <BSP_LCD_DrawBitmap+0x13a>
  switch(Lcd_Ctx[Instance].PixelFormat)
 8003384:	1a10      	subs	r0, r2, r0
    pbmp -= width*(bit_pixel/8U);
 8003386:	f1c9 0900 	rsb	r9, r9, #0
  for(index=0; index < height; index++)
 800338a:	2700      	movs	r7, #0
 800338c:	4c21      	ldr	r4, [pc, #132]	; (8003414 <BSP_LCD_DrawBitmap+0x14c>)
  switch(Lcd_Ctx[Instance].PixelFormat)
 800338e:	eb06 0680 	add.w	r6, r6, r0, lsl #2
 8003392:	e006      	b.n	80033a2 <BSP_LCD_DrawBitmap+0xda>
    Address+=  (Lcd_Ctx[Instance].XSize * Lcd_Ctx[Instance].BppFactor);
 8003394:	6833      	ldr	r3, [r6, #0]
  for(index=0; index < height; index++)
 8003396:	45ba      	cmp	sl, r7
    Address+=  (Lcd_Ctx[Instance].XSize * Lcd_Ctx[Instance].BppFactor);
 8003398:	6932      	ldr	r2, [r6, #16]
    pbmp -= width*(bit_pixel/8U);
 800339a:	444d      	add	r5, r9
    Address+=  (Lcd_Ctx[Instance].XSize * Lcd_Ctx[Instance].BppFactor);
 800339c:	fb02 8803 	mla	r8, r2, r3, r8
  for(index=0; index < height; index++)
 80033a0:	d02f      	beq.n	8003402 <BSP_LCD_DrawBitmap+0x13a>
  switch(Lcd_Ctx[Instance].PixelFormat)
 80033a2:	68f3      	ldr	r3, [r6, #12]
  hlcd_dma2d.Init.OutputOffset = 0;
 80033a4:	2200      	movs	r2, #0
  hlcd_dma2d.Init.Mode         = DMA2D_M2M_PFC;
 80033a6:	f44f 3080 	mov.w	r0, #65536	; 0x10000
  hlcd_dma2d.LayerCfg[1].InputAlpha = 0xFF;
 80033aa:	f04f 0cff 	mov.w	ip, #255	; 0xff
    output_color_mode = DMA2D_OUTPUT_ARGB8888; /* ARGB8888 */
 80033ae:	2b02      	cmp	r3, #2
  hlcd_dma2d.Instance = DMA2D;
 80033b0:	4919      	ldr	r1, [pc, #100]	; (8003418 <BSP_LCD_DrawBitmap+0x150>)
  hlcd_dma2d.LayerCfg[1].InputColorMode = ColorMode;
 80033b2:	f8c4 b048 	str.w	fp, [r4, #72]	; 0x48
  for(index=0; index < height; index++)
 80033b6:	f107 0701 	add.w	r7, r7, #1
    output_color_mode = DMA2D_OUTPUT_ARGB8888; /* ARGB8888 */
 80033ba:	bf18      	it	ne
 80033bc:	4613      	movne	r3, r2
  hlcd_dma2d.LayerCfg[1].AlphaMode = DMA2D_NO_MODIF_ALPHA;
 80033be:	64e2      	str	r2, [r4, #76]	; 0x4c
  hlcd_dma2d.LayerCfg[1].InputOffset = 0;
 80033c0:	6462      	str	r2, [r4, #68]	; 0x44
  hlcd_dma2d.LayerCfg[1].InputAlpha = 0xFF;
 80033c2:	f8c4 c050 	str.w	ip, [r4, #80]	; 0x50
  hlcd_dma2d.Init.Mode         = DMA2D_M2M_PFC;
 80033c6:	e9c4 1000 	strd	r1, r0, [r4]
  if(HAL_DMA2D_Init(&hlcd_dma2d) == HAL_OK)
 80033ca:	4812      	ldr	r0, [pc, #72]	; (8003414 <BSP_LCD_DrawBitmap+0x14c>)
  hlcd_dma2d.Init.OutputOffset = 0;
 80033cc:	e9c4 3202 	strd	r3, r2, [r4, #8]
  if(HAL_DMA2D_Init(&hlcd_dma2d) == HAL_OK)
 80033d0:	f000 fe18 	bl	8004004 <HAL_DMA2D_Init>
 80033d4:	2800      	cmp	r0, #0
 80033d6:	d1dd      	bne.n	8003394 <BSP_LCD_DrawBitmap+0xcc>
    if(HAL_DMA2D_ConfigLayer(&hlcd_dma2d, 1) == HAL_OK)
 80033d8:	2101      	movs	r1, #1
 80033da:	480e      	ldr	r0, [pc, #56]	; (8003414 <BSP_LCD_DrawBitmap+0x14c>)
 80033dc:	f000 fef6 	bl	80041cc <HAL_DMA2D_ConfigLayer>
 80033e0:	2800      	cmp	r0, #0
 80033e2:	d1d7      	bne.n	8003394 <BSP_LCD_DrawBitmap+0xcc>
      if (HAL_DMA2D_Start(&hlcd_dma2d, (uint32_t)pSrc, (uint32_t)pDst, xSize, 1) == HAL_OK)
 80033e4:	2001      	movs	r0, #1
 80033e6:	9b03      	ldr	r3, [sp, #12]
 80033e8:	4642      	mov	r2, r8
 80033ea:	4629      	mov	r1, r5
 80033ec:	9000      	str	r0, [sp, #0]
 80033ee:	4809      	ldr	r0, [pc, #36]	; (8003414 <BSP_LCD_DrawBitmap+0x14c>)
 80033f0:	f000 fe4a 	bl	8004088 <HAL_DMA2D_Start>
 80033f4:	2800      	cmp	r0, #0
 80033f6:	d1cd      	bne.n	8003394 <BSP_LCD_DrawBitmap+0xcc>
        (void)HAL_DMA2D_PollForTransfer(&hlcd_dma2d, 50);
 80033f8:	2132      	movs	r1, #50	; 0x32
 80033fa:	4806      	ldr	r0, [pc, #24]	; (8003414 <BSP_LCD_DrawBitmap+0x14c>)
 80033fc:	f000 fe60 	bl	80040c0 <HAL_DMA2D_PollForTransfer>
 8003400:	e7c8      	b.n	8003394 <BSP_LCD_DrawBitmap+0xcc>
}
 8003402:	2000      	movs	r0, #0
 8003404:	b005      	add	sp, #20
 8003406:	e8bd 8ff0 	ldmia.w	sp!, {r4, r5, r6, r7, r8, r9, sl, fp, pc}
    input_color_mode = DMA2D_INPUT_ARGB8888;
 800340a:	f04f 0b00 	mov.w	fp, #0
 800340e:	e7ac      	b.n	800336a <BSP_LCD_DrawBitmap+0xa2>
 8003410:	24010ae8 	.word	0x24010ae8
 8003414:	24010b20 	.word	0x24010b20
 8003418:	52001000 	.word	0x52001000
 800341c:	24010a40 	.word	0x24010a40

08003420 <LL_FillBuffer>:
{
 8003420:	e92d 41f0 	stmdb	sp!, {r4, r5, r6, r7, r8, lr}
  switch(Lcd_Ctx[Instance].PixelFormat)
 8003424:	ebc0 00c0 	rsb	r0, r0, r0, lsl #3
 8003428:	4c28      	ldr	r4, [pc, #160]	; (80034cc <LL_FillBuffer+0xac>)
{
 800342a:	4617      	mov	r7, r2
 800342c:	b082      	sub	sp, #8
  switch(Lcd_Ctx[Instance].PixelFormat)
 800342e:	eb04 0080 	add.w	r0, r4, r0, lsl #2
{
 8003432:	4698      	mov	r8, r3
 8003434:	460e      	mov	r6, r1
 8003436:	9b08      	ldr	r3, [sp, #32]
  switch(Lcd_Ctx[Instance].PixelFormat)
 8003438:	68c2      	ldr	r2, [r0, #12]
{
 800343a:	9d09      	ldr	r5, [sp, #36]	; 0x24
  switch(Lcd_Ctx[Instance].PixelFormat)
 800343c:	2a02      	cmp	r2, #2
 800343e:	d00f      	beq.n	8003460 <LL_FillBuffer+0x40>
    output_color_mode = DMA2D_OUTPUT_ARGB8888; /* ARGB8888 */
 8003440:	2200      	movs	r2, #0
  hlcd_dma2d.Init.Mode         = DMA2D_R2M;
 8003442:	4c23      	ldr	r4, [pc, #140]	; (80034d0 <LL_FillBuffer+0xb0>)
 8003444:	f44f 3c40 	mov.w	ip, #196608	; 0x30000
  hlcd_dma2d.Instance = DMA2D;
 8003448:	4922      	ldr	r1, [pc, #136]	; (80034d4 <LL_FillBuffer+0xb4>)
  if(HAL_DMA2D_Init(&hlcd_dma2d) == HAL_OK)
 800344a:	4620      	mov	r0, r4
  hlcd_dma2d.Init.ColorMode    = output_color_mode;
 800344c:	60a2      	str	r2, [r4, #8]
  hlcd_dma2d.Init.OutputOffset = OffLine;
 800344e:	60e3      	str	r3, [r4, #12]
  hlcd_dma2d.Instance = DMA2D;
 8003450:	e9c4 1c00 	strd	r1, ip, [r4]
  if(HAL_DMA2D_Init(&hlcd_dma2d) == HAL_OK)
 8003454:	f000 fdd6 	bl	8004004 <HAL_DMA2D_Init>
 8003458:	b308      	cbz	r0, 800349e <LL_FillBuffer+0x7e>
}
 800345a:	b002      	add	sp, #8
 800345c:	e8bd 81f0 	ldmia.w	sp!, {r4, r5, r6, r7, r8, pc}
    input_color = CONVERTRGB5652ARGB8888(Color);
 8003460:	f3c5 1045 	ubfx	r0, r5, #5, #6
 8003464:	f3c5 21c4 	ubfx	r1, r5, #11, #5
 8003468:	f005 041f 	and.w	r4, r5, #31
 800346c:	eb00 15c0 	add.w	r5, r0, r0, lsl #7
 8003470:	eb01 1101 	add.w	r1, r1, r1, lsl #4
 8003474:	eb00 0545 	add.w	r5, r0, r5, lsl #1
 8003478:	ebc1 1141 	rsb	r1, r1, r1, lsl #5
 800347c:	3521      	adds	r5, #33	; 0x21
 800347e:	eb04 1004 	add.w	r0, r4, r4, lsl #4
 8003482:	3117      	adds	r1, #23
 8003484:	09ad      	lsrs	r5, r5, #6
 8003486:	0989      	lsrs	r1, r1, #6
 8003488:	022d      	lsls	r5, r5, #8
 800348a:	ebc0 1040 	rsb	r0, r0, r0, lsl #5
 800348e:	ea45 4501 	orr.w	r5, r5, r1, lsl #16
 8003492:	3017      	adds	r0, #23
 8003494:	ea45 1590 	orr.w	r5, r5, r0, lsr #6
 8003498:	f045 457f 	orr.w	r5, r5, #4278190080	; 0xff000000
    break;
 800349c:	e7d1      	b.n	8003442 <LL_FillBuffer+0x22>
    if(HAL_DMA2D_ConfigLayer(&hlcd_dma2d, 1) == HAL_OK)
 800349e:	2101      	movs	r1, #1
 80034a0:	4620      	mov	r0, r4
 80034a2:	f000 fe93 	bl	80041cc <HAL_DMA2D_ConfigLayer>
 80034a6:	2800      	cmp	r0, #0
 80034a8:	d1d7      	bne.n	800345a <LL_FillBuffer+0x3a>
      if (HAL_DMA2D_Start(&hlcd_dma2d, input_color, (uint32_t)pDst, xSize, ySize) == HAL_OK)
 80034aa:	463b      	mov	r3, r7
 80034ac:	4632      	mov	r2, r6
 80034ae:	4629      	mov	r1, r5
 80034b0:	4620      	mov	r0, r4
 80034b2:	f8cd 8000 	str.w	r8, [sp]
 80034b6:	f000 fde7 	bl	8004088 <HAL_DMA2D_Start>
 80034ba:	2800      	cmp	r0, #0
 80034bc:	d1cd      	bne.n	800345a <LL_FillBuffer+0x3a>
        (void)HAL_DMA2D_PollForTransfer(&hlcd_dma2d, 25);
 80034be:	4620      	mov	r0, r4
 80034c0:	2119      	movs	r1, #25
}
 80034c2:	b002      	add	sp, #8
 80034c4:	e8bd 41f0 	ldmia.w	sp!, {r4, r5, r6, r7, r8, lr}
        (void)HAL_DMA2D_PollForTransfer(&hlcd_dma2d, 25);
 80034c8:	f000 bdfa 	b.w	80040c0 <HAL_DMA2D_PollForTransfer>
 80034cc:	24010ae8 	.word	0x24010ae8
 80034d0:	24010b20 	.word	0x24010b20
 80034d4:	52001000 	.word	0x52001000

080034d8 <BSP_LCD_DrawHLine>:
{
 80034d8:	e92d 41f0 	stmdb	sp!, {r4, r5, r6, r7, r8, lr}
  Xaddress = hlcd_ltdc.LayerCfg[Lcd_Ctx[Instance].ActiveLayer].FBStartAdress + (Lcd_Ctx[Instance].BppFactor*((Lcd_Ctx[Instance].XSize*Ypos) + Xpos));
 80034dc:	ebc0 0cc0 	rsb	ip, r0, r0, lsl #3
 80034e0:	4f12      	ldr	r7, [pc, #72]	; (800352c <BSP_LCD_DrawHLine+0x54>)
{
 80034e2:	460c      	mov	r4, r1
  Xaddress = hlcd_ltdc.LayerCfg[Lcd_Ctx[Instance].ActiveLayer].FBStartAdress + (Lcd_Ctx[Instance].BppFactor*((Lcd_Ctx[Instance].XSize*Ypos) + Xpos));
 80034e4:	f8df e048 	ldr.w	lr, [pc, #72]	; 8003530 <BSP_LCD_DrawHLine+0x58>
 80034e8:	eb07 018c 	add.w	r1, r7, ip, lsl #2
 80034ec:	f04f 0834 	mov.w	r8, #52	; 0x34
 80034f0:	f857 702c 	ldr.w	r7, [r7, ip, lsl #2]
  if((Xpos + Length) > Lcd_Ctx[Instance].XSize)
 80034f4:	eb04 0c03 	add.w	ip, r4, r3
  Xaddress = hlcd_ltdc.LayerCfg[Lcd_Ctx[Instance].ActiveLayer].FBStartAdress + (Lcd_Ctx[Instance].BppFactor*((Lcd_Ctx[Instance].XSize*Ypos) + Xpos));
 80034f8:	688d      	ldr	r5, [r1, #8]
{
 80034fa:	b082      	sub	sp, #8
  Xaddress = hlcd_ltdc.LayerCfg[Lcd_Ctx[Instance].ActiveLayer].FBStartAdress + (Lcd_Ctx[Instance].BppFactor*((Lcd_Ctx[Instance].XSize*Ypos) + Xpos));
 80034fc:	690e      	ldr	r6, [r1, #16]
 80034fe:	fb02 4207 	mla	r2, r2, r7, r4
 8003502:	fb08 e505 	mla	r5, r8, r5, lr
  if((Xpos + Length) > Lcd_Ctx[Instance].XSize)
 8003506:	4567      	cmp	r7, ip
  Xaddress = hlcd_ltdc.LayerCfg[Lcd_Ctx[Instance].ActiveLayer].FBStartAdress + (Lcd_Ctx[Instance].BppFactor*((Lcd_Ctx[Instance].XSize*Ypos) + Xpos));
 8003508:	6de9      	ldr	r1, [r5, #92]	; 0x5c
    Length = Lcd_Ctx[Instance].XSize - Xpos;
 800350a:	bf38      	it	cc
 800350c:	1b3b      	subcc	r3, r7, r4
  LL_FillBuffer(Instance, (uint32_t *)Xaddress, Length, 1, 0, Color);
 800350e:	2400      	movs	r4, #0
  Xaddress = hlcd_ltdc.LayerCfg[Lcd_Ctx[Instance].ActiveLayer].FBStartAdress + (Lcd_Ctx[Instance].BppFactor*((Lcd_Ctx[Instance].XSize*Ypos) + Xpos));
 8003510:	fb06 1102 	mla	r1, r6, r2, r1
  LL_FillBuffer(Instance, (uint32_t *)Xaddress, Length, 1, 0, Color);
 8003514:	9a08      	ldr	r2, [sp, #32]
 8003516:	9400      	str	r4, [sp, #0]
 8003518:	9201      	str	r2, [sp, #4]
 800351a:	461a      	mov	r2, r3
 800351c:	2301      	movs	r3, #1
 800351e:	f7ff ff7f 	bl	8003420 <LL_FillBuffer>
}
 8003522:	4620      	mov	r0, r4
 8003524:	b002      	add	sp, #8
 8003526:	e8bd 81f0 	ldmia.w	sp!, {r4, r5, r6, r7, r8, pc}
 800352a:	bf00      	nop
 800352c:	24010ae8 	.word	0x24010ae8
 8003530:	24010a40 	.word	0x24010a40

08003534 <BSP_LCD_DrawVLine>:
{
 8003534:	e92d 41f0 	stmdb	sp!, {r4, r5, r6, r7, r8, lr}
  Xaddress = (hlcd_ltdc.LayerCfg[Lcd_Ctx[Instance].ActiveLayer].FBStartAdress) + (Lcd_Ctx[Instance].BppFactor*(Lcd_Ctx[Instance].XSize*Ypos + Xpos));
 8003538:	ebc0 0cc0 	rsb	ip, r0, r0, lsl #3
 800353c:	4c11      	ldr	r4, [pc, #68]	; (8003584 <BSP_LCD_DrawVLine+0x50>)
 800353e:	4d12      	ldr	r5, [pc, #72]	; (8003588 <BSP_LCD_DrawVLine+0x54>)
 8003540:	f04f 0834 	mov.w	r8, #52	; 0x34
 8003544:	eb04 078c 	add.w	r7, r4, ip, lsl #2
 8003548:	f854 402c 	ldr.w	r4, [r4, ip, lsl #2]
  if((Ypos + Length) > Lcd_Ctx[Instance].YSize)
 800354c:	eb02 0c03 	add.w	ip, r2, r3
{
 8003550:	b082      	sub	sp, #8
  Xaddress = (hlcd_ltdc.LayerCfg[Lcd_Ctx[Instance].ActiveLayer].FBStartAdress) + (Lcd_Ctx[Instance].BppFactor*(Lcd_Ctx[Instance].XSize*Ypos + Xpos));
 8003552:	68be      	ldr	r6, [r7, #8]
 8003554:	fb02 1104 	mla	r1, r2, r4, r1
 LL_FillBuffer(Instance, (uint32_t *)Xaddress, 1, Length, (Lcd_Ctx[Instance].XSize - 1U), Color);
 8003558:	3c01      	subs	r4, #1
  Xaddress = (hlcd_ltdc.LayerCfg[Lcd_Ctx[Instance].ActiveLayer].FBStartAdress) + (Lcd_Ctx[Instance].BppFactor*(Lcd_Ctx[Instance].XSize*Ypos + Xpos));
 800355a:	fb08 5606 	mla	r6, r8, r6, r5
 800355e:	693d      	ldr	r5, [r7, #16]
  if((Ypos + Length) > Lcd_Ctx[Instance].YSize)
 8003560:	687f      	ldr	r7, [r7, #4]
  Xaddress = (hlcd_ltdc.LayerCfg[Lcd_Ctx[Instance].ActiveLayer].FBStartAdress) + (Lcd_Ctx[Instance].BppFactor*(Lcd_Ctx[Instance].XSize*Ypos + Xpos));
 8003562:	6df6      	ldr	r6, [r6, #92]	; 0x5c
  if((Ypos + Length) > Lcd_Ctx[Instance].YSize)
 8003564:	45bc      	cmp	ip, r7
  Xaddress = (hlcd_ltdc.LayerCfg[Lcd_Ctx[Instance].ActiveLayer].FBStartAdress) + (Lcd_Ctx[Instance].BppFactor*(Lcd_Ctx[Instance].XSize*Ypos + Xpos));
 8003566:	fb05 6101 	mla	r1, r5, r1, r6
    Length = Lcd_Ctx[Instance].YSize - Ypos;
 800356a:	bf88      	it	hi
 800356c:	1abb      	subhi	r3, r7, r2
 LL_FillBuffer(Instance, (uint32_t *)Xaddress, 1, Length, (Lcd_Ctx[Instance].XSize - 1U), Color);
 800356e:	9a08      	ldr	r2, [sp, #32]
 8003570:	e9cd 4200 	strd	r4, r2, [sp]
 8003574:	2201      	movs	r2, #1
 8003576:	f7ff ff53 	bl	8003420 <LL_FillBuffer>
}
 800357a:	2000      	movs	r0, #0
 800357c:	b002      	add	sp, #8
 800357e:	e8bd 81f0 	ldmia.w	sp!, {r4, r5, r6, r7, r8, pc}
 8003582:	bf00      	nop
 8003584:	24010ae8 	.word	0x24010ae8
 8003588:	24010a40 	.word	0x24010a40

0800358c <BSP_LCD_FillRect>:
{
 800358c:	b5f0      	push	{r4, r5, r6, r7, lr}
  Xaddress = (hlcd_ltdc.LayerCfg[Lcd_Ctx[Instance].ActiveLayer].FBStartAdress) + (Lcd_Ctx[Instance].BppFactor*(Lcd_Ctx[Instance].XSize*Ypos + Xpos));
 800358e:	ebc0 04c0 	rsb	r4, r0, r0, lsl #3
 8003592:	4f0e      	ldr	r7, [pc, #56]	; (80035cc <BSP_LCD_FillRect+0x40>)
 8003594:	f04f 0e34 	mov.w	lr, #52	; 0x34
 8003598:	4d0d      	ldr	r5, [pc, #52]	; (80035d0 <BSP_LCD_FillRect+0x44>)
 800359a:	eb07 0684 	add.w	r6, r7, r4, lsl #2
 800359e:	f857 4024 	ldr.w	r4, [r7, r4, lsl #2]
{
 80035a2:	b083      	sub	sp, #12
  Xaddress = (hlcd_ltdc.LayerCfg[Lcd_Ctx[Instance].ActiveLayer].FBStartAdress) + (Lcd_Ctx[Instance].BppFactor*(Lcd_Ctx[Instance].XSize*Ypos + Xpos));
 80035a4:	68b7      	ldr	r7, [r6, #8]
 80035a6:	fb02 1104 	mla	r1, r2, r4, r1
 LL_FillBuffer(Instance, (uint32_t *)Xaddress, Width, Height, (Lcd_Ctx[Instance].XSize - Width), Color);
 80035aa:	1ae4      	subs	r4, r4, r3
 80035ac:	461a      	mov	r2, r3
  Xaddress = (hlcd_ltdc.LayerCfg[Lcd_Ctx[Instance].ActiveLayer].FBStartAdress) + (Lcd_Ctx[Instance].BppFactor*(Lcd_Ctx[Instance].XSize*Ypos + Xpos));
 80035ae:	fb0e 5507 	mla	r5, lr, r7, r5
 80035b2:	6937      	ldr	r7, [r6, #16]
{
 80035b4:	9e09      	ldr	r6, [sp, #36]	; 0x24
  Xaddress = (hlcd_ltdc.LayerCfg[Lcd_Ctx[Instance].ActiveLayer].FBStartAdress) + (Lcd_Ctx[Instance].BppFactor*(Lcd_Ctx[Instance].XSize*Ypos + Xpos));
 80035b6:	6deb      	ldr	r3, [r5, #92]	; 0x5c
 LL_FillBuffer(Instance, (uint32_t *)Xaddress, Width, Height, (Lcd_Ctx[Instance].XSize - Width), Color);
 80035b8:	9400      	str	r4, [sp, #0]
 80035ba:	fb07 3101 	mla	r1, r7, r1, r3
 80035be:	9b08      	ldr	r3, [sp, #32]
 80035c0:	9601      	str	r6, [sp, #4]
 80035c2:	f7ff ff2d 	bl	8003420 <LL_FillBuffer>
}
 80035c6:	2000      	movs	r0, #0
 80035c8:	b003      	add	sp, #12
 80035ca:	bdf0      	pop	{r4, r5, r6, r7, pc}
 80035cc:	24010ae8 	.word	0x24010ae8
 80035d0:	24010a40 	.word	0x24010a40

080035d4 <LTDC_MspInit.part.0>:
    __HAL_RCC_LTDC_CLK_ENABLE();
 80035d4:	4b0d      	ldr	r3, [pc, #52]	; (800360c <LTDC_MspInit.part.0+0x38>)
static void LTDC_MspInit(LTDC_HandleTypeDef *hltdc)
 80035d6:	b082      	sub	sp, #8
    __HAL_RCC_LTDC_CLK_ENABLE();
 80035d8:	f8d3 20e4 	ldr.w	r2, [r3, #228]	; 0xe4
 80035dc:	f042 0208 	orr.w	r2, r2, #8
 80035e0:	f8c3 20e4 	str.w	r2, [r3, #228]	; 0xe4
 80035e4:	f8d3 20e4 	ldr.w	r2, [r3, #228]	; 0xe4
 80035e8:	f002 0208 	and.w	r2, r2, #8
 80035ec:	9201      	str	r2, [sp, #4]
 80035ee:	9a01      	ldr	r2, [sp, #4]
    __HAL_RCC_LTDC_FORCE_RESET();
 80035f0:	f8d3 208c 	ldr.w	r2, [r3, #140]	; 0x8c
 80035f4:	f042 0208 	orr.w	r2, r2, #8
 80035f8:	f8c3 208c 	str.w	r2, [r3, #140]	; 0x8c
    __HAL_RCC_LTDC_RELEASE_RESET();
 80035fc:	f8d3 208c 	ldr.w	r2, [r3, #140]	; 0x8c
 8003600:	f022 0208 	bic.w	r2, r2, #8
 8003604:	f8c3 208c 	str.w	r2, [r3, #140]	; 0x8c
}
 8003608:	b002      	add	sp, #8
 800360a:	4770      	bx	lr
 800360c:	58024400 	.word	0x58024400

08003610 <DMA2D_MspInit.part.0>:
    __HAL_RCC_DMA2D_CLK_ENABLE();
 8003610:	4b0b      	ldr	r3, [pc, #44]	; (8003640 <DMA2D_MspInit.part.0+0x30>)
static void DMA2D_MspInit(DMA2D_HandleTypeDef *hdma2d)
 8003612:	b082      	sub	sp, #8
    __HAL_RCC_DMA2D_CLK_ENABLE();
 8003614:	f8d3 20d4 	ldr.w	r2, [r3, #212]	; 0xd4
 8003618:	f042 0210 	orr.w	r2, r2, #16
 800361c:	f8c3 20d4 	str.w	r2, [r3, #212]	; 0xd4
 8003620:	f8d3 20d4 	ldr.w	r2, [r3, #212]	; 0xd4
 8003624:	f002 0210 	and.w	r2, r2, #16
 8003628:	9201      	str	r2, [sp, #4]
 800362a:	9a01      	ldr	r2, [sp, #4]
    __HAL_RCC_DMA2D_FORCE_RESET();
 800362c:	6fda      	ldr	r2, [r3, #124]	; 0x7c
 800362e:	f042 0210 	orr.w	r2, r2, #16
 8003632:	67da      	str	r2, [r3, #124]	; 0x7c
    __HAL_RCC_DMA2D_RELEASE_RESET();
 8003634:	6fda      	ldr	r2, [r3, #124]	; 0x7c
 8003636:	f022 0210 	bic.w	r2, r2, #16
 800363a:	67da      	str	r2, [r3, #124]	; 0x7c
}
 800363c:	b002      	add	sp, #8
 800363e:	4770      	bx	lr
 8003640:	58024400 	.word	0x58024400

08003644 <DSI_MspInit.part.0>:
    __HAL_RCC_DSI_CLK_ENABLE();
 8003644:	4b0d      	ldr	r3, [pc, #52]	; (800367c <DSI_MspInit.part.0+0x38>)
static void DSI_MspInit(DSI_HandleTypeDef *hdsi)
 8003646:	b082      	sub	sp, #8
    __HAL_RCC_DSI_CLK_ENABLE();
 8003648:	f8d3 20e4 	ldr.w	r2, [r3, #228]	; 0xe4
 800364c:	f042 0210 	orr.w	r2, r2, #16
 8003650:	f8c3 20e4 	str.w	r2, [r3, #228]	; 0xe4
 8003654:	f8d3 20e4 	ldr.w	r2, [r3, #228]	; 0xe4
 8003658:	f002 0210 	and.w	r2, r2, #16
 800365c:	9201      	str	r2, [sp, #4]
 800365e:	9a01      	ldr	r2, [sp, #4]
    __HAL_RCC_DSI_FORCE_RESET();
 8003660:	f8d3 208c 	ldr.w	r2, [r3, #140]	; 0x8c
 8003664:	f042 0210 	orr.w	r2, r2, #16
 8003668:	f8c3 208c 	str.w	r2, [r3, #140]	; 0x8c
    __HAL_RCC_DSI_RELEASE_RESET();
 800366c:	f8d3 208c 	ldr.w	r2, [r3, #140]	; 0x8c
 8003670:	f022 0210 	bic.w	r2, r2, #16
 8003674:	f8c3 208c 	str.w	r2, [r3, #140]	; 0x8c
}
 8003678:	b002      	add	sp, #8
 800367a:	4770      	bx	lr
 800367c:	58024400 	.word	0x58024400

08003680 <DSI_IO_Write>:
  if(Size <= 1U)
 8003680:	2b01      	cmp	r3, #1
{
 8003682:	b530      	push	{r4, r5, lr}
 8003684:	460d      	mov	r5, r1
 8003686:	b083      	sub	sp, #12
 8003688:	4601      	mov	r1, r0
  if(Size <= 1U)
 800368a:	d909      	bls.n	80036a0 <DSI_IO_Write+0x20>
    if(HAL_DSI_LongWrite(&hlcd_dsi, ChannelNbr, DSI_DCS_LONG_PKT_WRITE, Size, (uint32_t)Reg, pData) != HAL_OK)
 800368c:	480a      	ldr	r0, [pc, #40]	; (80036b8 <DSI_IO_Write+0x38>)
 800368e:	e9cd 5200 	strd	r5, r2, [sp]
 8003692:	2239      	movs	r2, #57	; 0x39
 8003694:	f001 f8d8 	bl	8004848 <HAL_DSI_LongWrite>
 8003698:	b958      	cbnz	r0, 80036b2 <DSI_IO_Write+0x32>
  int32_t ret = BSP_ERROR_NONE;
 800369a:	2000      	movs	r0, #0
}
 800369c:	b003      	add	sp, #12
 800369e:	bd30      	pop	{r4, r5, pc}
    if(HAL_DSI_ShortWrite(&hlcd_dsi, ChannelNbr, DSI_DCS_SHORT_PKT_WRITE_P1, Reg, (uint32_t)pData[Size]) != HAL_OK)
 80036a0:	5cd0      	ldrb	r0, [r2, r3]
 80036a2:	462b      	mov	r3, r5
 80036a4:	2215      	movs	r2, #21
 80036a6:	9000      	str	r0, [sp, #0]
 80036a8:	4803      	ldr	r0, [pc, #12]	; (80036b8 <DSI_IO_Write+0x38>)
 80036aa:	f001 f8b9 	bl	8004820 <HAL_DSI_ShortWrite>
 80036ae:	2800      	cmp	r0, #0
 80036b0:	d0f3      	beq.n	800369a <DSI_IO_Write+0x1a>
      ret = BSP_ERROR_BUS_FAILURE;
 80036b2:	f06f 0007 	mvn.w	r0, #7
 80036b6:	e7f1      	b.n	800369c <DSI_IO_Write+0x1c>
 80036b8:	24010b04 	.word	0x24010b04

080036bc <BSP_LCD_Reset>:
  LCD_RESET_GPIO_CLK_ENABLE();
 80036bc:	4b16      	ldr	r3, [pc, #88]	; (8003718 <BSP_LCD_Reset+0x5c>)
 80036be:	f8d3 20e0 	ldr.w	r2, [r3, #224]	; 0xe0
 80036c2:	f042 0240 	orr.w	r2, r2, #64	; 0x40
{
 80036c6:	b5f0      	push	{r4, r5, r6, r7, lr}
  LCD_RESET_GPIO_CLK_ENABLE();
 80036c8:	f8c3 20e0 	str.w	r2, [r3, #224]	; 0xe0
{
 80036cc:	b087      	sub	sp, #28
  LCD_RESET_GPIO_CLK_ENABLE();
 80036ce:	f8d3 30e0 	ldr.w	r3, [r3, #224]	; 0xe0
  gpio_init_structure.Pin   = LCD_RESET_PIN;
 80036d2:	2508      	movs	r5, #8
  HAL_GPIO_Init(LCD_RESET_GPIO_PORT , &gpio_init_structure);
 80036d4:	4c11      	ldr	r4, [pc, #68]	; (800371c <BSP_LCD_Reset+0x60>)
  gpio_init_structure.Mode  = GPIO_MODE_OUTPUT_PP;
 80036d6:	2601      	movs	r6, #1
  LCD_RESET_GPIO_CLK_ENABLE();
 80036d8:	f003 0340 	and.w	r3, r3, #64	; 0x40
  gpio_init_structure.Speed = GPIO_SPEED_FREQ_VERY_HIGH;
 80036dc:	2703      	movs	r7, #3
  HAL_GPIO_Init(LCD_RESET_GPIO_PORT , &gpio_init_structure);
 80036de:	4620      	mov	r0, r4
 80036e0:	a901      	add	r1, sp, #4
  LCD_RESET_GPIO_CLK_ENABLE();
 80036e2:	9300      	str	r3, [sp, #0]
 80036e4:	9b00      	ldr	r3, [sp, #0]
  gpio_init_structure.Pin   = LCD_RESET_PIN;
 80036e6:	9501      	str	r5, [sp, #4]
  gpio_init_structure.Speed = GPIO_SPEED_FREQ_VERY_HIGH;
 80036e8:	9704      	str	r7, [sp, #16]
  gpio_init_structure.Pull  = GPIO_PULLUP;
 80036ea:	e9cd 6602 	strd	r6, r6, [sp, #8]
  HAL_GPIO_Init(LCD_RESET_GPIO_PORT , &gpio_init_structure);
 80036ee:	f001 f99f 	bl	8004a30 <HAL_GPIO_Init>
  HAL_GPIO_WritePin(LCD_RESET_GPIO_PORT , LCD_RESET_PIN, GPIO_PIN_RESET);
 80036f2:	4629      	mov	r1, r5
 80036f4:	4620      	mov	r0, r4
 80036f6:	2200      	movs	r2, #0
 80036f8:	f001 fabe 	bl	8004c78 <HAL_GPIO_WritePin>
  HAL_Delay(20);/* wait 20 ms */
 80036fc:	2014      	movs	r0, #20
 80036fe:	f000 fb9f 	bl	8003e40 <HAL_Delay>
  HAL_GPIO_WritePin(LCD_RESET_GPIO_PORT , LCD_RESET_PIN, GPIO_PIN_SET);/* Deactivate XRES */
 8003702:	4632      	mov	r2, r6
 8003704:	4629      	mov	r1, r5
 8003706:	4620      	mov	r0, r4
 8003708:	f001 fab6 	bl	8004c78 <HAL_GPIO_WritePin>
  HAL_Delay(10);/* Wait for 10ms after releasing XRES before sending commands */
 800370c:	200a      	movs	r0, #10
 800370e:	f000 fb97 	bl	8003e40 <HAL_Delay>
}
 8003712:	b007      	add	sp, #28
 8003714:	bdf0      	pop	{r4, r5, r6, r7, pc}
 8003716:	bf00      	nop
 8003718:	58024400 	.word	0x58024400
 800371c:	58021800 	.word	0x58021800

08003720 <MX_DSIHOST_DSI_Init>:
{
 8003720:	e92d 47f0 	stmdb	sp!, {r4, r5, r6, r7, r8, r9, sl, lr}
  hdsi->Instance = DSI;
 8003724:	f04f 47a0 	mov.w	r7, #1342177280	; 0x50000000
{
 8003728:	b09e      	sub	sp, #120	; 0x78
  hdsi->Init.AutomaticClockLaneControl = DSI_AUTO_CLK_LANE_CTRL_DISABLE;
 800372a:	2500      	movs	r5, #0
  hdsi->Init.TXEscapeCkdiv = 4;
 800372c:	f04f 0904 	mov.w	r9, #4
  hdsi->Init.NumberOfLanes = DSI_TWO_DATA_LANES;
 8003730:	2601      	movs	r6, #1
  PLLInit.PLLNDIV = 100;
 8003732:	f04f 0e64 	mov.w	lr, #100	; 0x64
  PLLInit.PLLIDF = DSI_PLL_IN_DIV5;
 8003736:	f04f 0c05 	mov.w	ip, #5
  hdsi->Instance = DSI;
 800373a:	6007      	str	r7, [r0, #0]
  hdsi->Init.NumberOfLanes = DSI_TWO_DATA_LANES;
 800373c:	60c6      	str	r6, [r0, #12]
{
 800373e:	460f      	mov	r7, r1
  if (HAL_DSI_Init(hdsi, &PLLInit) != HAL_OK)
 8003740:	4669      	mov	r1, sp
{
 8003742:	4604      	mov	r4, r0
 8003744:	4690      	mov	r8, r2
 8003746:	469a      	mov	sl, r3
  PLLInit.PLLODF = DSI_PLL_OUT_DIV1;
 8003748:	9502      	str	r5, [sp, #8]
  hdsi->Init.TXEscapeCkdiv = 4;
 800374a:	e9c0 5901 	strd	r5, r9, [r0, #4]
  PLLInit.PLLIDF = DSI_PLL_IN_DIV5;
 800374e:	e9cd ec00 	strd	lr, ip, [sp]
  if (HAL_DSI_Init(hdsi, &PLLInit) != HAL_OK)
 8003752:	f000 fdcd 	bl	80042f0 <HAL_DSI_Init>
 8003756:	b118      	cbz	r0, 8003760 <MX_DSIHOST_DSI_Init+0x40>
    return HAL_ERROR;
 8003758:	4630      	mov	r0, r6
}
 800375a:	b01e      	add	sp, #120	; 0x78
 800375c:	e8bd 87f0 	ldmia.w	sp!, {r4, r5, r6, r7, r8, r9, sl, pc}
  VidCfg.HorizontalLine = ((Width + OTM8009A_480X800_HSYNC + OTM8009A_480X800_HBP + OTM8009A_480X800_HFP) * 62500U)/27429U;
 8003760:	f24f 4324 	movw	r3, #62500	; 0xf424
 8003764:	4a22      	ldr	r2, [pc, #136]	; (80037f0 <MX_DSIHOST_DSI_Init+0xd0>)
 8003766:	4605      	mov	r5, r0
  if (HAL_DSI_ConfigVideoMode(hdsi, &VidCfg) != HAL_OK)
 8003768:	4620      	mov	r0, r4
  VidCfg.HorizontalLine = ((Width + OTM8009A_480X800_HSYNC + OTM8009A_480X800_HBP + OTM8009A_480X800_HFP) * 62500U)/27429U;
 800376a:	fb03 2207 	mla	r2, r3, r7, r2
 800376e:	4b21      	ldr	r3, [pc, #132]	; (80037f4 <MX_DSIHOST_DSI_Init+0xd4>)
  VidCfg.Mode = DSI_VID_MODE_BURST;
 8003770:	2402      	movs	r4, #2
  VidCfg.VerticalFrontPorch = OTM8009A_480X800_VFP;
 8003772:	2110      	movs	r1, #16
  VidCfg.HorizontalLine = ((Width + OTM8009A_480X800_HSYNC + OTM8009A_480X800_HBP + OTM8009A_480X800_HFP) * 62500U)/27429U;
 8003774:	fba3 2302 	umull	r2, r3, r3, r2
  VidCfg.NullPacketSize = 0xFFFU;
 8003778:	f640 72ff 	movw	r2, #4095	; 0xfff
  VidCfg.HorizontalBackPorch = (OTM8009A_480X800_HBP * 62500U)/27429U;
 800377c:	f04f 0c4d 	mov.w	ip, #77	; 0x4d
  VidCfg.LPHorizontalFrontPorchEnable  = DSI_LP_HFP_ENABLE;
 8003780:	f44f 5e00 	mov.w	lr, #8192	; 0x2000
  VidCfg.HorizontalLine = ((Width + OTM8009A_480X800_HSYNC + OTM8009A_480X800_HBP + OTM8009A_480X800_HFP) * 62500U)/27429U;
 8003784:	0b5b      	lsrs	r3, r3, #13
  VidCfg.VirtualChannelID = 0;
 8003786:	9503      	str	r5, [sp, #12]
  VidCfg.LooselyPacked = DSI_LOOSELY_PACKED_DISABLE;
 8003788:	9505      	str	r5, [sp, #20]
  VidCfg.HSPolarity = DSI_HSYNC_ACTIVE_HIGH;
 800378a:	950a      	str	r5, [sp, #40]	; 0x28
  VidCfg.VerticalSyncActive = OTM8009A_480X800_VSYNC;
 800378c:	9610      	str	r6, [sp, #64]	; 0x40
  VidCfg.LPCommandEnable = DSI_LP_COMMAND_ENABLE;
 800378e:	f44f 4600 	mov.w	r6, #32768	; 0x8000
  VidCfg.VerticalActive = Height;
 8003792:	f8cd 804c 	str.w	r8, [sp, #76]	; 0x4c
  VidCfg.LPVerticalActiveEnable        = DSI_LP_VACT_ENABLE;
 8003796:	f44f 6800 	mov.w	r8, #2048	; 0x800
  VidCfg.FrameBTAAcknowledgeEnable     = DSI_FBTAA_DISABLE;
 800379a:	951d      	str	r5, [sp, #116]	; 0x74
  VidCfg.HorizontalLine = ((Width + OTM8009A_480X800_HSYNC + OTM8009A_480X800_HBP + OTM8009A_480X800_HFP) * 62500U)/27429U;
 800379c:	930f      	str	r3, [sp, #60]	; 0x3c
  VidCfg.LPVerticalSyncActiveEnable    = DSI_LP_VSYNC_ENABLE;
 800379e:	f44f 7380 	mov.w	r3, #256	; 0x100
  VidCfg.Mode = DSI_VID_MODE_BURST;
 80037a2:	9406      	str	r4, [sp, #24]
  VidCfg.LPVerticalFrontPorchEnable    = DSI_LP_VFP_ENABLE;
 80037a4:	f44f 6480 	mov.w	r4, #1024	; 0x400
  VidCfg.NullPacketSize = 0xFFFU;
 80037a8:	9209      	str	r2, [sp, #36]	; 0x24
  VidCfg.LPVerticalBackPorchEnable     = DSI_LP_VBP_ENABLE;
 80037aa:	f44f 7200 	mov.w	r2, #512	; 0x200
  VidCfg.ColorCoding = PixelFormat;
 80037ae:	f8cd a010 	str.w	sl, [sp, #16]
  VidCfg.HorizontalSyncActive = (OTM8009A_480X800_HSYNC * 62500U)/27429U;
 80037b2:	f8cd 9034 	str.w	r9, [sp, #52]	; 0x34
  VidCfg.HorizontalBackPorch = (OTM8009A_480X800_HBP * 62500U)/27429U;
 80037b6:	f8cd c038 	str.w	ip, [sp, #56]	; 0x38
  VidCfg.LPCommandEnable = DSI_LP_COMMAND_ENABLE;
 80037ba:	9614      	str	r6, [sp, #80]	; 0x50
  VidCfg.NumberOfChunks = 0;
 80037bc:	e9cd 7507 	strd	r7, r5, [sp, #28]
  VidCfg.VerticalBackPorch = OTM8009A_480X800_VBP;
 80037c0:	270f      	movs	r7, #15
  VidCfg.DEPolarity = DSI_DATA_ENABLE_ACTIVE_HIGH;
 80037c2:	e9cd 550b 	strd	r5, r5, [sp, #44]	; 0x2c
  VidCfg.LPHorizontalBackPorchEnable   = DSI_LP_HBP_ENABLE;
 80037c6:	f44f 5580 	mov.w	r5, #4096	; 0x1000
  VidCfg.VerticalFrontPorch = OTM8009A_480X800_VFP;
 80037ca:	e9cd 7111 	strd	r7, r1, [sp, #68]	; 0x44
  if (HAL_DSI_ConfigVideoMode(hdsi, &VidCfg) != HAL_OK)
 80037ce:	a903      	add	r1, sp, #12
  VidCfg.LPVACTLargestPacketSize = 4;
 80037d0:	e9cd 9915 	strd	r9, r9, [sp, #84]	; 0x54
  VidCfg.LPHorizontalBackPorchEnable   = DSI_LP_HBP_ENABLE;
 80037d4:	e9cd e517 	strd	lr, r5, [sp, #92]	; 0x5c
  VidCfg.LPVerticalFrontPorchEnable    = DSI_LP_VFP_ENABLE;
 80037d8:	e9cd 8419 	strd	r8, r4, [sp, #100]	; 0x64
  VidCfg.LPVerticalSyncActiveEnable    = DSI_LP_VSYNC_ENABLE;
 80037dc:	e9cd 231b 	strd	r2, r3, [sp, #108]	; 0x6c
  if (HAL_DSI_ConfigVideoMode(hdsi, &VidCfg) != HAL_OK)
 80037e0:	f000 febe 	bl	8004560 <HAL_DSI_ConfigVideoMode>
  return HAL_OK;
 80037e4:	3800      	subs	r0, #0
 80037e6:	bf18      	it	ne
 80037e8:	2001      	movne	r0, #1
}
 80037ea:	b01e      	add	sp, #120	; 0x78
 80037ec:	e8bd 87f0 	ldmia.w	sp!, {r4, r5, r6, r7, r8, r9, sl, pc}
 80037f0:	0042c1d8 	.word	0x0042c1d8
 80037f4:	4c751ce3 	.word	0x4c751ce3

080037f8 <MX_LTDC_Init>:
{
 80037f8:	b4f0      	push	{r4, r5, r6, r7}
  hltdc->Instance = LTDC;
 80037fa:	4d0e      	ldr	r5, [pc, #56]	; (8003834 <MX_LTDC_Init+0x3c>)
  hltdc->Init.AccumulatedActiveW = OTM8009A_480X800_HSYNC + Width + OTM8009A_480X800_HBP - 1;
 80037fc:	f101 0423 	add.w	r4, r1, #35	; 0x23
  hltdc->Init.TotalWidth         = OTM8009A_480X800_HSYNC + Width + OTM8009A_480X800_HBP + OTM8009A_480X800_HFP - 1;
 8003800:	3145      	adds	r1, #69	; 0x45
  hltdc->Init.HorizontalSync     = OTM8009A_480X800_HSYNC - 1;
 8003802:	2701      	movs	r7, #1
  hltdc->Instance = LTDC;
 8003804:	6005      	str	r5, [r0, #0]
  hltdc->Init.AccumulatedVBP     = OTM8009A_480X800_VSYNC + OTM8009A_480X800_VBP - 1;
 8003806:	250f      	movs	r5, #15
  hltdc->Init.AccumulatedHBP     = OTM8009A_480X800_HSYNC + OTM8009A_480X800_HBP - 1;
 8003808:	2623      	movs	r6, #35	; 0x23
  hltdc->Init.AccumulatedActiveW = OTM8009A_480X800_HSYNC + Width + OTM8009A_480X800_HBP - 1;
 800380a:	6244      	str	r4, [r0, #36]	; 0x24
  hltdc->Init.TotalWidth         = OTM8009A_480X800_HSYNC + Width + OTM8009A_480X800_HBP + OTM8009A_480X800_HFP - 1;
 800380c:	62c1      	str	r1, [r0, #44]	; 0x2c
  hltdc->Init.AccumulatedActiveH = OTM8009A_480X800_VSYNC + Height + OTM8009A_480X800_VBP - 1;
 800380e:	1954      	adds	r4, r2, r5
  hltdc->Init.HSPolarity = LTDC_HSPOLARITY_AL;
 8003810:	2100      	movs	r1, #0
  hltdc->Init.TotalHeigh         = OTM8009A_480X800_VSYNC + Height + OTM8009A_480X800_VBP + OTM8009A_480X800_VFP - 1;
 8003812:	321f      	adds	r2, #31
  hltdc->Init.HorizontalSync     = OTM8009A_480X800_HSYNC - 1;
 8003814:	6147      	str	r7, [r0, #20]
  hltdc->Init.AccumulatedHBP     = OTM8009A_480X800_HSYNC + OTM8009A_480X800_HBP - 1;
 8003816:	61c6      	str	r6, [r0, #28]
  hltdc->Init.AccumulatedVBP     = OTM8009A_480X800_VSYNC + OTM8009A_480X800_VBP - 1;
 8003818:	6205      	str	r5, [r0, #32]
  hltdc->Init.AccumulatedActiveH = OTM8009A_480X800_VSYNC + Height + OTM8009A_480X800_VBP - 1;
 800381a:	6284      	str	r4, [r0, #40]	; 0x28
  hltdc->Init.Backcolor.Blue  = 0x00;
 800381c:	8681      	strh	r1, [r0, #52]	; 0x34
  hltdc->Init.Backcolor.Red   = 0x00;
 800381e:	f880 1036 	strb.w	r1, [r0, #54]	; 0x36
  hltdc->Init.TotalHeigh         = OTM8009A_480X800_VSYNC + Height + OTM8009A_480X800_VBP + OTM8009A_480X800_VFP - 1;
 8003822:	6302      	str	r2, [r0, #48]	; 0x30
  hltdc->Init.VerticalSync       = OTM8009A_480X800_VSYNC - 1;
 8003824:	6181      	str	r1, [r0, #24]
}
 8003826:	bcf0      	pop	{r4, r5, r6, r7}
  hltdc->Init.VSPolarity = LTDC_VSPOLARITY_AL;
 8003828:	e9c0 1101 	strd	r1, r1, [r0, #4]
  hltdc->Init.PCPolarity = LTDC_PCPOLARITY_IPC;
 800382c:	e9c0 1103 	strd	r1, r1, [r0, #12]
  return HAL_LTDC_Init(hltdc);
 8003830:	f001 bae0 	b.w	8004df4 <HAL_LTDC_Init>
 8003834:	50001000 	.word	0x50001000

08003838 <MX_LTDC_ConfigLayer>:
{
 8003838:	b5f0      	push	{r4, r5, r6, r7, lr}
 800383a:	4613      	mov	r3, r2
 800383c:	b08f      	sub	sp, #60	; 0x3c
  pLayerCfg.Alpha = 255;
 800383e:	24ff      	movs	r4, #255	; 0xff
  return HAL_LTDC_ConfigLayer(hltdc, &pLayerCfg, LayerIndex);
 8003840:	460a      	mov	r2, r1
  pLayerCfg.WindowY0 = Config->Y0;
 8003842:	6899      	ldr	r1, [r3, #8]
  pLayerCfg.Alpha0 = 0;
 8003844:	2500      	movs	r5, #0
  pLayerCfg.Alpha = 255;
 8003846:	9406      	str	r4, [sp, #24]
  pLayerCfg.BlendingFactor1 = LTDC_BLENDING_FACTOR1_PAxCA;
 8003848:	f44f 67c0 	mov.w	r7, #1536	; 0x600
  pLayerCfg.WindowY0 = Config->Y0;
 800384c:	9103      	str	r1, [sp, #12]
  pLayerCfg.Alpha0 = 0;
 800384e:	9507      	str	r5, [sp, #28]
  pLayerCfg.Backcolor.Blue = 0;
 8003850:	f8ad 5034 	strh.w	r5, [sp, #52]	; 0x34
  pLayerCfg.Backcolor.Red = 0;
 8003854:	f88d 5036 	strb.w	r5, [sp, #54]	; 0x36
  pLayerCfg.WindowX1 = Config->X1;
 8003858:	e9d3 4600 	ldrd	r4, r6, [r3]
  pLayerCfg.WindowX0 = Config->X0;
 800385c:	9401      	str	r4, [sp, #4]
  pLayerCfg.ImageWidth = (Config->X1 - Config->X0);
 800385e:	1b34      	subs	r4, r6, r4
  pLayerCfg.WindowX1 = Config->X1;
 8003860:	9602      	str	r6, [sp, #8]
  pLayerCfg.BlendingFactor2 = LTDC_BLENDING_FACTOR2_PAxCA;
 8003862:	2607      	movs	r6, #7
  pLayerCfg.ImageWidth = (Config->X1 - Config->X0);
 8003864:	940b      	str	r4, [sp, #44]	; 0x2c
  pLayerCfg.WindowY1 = Config->Y1;
 8003866:	68dc      	ldr	r4, [r3, #12]
  pLayerCfg.ImageHeight = (Config->Y1 - Config->Y0);
 8003868:	1a61      	subs	r1, r4, r1
  pLayerCfg.WindowY1 = Config->Y1;
 800386a:	9404      	str	r4, [sp, #16]
  pLayerCfg.ImageHeight = (Config->Y1 - Config->Y0);
 800386c:	910c      	str	r1, [sp, #48]	; 0x30
  pLayerCfg.FBStartAdress = Config->Address;
 800386e:	e9d3 1304 	ldrd	r1, r3, [r3, #16]
  pLayerCfg.BlendingFactor2 = LTDC_BLENDING_FACTOR2_PAxCA;
 8003872:	e9cd 7608 	strd	r7, r6, [sp, #32]
  pLayerCfg.PixelFormat = Config->PixelFormat;
 8003876:	9105      	str	r1, [sp, #20]
  return HAL_LTDC_ConfigLayer(hltdc, &pLayerCfg, LayerIndex);
 8003878:	a901      	add	r1, sp, #4
  pLayerCfg.FBStartAdress = Config->Address;
 800387a:	930a      	str	r3, [sp, #40]	; 0x28
  return HAL_LTDC_ConfigLayer(hltdc, &pLayerCfg, LayerIndex);
 800387c:	f001 fb96 	bl	8004fac <HAL_LTDC_ConfigLayer>
}
 8003880:	b00f      	add	sp, #60	; 0x3c
 8003882:	bdf0      	pop	{r4, r5, r6, r7, pc}

08003884 <MX_LTDC_ClockConfig>:
{
 8003884:	b530      	push	{r4, r5, lr}
  PeriphClkInitStruct.PeriphClockSelection   = RCC_PERIPHCLK_LTDC;
 8003886:	f04f 5300 	mov.w	r3, #536870912	; 0x20000000
{
 800388a:	b0b1      	sub	sp, #196	; 0xc4
  PeriphClkInitStruct.PLL3.PLL3M      = 5U;
 800388c:	2005      	movs	r0, #5
  PeriphClkInitStruct.PLL3.PLL3P      = 2U;
 800388e:	2202      	movs	r2, #2
  PeriphClkInitStruct.PLL3.PLL3RGE    = RCC_PLLCFGR_PLL3RGE_2;
 8003890:	f44f 6100 	mov.w	r1, #2048	; 0x800
  PeriphClkInitStruct.PeriphClockSelection   = RCC_PERIPHCLK_LTDC;
 8003894:	9300      	str	r3, [sp, #0]
  PeriphClkInitStruct.PLL3.PLL3N      = 132U;
 8003896:	2584      	movs	r5, #132	; 0x84
  PeriphClkInitStruct.PLL3.PLL3VCOSEL = RCC_PLL3VCOWIDE;
 8003898:	2300      	movs	r3, #0
  PeriphClkInitStruct.PLL3.PLL3R      = 24U;
 800389a:	2418      	movs	r4, #24
  PeriphClkInitStruct.PLL3.PLL3M      = 5U;
 800389c:	9009      	str	r0, [sp, #36]	; 0x24
  return HAL_RCCEx_PeriphCLKConfig(&PeriphClkInitStruct);
 800389e:	4668      	mov	r0, sp
  PeriphClkInitStruct.PLL3.PLL3FRACN  = 0U;
 80038a0:	9310      	str	r3, [sp, #64]	; 0x40
  PeriphClkInitStruct.PLL3.PLL3P      = 2U;
 80038a2:	e9cd 520a 	strd	r5, r2, [sp, #40]	; 0x28
  PeriphClkInitStruct.PLL3.PLL3R      = 24U;
 80038a6:	e9cd 240c 	strd	r2, r4, [sp, #48]	; 0x30
  PeriphClkInitStruct.PLL3.PLL3VCOSEL = RCC_PLL3VCOWIDE;
 80038aa:	e9cd 130e 	strd	r1, r3, [sp, #56]	; 0x38
  return HAL_RCCEx_PeriphCLKConfig(&PeriphClkInitStruct);
 80038ae:	f002 fa3d 	bl	8005d2c <HAL_RCCEx_PeriphCLKConfig>
}
 80038b2:	b031      	add	sp, #196	; 0xc4
 80038b4:	bd30      	pop	{r4, r5, pc}
 80038b6:	bf00      	nop

080038b8 <BSP_LCD_InitEx>:
{
 80038b8:	e92d 4ff0 	stmdb	sp!, {r4, r5, r6, r7, r8, r9, sl, fp, lr}
  if((Orientation > LCD_ORIENTATION_LANDSCAPE) || (Instance >= LCD_INSTANCES_NBR) || \
 80038bc:	2901      	cmp	r1, #1
{
 80038be:	b093      	sub	sp, #76	; 0x4c
 80038c0:	461d      	mov	r5, r3
 80038c2:	f8dd 8070 	ldr.w	r8, [sp, #112]	; 0x70
 80038c6:	9103      	str	r1, [sp, #12]
  if((Orientation > LCD_ORIENTATION_LANDSCAPE) || (Instance >= LCD_INSTANCES_NBR) || \
 80038c8:	f200 80f2 	bhi.w	8003ab0 <BSP_LCD_InitEx+0x1f8>
 80038cc:	1e03      	subs	r3, r0, #0
 80038ce:	bf18      	it	ne
 80038d0:	2301      	movne	r3, #1
 80038d2:	2800      	cmp	r0, #0
 80038d4:	f040 80ec 	bne.w	8003ab0 <BSP_LCD_InitEx+0x1f8>
     ((PixelFormat != LCD_PIXEL_FORMAT_RGB565) && (PixelFormat != LTDC_PIXEL_FORMAT_RGB888)))
 80038d8:	1e51      	subs	r1, r2, #1
  if((Orientation > LCD_ORIENTATION_LANDSCAPE) || (Instance >= LCD_INSTANCES_NBR) || \
 80038da:	2901      	cmp	r1, #1
 80038dc:	f200 80e8 	bhi.w	8003ab0 <BSP_LCD_InitEx+0x1f8>
    if(PixelFormat == LCD_PIXEL_FORMAT_RGB565)
 80038e0:	2a02      	cmp	r2, #2
 80038e2:	f000 80ab 	beq.w	8003a3c <BSP_LCD_InitEx+0x184>
      ctrl_pixel_format = OTM8009A_FORMAT_RGB888;
 80038e6:	9301      	str	r3, [sp, #4]
      Lcd_Ctx[Instance].BppFactor = 4U;
 80038e8:	2104      	movs	r1, #4
      dsi_pixel_format = DSI_RGB888;
 80038ea:	2305      	movs	r3, #5
  LCD_BL_CTRL_GPIO_CLK_ENABLE();
 80038ec:	4c72      	ldr	r4, [pc, #456]	; (8003ab8 <BSP_LCD_InitEx+0x200>)
    BSP_LCD_Reset(Instance);
 80038ee:	2000      	movs	r0, #0
 80038f0:	4f72      	ldr	r7, [pc, #456]	; (8003abc <BSP_LCD_InitEx+0x204>)
  gpio_init_structure.Pull      = GPIO_NOPULL;
 80038f2:	2600      	movs	r6, #0
 80038f4:	9302      	str	r3, [sp, #8]
  gpio_init_structure.Pin       = LCD_BL_CTRL_PIN;
 80038f6:	f44f 5980 	mov.w	r9, #4096	; 0x1000
 80038fa:	6139      	str	r1, [r7, #16]
  gpio_init_structure.Speed     = GPIO_SPEED_FREQ_HIGH;
 80038fc:	f04f 0b02 	mov.w	fp, #2
    Lcd_Ctx[Instance].PixelFormat = PixelFormat;
 8003900:	60fa      	str	r2, [r7, #12]
  gpio_init_structure.Pin       = LCD_TE_PIN;
 8003902:	f04f 0a04 	mov.w	sl, #4
    Lcd_Ctx[Instance].XSize  = Width;
 8003906:	603d      	str	r5, [r7, #0]
    Lcd_Ctx[Instance].YSize  = Height;
 8003908:	f8c7 8004 	str.w	r8, [r7, #4]
    BSP_LCD_Reset(Instance);
 800390c:	f7ff fed6 	bl	80036bc <BSP_LCD_Reset>
  LCD_BL_CTRL_GPIO_CLK_ENABLE();
 8003910:	f8d4 c0e0 	ldr.w	ip, [r4, #224]	; 0xe0
  gpio_init_structure.Mode      = GPIO_MODE_OUTPUT_PP;
 8003914:	2201      	movs	r2, #1
  HAL_GPIO_Init(LCD_BL_CTRL_GPIO_PORT, &gpio_init_structure);
 8003916:	a90c      	add	r1, sp, #48	; 0x30
 8003918:	4869      	ldr	r0, [pc, #420]	; (8003ac0 <BSP_LCD_InitEx+0x208>)
  LCD_BL_CTRL_GPIO_CLK_ENABLE();
 800391a:	f44c 7c00 	orr.w	ip, ip, #512	; 0x200
 800391e:	f8c4 c0e0 	str.w	ip, [r4, #224]	; 0xe0
 8003922:	f8d4 c0e0 	ldr.w	ip, [r4, #224]	; 0xe0
  gpio_init_structure.Pin       = LCD_BL_CTRL_PIN;
 8003926:	f8cd 9030 	str.w	r9, [sp, #48]	; 0x30
  LCD_BL_CTRL_GPIO_CLK_ENABLE();
 800392a:	f40c 7c00 	and.w	ip, ip, #512	; 0x200
  gpio_init_structure.Mode      = GPIO_MODE_OUTPUT_PP;
 800392e:	920d      	str	r2, [sp, #52]	; 0x34
  gpio_init_structure.Pull      = GPIO_NOPULL;
 8003930:	960e      	str	r6, [sp, #56]	; 0x38
  LCD_BL_CTRL_GPIO_CLK_ENABLE();
 8003932:	f8cd c014 	str.w	ip, [sp, #20]
 8003936:	f8dd c014 	ldr.w	ip, [sp, #20]
  gpio_init_structure.Speed     = GPIO_SPEED_FREQ_HIGH;
 800393a:	f8cd b03c 	str.w	fp, [sp, #60]	; 0x3c
  HAL_GPIO_Init(LCD_BL_CTRL_GPIO_PORT, &gpio_init_structure);
 800393e:	f001 f877 	bl	8004a30 <HAL_GPIO_Init>
  HAL_GPIO_WritePin(LCD_BL_CTRL_GPIO_PORT, LCD_BL_CTRL_PIN, GPIO_PIN_SET);
 8003942:	2201      	movs	r2, #1
 8003944:	4649      	mov	r1, r9
 8003946:	485e      	ldr	r0, [pc, #376]	; (8003ac0 <BSP_LCD_InitEx+0x208>)
 8003948:	f001 f996 	bl	8004c78 <HAL_GPIO_WritePin>
  LCD_TE_GPIO_CLK_ENABLE();
 800394c:	f8d4 c0e0 	ldr.w	ip, [r4, #224]	; 0xe0
  HAL_GPIO_Init(LCD_TE_GPIO_PORT, &gpio_init_structure);
 8003950:	a90c      	add	r1, sp, #48	; 0x30
 8003952:	485b      	ldr	r0, [pc, #364]	; (8003ac0 <BSP_LCD_InitEx+0x208>)
  LCD_TE_GPIO_CLK_ENABLE();
 8003954:	f44c 7c00 	orr.w	ip, ip, #512	; 0x200
    hlcd_dma2d.Instance = DMA2D;
 8003958:	f8df 9194 	ldr.w	r9, [pc, #404]	; 8003af0 <BSP_LCD_InitEx+0x238>
  LCD_TE_GPIO_CLK_ENABLE();
 800395c:	f8c4 c0e0 	str.w	ip, [r4, #224]	; 0xe0
 8003960:	f8d4 40e0 	ldr.w	r4, [r4, #224]	; 0xe0
  gpio_init_structure.Mode      = GPIO_MODE_INPUT;
 8003964:	960d      	str	r6, [sp, #52]	; 0x34
  LCD_TE_GPIO_CLK_ENABLE();
 8003966:	f404 7400 	and.w	r4, r4, #512	; 0x200
  gpio_init_structure.Speed     = GPIO_SPEED_FREQ_HIGH;
 800396a:	f8cd b03c 	str.w	fp, [sp, #60]	; 0x3c
  gpio_init_structure.Pin       = LCD_TE_PIN;
 800396e:	f8cd a030 	str.w	sl, [sp, #48]	; 0x30
  LCD_TE_GPIO_CLK_ENABLE();
 8003972:	9406      	str	r4, [sp, #24]
 8003974:	9c06      	ldr	r4, [sp, #24]
  HAL_GPIO_Init(LCD_TE_GPIO_PORT, &gpio_init_structure);
 8003976:	f001 f85b 	bl	8004a30 <HAL_GPIO_Init>
  HAL_GPIO_WritePin(LCD_TE_GPIO_PORT, LCD_TE_PIN, GPIO_PIN_SET);
 800397a:	2201      	movs	r2, #1
 800397c:	4651      	mov	r1, sl
 800397e:	4850      	ldr	r0, [pc, #320]	; (8003ac0 <BSP_LCD_InitEx+0x208>)
 8003980:	f001 f97a 	bl	8004c78 <HAL_GPIO_WritePin>
  HAL_NVIC_SetPriority(LTDC_IRQn, 0x0F, 0);
 8003984:	4632      	mov	r2, r6
 8003986:	210f      	movs	r1, #15
 8003988:	2058      	movs	r0, #88	; 0x58
 800398a:	f000 fa8d 	bl	8003ea8 <HAL_NVIC_SetPriority>
  HAL_NVIC_EnableIRQ(LTDC_IRQn);
 800398e:	2058      	movs	r0, #88	; 0x58
 8003990:	f000 fac4 	bl	8003f1c <HAL_NVIC_EnableIRQ>
  HAL_NVIC_SetPriority(DMA2D_IRQn, 0x0F, 0);
 8003994:	4632      	mov	r2, r6
 8003996:	210f      	movs	r1, #15
 8003998:	205a      	movs	r0, #90	; 0x5a
 800399a:	f000 fa85 	bl	8003ea8 <HAL_NVIC_SetPriority>
  HAL_NVIC_EnableIRQ(DMA2D_IRQn);
 800399e:	205a      	movs	r0, #90	; 0x5a
 80039a0:	f000 fabc 	bl	8003f1c <HAL_NVIC_EnableIRQ>
  HAL_NVIC_SetPriority(DSI_IRQn, 0x0F, 0);
 80039a4:	4632      	mov	r2, r6
 80039a6:	210f      	movs	r1, #15
 80039a8:	207b      	movs	r0, #123	; 0x7b
 80039aa:	f000 fa7d 	bl	8003ea8 <HAL_NVIC_SetPriority>
  HAL_NVIC_EnableIRQ(DSI_IRQn);
 80039ae:	207b      	movs	r0, #123	; 0x7b
 80039b0:	f000 fab4 	bl	8003f1c <HAL_NVIC_EnableIRQ>
    hlcd_ltdc.Instance = LTDC;
 80039b4:	4c43      	ldr	r4, [pc, #268]	; (8003ac4 <BSP_LCD_InitEx+0x20c>)
    hlcd_dma2d.Instance = DMA2D;
 80039b6:	4844      	ldr	r0, [pc, #272]	; (8003ac8 <BSP_LCD_InitEx+0x210>)
    hlcd_dsi.Instance = DSI;
 80039b8:	f04f 42a0 	mov.w	r2, #1342177280	; 0x50000000
 80039bc:	4943      	ldr	r1, [pc, #268]	; (8003acc <BSP_LCD_InitEx+0x214>)
    hlcd_ltdc.Instance = LTDC;
 80039be:	4e44      	ldr	r6, [pc, #272]	; (8003ad0 <BSP_LCD_InitEx+0x218>)
    hlcd_dsi.Instance = DSI;
 80039c0:	600a      	str	r2, [r1, #0]
    hlcd_ltdc.Instance = LTDC;
 80039c2:	6026      	str	r6, [r4, #0]
    hlcd_dma2d.Instance = DMA2D;
 80039c4:	f8c9 0000 	str.w	r0, [r9]
  if(hltdc->Instance == LTDC)
 80039c8:	f7ff fe04 	bl	80035d4 <LTDC_MspInit.part.0>
  if(hdma2d->Instance == DMA2D)
 80039cc:	f8d9 2000 	ldr.w	r2, [r9]
 80039d0:	9b02      	ldr	r3, [sp, #8]
 80039d2:	4282      	cmp	r2, r0
 80039d4:	d03a      	beq.n	8003a4c <BSP_LCD_InitEx+0x194>
  if(hdsi->Instance == DSI)
 80039d6:	680a      	ldr	r2, [r1, #0]
 80039d8:	f1b2 4fa0 	cmp.w	r2, #1342177280	; 0x50000000
 80039dc:	d031      	beq.n	8003a42 <BSP_LCD_InitEx+0x18a>
    if(MX_DSIHOST_DSI_Init(&hlcd_dsi, Width, Height, dsi_pixel_format) != HAL_OK)
 80039de:	4642      	mov	r2, r8
 80039e0:	4629      	mov	r1, r5
 80039e2:	483a      	ldr	r0, [pc, #232]	; (8003acc <BSP_LCD_InitEx+0x214>)
 80039e4:	f7ff fe9c 	bl	8003720 <MX_DSIHOST_DSI_Init>
 80039e8:	2800      	cmp	r0, #0
 80039ea:	d15c      	bne.n	8003aa6 <BSP_LCD_InitEx+0x1ee>
    else if(MX_LTDC_ClockConfig(&hlcd_ltdc) != HAL_OK)
 80039ec:	4835      	ldr	r0, [pc, #212]	; (8003ac4 <BSP_LCD_InitEx+0x20c>)
 80039ee:	f7ff ff49 	bl	8003884 <MX_LTDC_ClockConfig>
 80039f2:	2800      	cmp	r0, #0
 80039f4:	d157      	bne.n	8003aa6 <BSP_LCD_InitEx+0x1ee>
     if(MX_LTDC_Init(&hlcd_ltdc, Width, Height) != HAL_OK)
 80039f6:	4642      	mov	r2, r8
 80039f8:	4629      	mov	r1, r5
 80039fa:	4832      	ldr	r0, [pc, #200]	; (8003ac4 <BSP_LCD_InitEx+0x20c>)
 80039fc:	f7ff fefc 	bl	80037f8 <MX_LTDC_Init>
 8003a00:	2800      	cmp	r0, #0
 8003a02:	d150      	bne.n	8003aa6 <BSP_LCD_InitEx+0x1ee>
      if(BSP_SDRAM_Init(0) != BSP_ERROR_NONE)
 8003a04:	f000 f8b2 	bl	8003b6c <BSP_SDRAM_Init>
 8003a08:	2800      	cmp	r0, #0
 8003a0a:	d14c      	bne.n	8003aa6 <BSP_LCD_InitEx+0x1ee>
      config.PixelFormat = ltdc_pixel_format;
 8003a0c:	9c01      	ldr	r4, [sp, #4]
      config.Address     = LCD_LAYER_0_ADDRESS;
 8003a0e:	f04f 4350 	mov.w	r3, #3489660928	; 0xd0000000
      if(MX_LTDC_ConfigLayer(&hlcd_ltdc, 0, &config) != HAL_OK)
 8003a12:	4601      	mov	r1, r0
      config.X0          = 0;
 8003a14:	900c      	str	r0, [sp, #48]	; 0x30
      if(MX_LTDC_ConfigLayer(&hlcd_ltdc, 0, &config) != HAL_OK)
 8003a16:	aa0c      	add	r2, sp, #48	; 0x30
      config.Y1          = Height;
 8003a18:	f8cd 803c 	str.w	r8, [sp, #60]	; 0x3c
      config.Y0          = 0;
 8003a1c:	e9cd 500d 	strd	r5, r0, [sp, #52]	; 0x34
      if(MX_LTDC_ConfigLayer(&hlcd_ltdc, 0, &config) != HAL_OK)
 8003a20:	4828      	ldr	r0, [pc, #160]	; (8003ac4 <BSP_LCD_InitEx+0x20c>)
      config.Address     = LCD_LAYER_0_ADDRESS;
 8003a22:	e9cd 4310 	strd	r4, r3, [sp, #64]	; 0x40
      if(MX_LTDC_ConfigLayer(&hlcd_ltdc, 0, &config) != HAL_OK)
 8003a26:	f7ff ff07 	bl	8003838 <MX_LTDC_ConfigLayer>
 8003a2a:	4604      	mov	r4, r0
 8003a2c:	b190      	cbz	r0, 8003a54 <BSP_LCD_InitEx+0x19c>
        ret = BSP_ERROR_PERIPH_FAILURE;
 8003a2e:	f06f 0003 	mvn.w	r0, #3
    Lcd_Ctx[Instance].ReloadEnable = 1U;
 8003a32:	2301      	movs	r3, #1
 8003a34:	61bb      	str	r3, [r7, #24]
}
 8003a36:	b013      	add	sp, #76	; 0x4c
 8003a38:	e8bd 8ff0 	ldmia.w	sp!, {r4, r5, r6, r7, r8, r9, sl, fp, pc}
      Lcd_Ctx[Instance].BppFactor = 2U;
 8003a3c:	4611      	mov	r1, r2
      ctrl_pixel_format = OTM8009A_FORMAT_RBG565;
 8003a3e:	9201      	str	r2, [sp, #4]
 8003a40:	e754      	b.n	80038ec <BSP_LCD_InitEx+0x34>
 8003a42:	9302      	str	r3, [sp, #8]
 8003a44:	f7ff fdfe 	bl	8003644 <DSI_MspInit.part.0>
 8003a48:	9b02      	ldr	r3, [sp, #8]
 8003a4a:	e7c8      	b.n	80039de <BSP_LCD_InitEx+0x126>
 8003a4c:	f7ff fde0 	bl	8003610 <DMA2D_MspInit.part.0>
 8003a50:	9b02      	ldr	r3, [sp, #8]
 8003a52:	e7c0      	b.n	80039d6 <BSP_LCD_InitEx+0x11e>
        (void)HAL_DSI_Start(&hlcd_dsi);
 8003a54:	481d      	ldr	r0, [pc, #116]	; (8003acc <BSP_LCD_InitEx+0x214>)
 8003a56:	f000 febb 	bl	80047d0 <HAL_DSI_Start>
        (void)HAL_DSI_ConfigFlowControl(&hlcd_dsi, DSI_FLOW_CONTROL_BTA);
 8003a5a:	2104      	movs	r1, #4
 8003a5c:	481b      	ldr	r0, [pc, #108]	; (8003acc <BSP_LCD_InitEx+0x214>)
 8003a5e:	f000 fea3 	bl	80047a8 <HAL_DSI_ConfigFlowControl>
  OTM8009A_IO_t              IOCtx;
  static OTM8009A_Object_t   OTM8009AObj;

  /* Configure the audio driver */
  IOCtx.Address     = 0;
  IOCtx.GetTick     = BSP_GetTick;
 8003a62:	4b1c      	ldr	r3, [pc, #112]	; (8003ad4 <BSP_LCD_InitEx+0x21c>)
  IOCtx.WriteReg    = DSI_IO_Write;
  IOCtx.ReadReg     = DSI_IO_Read;

  if(OTM8009A_RegisterBusIO(&OTM8009AObj, &IOCtx) != OTM8009A_OK)
 8003a64:	4d1c      	ldr	r5, [pc, #112]	; (8003ad8 <BSP_LCD_InitEx+0x220>)
 8003a66:	a908      	add	r1, sp, #32
  IOCtx.WriteReg    = DSI_IO_Write;
 8003a68:	4a1c      	ldr	r2, [pc, #112]	; (8003adc <BSP_LCD_InitEx+0x224>)
  IOCtx.GetTick     = BSP_GetTick;
 8003a6a:	930b      	str	r3, [sp, #44]	; 0x2c
  if(OTM8009A_RegisterBusIO(&OTM8009AObj, &IOCtx) != OTM8009A_OK)
 8003a6c:	4628      	mov	r0, r5
  IOCtx.ReadReg     = DSI_IO_Read;
 8003a6e:	4b1c      	ldr	r3, [pc, #112]	; (8003ae0 <BSP_LCD_InitEx+0x228>)
  IOCtx.Address     = 0;
 8003a70:	f8ad 4020 	strh.w	r4, [sp, #32]
  IOCtx.ReadReg     = DSI_IO_Read;
 8003a74:	e9cd 2309 	strd	r2, r3, [sp, #36]	; 0x24
  if(OTM8009A_RegisterBusIO(&OTM8009AObj, &IOCtx) != OTM8009A_OK)
 8003a78:	f7ff fb22 	bl	80030c0 <OTM8009A_RegisterBusIO>
 8003a7c:	b980      	cbnz	r0, 8003aa0 <BSP_LCD_InitEx+0x1e8>
  {
    ret = BSP_ERROR_BUS_FAILURE;
  }
  else
  {
    Lcd_CompObj = &OTM8009AObj;
 8003a7e:	4c19      	ldr	r4, [pc, #100]	; (8003ae4 <BSP_LCD_InitEx+0x22c>)

    if(OTM8009A_ReadID(Lcd_CompObj, &id) != OTM8009A_OK)
 8003a80:	4628      	mov	r0, r5
 8003a82:	a907      	add	r1, sp, #28
    Lcd_CompObj = &OTM8009AObj;
 8003a84:	6025      	str	r5, [r4, #0]
    if(OTM8009A_ReadID(Lcd_CompObj, &id) != OTM8009A_OK)
 8003a86:	f7ff fb07 	bl	8003098 <OTM8009A_ReadID>
 8003a8a:	b948      	cbnz	r0, 8003aa0 <BSP_LCD_InitEx+0x1e8>
      ret = BSP_ERROR_COMPONENT_FAILURE;
    }

    else
    {
      Lcd_Drv = (LCD_Drv_t *)(void *) &OTM8009A_LCD_Driver;
 8003a8c:	4b16      	ldr	r3, [pc, #88]	; (8003ae8 <BSP_LCD_InitEx+0x230>)
 8003a8e:	4d17      	ldr	r5, [pc, #92]	; (8003aec <BSP_LCD_InitEx+0x234>)
      if(Lcd_Drv->Init(Lcd_CompObj, ColorCoding, Orientation) != OTM8009A_OK)
 8003a90:	6820      	ldr	r0, [r4, #0]
 8003a92:	9a03      	ldr	r2, [sp, #12]
 8003a94:	9901      	ldr	r1, [sp, #4]
 8003a96:	681c      	ldr	r4, [r3, #0]
      Lcd_Drv = (LCD_Drv_t *)(void *) &OTM8009A_LCD_Driver;
 8003a98:	602b      	str	r3, [r5, #0]
      if(Lcd_Drv->Init(Lcd_CompObj, ColorCoding, Orientation) != OTM8009A_OK)
 8003a9a:	47a0      	blx	r4
 8003a9c:	2800      	cmp	r0, #0
 8003a9e:	d0c8      	beq.n	8003a32 <BSP_LCD_InitEx+0x17a>
          ret = BSP_ERROR_UNKNOWN_COMPONENT;
 8003aa0:	f06f 0006 	mvn.w	r0, #6
 8003aa4:	e7c5      	b.n	8003a32 <BSP_LCD_InitEx+0x17a>
      ret = BSP_ERROR_PERIPH_FAILURE;
 8003aa6:	f06f 0003 	mvn.w	r0, #3
}
 8003aaa:	b013      	add	sp, #76	; 0x4c
 8003aac:	e8bd 8ff0 	ldmia.w	sp!, {r4, r5, r6, r7, r8, r9, sl, fp, pc}
    ret = BSP_ERROR_WRONG_PARAM;
 8003ab0:	f06f 0001 	mvn.w	r0, #1
 8003ab4:	e7bf      	b.n	8003a36 <BSP_LCD_InitEx+0x17e>
 8003ab6:	bf00      	nop
 8003ab8:	58024400 	.word	0x58024400
 8003abc:	24010ae8 	.word	0x24010ae8
 8003ac0:	58022400 	.word	0x58022400
 8003ac4:	24010a40 	.word	0x24010a40
 8003ac8:	52001000 	.word	0x52001000
 8003acc:	24010b04 	.word	0x24010b04
 8003ad0:	50001000 	.word	0x50001000
 8003ad4:	08003111 	.word	0x08003111
 8003ad8:	24000910 	.word	0x24000910
 8003adc:	08003681 	.word	0x08003681
 8003ae0:	080032a1 	.word	0x080032a1
 8003ae4:	24000908 	.word	0x24000908
 8003ae8:	24000808 	.word	0x24000808
 8003aec:	2400090c 	.word	0x2400090c
 8003af0:	24010b20 	.word	0x24010b20

08003af4 <BSP_LCD_Init>:
{
 8003af4:	b510      	push	{r4, lr}
  return BSP_LCD_InitEx(Instance, Orientation, LCD_PIXEL_FORMAT_RGB888, LCD_DEFAULT_WIDTH, LCD_DEFAULT_HEIGHT);
 8003af6:	f44f 74f0 	mov.w	r4, #480	; 0x1e0
{
 8003afa:	b082      	sub	sp, #8
  return BSP_LCD_InitEx(Instance, Orientation, LCD_PIXEL_FORMAT_RGB888, LCD_DEFAULT_WIDTH, LCD_DEFAULT_HEIGHT);
 8003afc:	f44f 7348 	mov.w	r3, #800	; 0x320
 8003b00:	2201      	movs	r2, #1
 8003b02:	9400      	str	r4, [sp, #0]
 8003b04:	f7ff fed8 	bl	80038b8 <BSP_LCD_InitEx>
}
 8003b08:	b002      	add	sp, #8
 8003b0a:	bd10      	pop	{r4, pc}

08003b0c <MX_SDRAM_Init>:
  * @param  hSdram SDRAM handle
  * @retval HAL status
  */

__weak HAL_StatusTypeDef MX_SDRAM_Init(SDRAM_HandleTypeDef *hSdram)
{
 8003b0c:	b5f0      	push	{r4, r5, r6, r7, lr}
  FMC_SDRAM_TimingTypeDef sdram_timing;

  /* SDRAM device configuration */
  hSdram->Instance = FMC_SDRAM_DEVICE;
 8003b0e:	4915      	ldr	r1, [pc, #84]	; (8003b64 <MX_SDRAM_Init+0x58>)

  /* SDRAM handle configuration */
  hSdram->Init.SDBank             = FMC_SDRAM_BANK2;
  hSdram->Init.ColumnBitsNumber   = FMC_SDRAM_COLUMN_BITS_NUM_9;
  hSdram->Init.RowBitsNumber      = FMC_SDRAM_ROW_BITS_NUM_12;
  hSdram->Init.MemoryDataWidth    = FMC_SDRAM_MEM_BUS_WIDTH_32;
 8003b10:	2620      	movs	r6, #32
  hSdram->Init.InternalBankNumber = FMC_SDRAM_INTERN_BANKS_NUM_4;
 8003b12:	2540      	movs	r5, #64	; 0x40
  hSdram->Init.CASLatency         = FMC_SDRAM_CAS_LATENCY_3;
  hSdram->Init.WriteProtection    = FMC_SDRAM_WRITE_PROTECTION_DISABLE;
  hSdram->Init.SDClockPeriod      = FMC_SDRAM_CLOCK_PERIOD_2;
 8003b14:	f44f 6200 	mov.w	r2, #2048	; 0x800
  hSdram->Init.ReadBurst          = FMC_SDRAM_RBURST_ENABLE;
 8003b18:	f44f 5480 	mov.w	r4, #4096	; 0x1000
{
 8003b1c:	b089      	sub	sp, #36	; 0x24
  hsdram->Init.ReadPipeDelay      = FMC_SDRAM_RPIPE_DELAY_0;
 8003b1e:	4b12      	ldr	r3, [pc, #72]	; (8003b68 <MX_SDRAM_Init+0x5c>)
  hSdram->Init.CASLatency         = FMC_SDRAM_CAS_LATENCY_3;
 8003b20:	f44f 77c0 	mov.w	r7, #384	; 0x180
  hSdram->Instance = FMC_SDRAM_DEVICE;
 8003b24:	6001      	str	r1, [r0, #0]
  hSdram->Init.SDBank             = FMC_SDRAM_BANK2;
 8003b26:	2101      	movs	r1, #1
  hSdram->Init.MemoryDataWidth    = FMC_SDRAM_MEM_BUS_WIDTH_32;
 8003b28:	6106      	str	r6, [r0, #16]
  hSdram->Init.RowBitsNumber      = FMC_SDRAM_ROW_BITS_NUM_12;
 8003b2a:	2604      	movs	r6, #4
  hSdram->Init.InternalBankNumber = FMC_SDRAM_INTERN_BANKS_NUM_4;
 8003b2c:	6145      	str	r5, [r0, #20]
  hSdram->Init.WriteProtection    = FMC_SDRAM_WRITE_PROTECTION_DISABLE;
 8003b2e:	2500      	movs	r5, #0
  hSdram->Init.SDClockPeriod      = FMC_SDRAM_CLOCK_PERIOD_2;
 8003b30:	6202      	str	r2, [r0, #32]

  /* Timing configuration for 100Mhz as SDRAM clock frequency (System clock is up to 200Mhz) */
  sdram_timing.LoadToActiveDelay    = 2;
 8003b32:	2202      	movs	r2, #2
  hSdram->Init.ReadBurst          = FMC_SDRAM_RBURST_ENABLE;
 8003b34:	6244      	str	r4, [r0, #36]	; 0x24
  sdram_timing.ExitSelfRefreshDelay = 7;
 8003b36:	2407      	movs	r4, #7
  hSdram->Init.CASLatency         = FMC_SDRAM_CAS_LATENCY_3;
 8003b38:	6187      	str	r7, [r0, #24]
  hSdram->Init.RowBitsNumber      = FMC_SDRAM_ROW_BITS_NUM_12;
 8003b3a:	60c6      	str	r6, [r0, #12]
  hSdram->Init.WriteProtection    = FMC_SDRAM_WRITE_PROTECTION_DISABLE;
 8003b3c:	61c5      	str	r5, [r0, #28]
  sdram_timing.SelfRefreshTime      = 4;
 8003b3e:	9603      	str	r6, [sp, #12]
  sdram_timing.LoadToActiveDelay    = 2;
 8003b40:	9201      	str	r2, [sp, #4]
  sdram_timing.RowCycleDelay        = 7;
  sdram_timing.WriteRecoveryTime    = 2;
  sdram_timing.RPDelay              = 2;
  sdram_timing.RCDDelay             = 2;
 8003b42:	9207      	str	r2, [sp, #28]
  sdram_timing.ExitSelfRefreshDelay = 7;
 8003b44:	9402      	str	r4, [sp, #8]
  sdram_timing.RowCycleDelay        = 7;
 8003b46:	9404      	str	r4, [sp, #16]
  hSdram->Init.ColumnBitsNumber   = FMC_SDRAM_COLUMN_BITS_NUM_9;
 8003b48:	e9c0 1101 	strd	r1, r1, [r0, #4]

  /* SDRAM controller initialization */
  if(HAL_SDRAM_Init(hSdram, &sdram_timing) != HAL_OK)
 8003b4c:	eb0d 0106 	add.w	r1, sp, r6
  hsdram->Init.ReadPipeDelay      = FMC_SDRAM_RPIPE_DELAY_0;
 8003b50:	629d      	str	r5, [r3, #40]	; 0x28
  sdram_timing.RPDelay              = 2;
 8003b52:	e9cd 2205 	strd	r2, r2, [sp, #20]
  if(HAL_SDRAM_Init(hSdram, &sdram_timing) != HAL_OK)
 8003b56:	f002 fea3 	bl	80068a0 <HAL_SDRAM_Init>
  {
    return  HAL_ERROR;
  }
  return HAL_OK;
}
 8003b5a:	1b40      	subs	r0, r0, r5
 8003b5c:	bf18      	it	ne
 8003b5e:	2001      	movne	r0, #1
 8003b60:	b009      	add	sp, #36	; 0x24
 8003b62:	bdf0      	pop	{r4, r5, r6, r7, pc}
 8003b64:	52004140 	.word	0x52004140
 8003b68:	24010b88 	.word	0x24010b88

08003b6c <BSP_SDRAM_Init>:
  if(Instance >=SDRAM_INSTANCES_NBR)
 8003b6c:	2800      	cmp	r0, #0
 8003b6e:	f040 80e1 	bne.w	8003d34 <BSP_SDRAM_Init+0x1c8>
{
  static MDMA_HandleTypeDef mdma_handle;
  GPIO_InitTypeDef gpio_init_structure;

  /* Enable FMC clock */
  __HAL_RCC_FMC_CLK_ENABLE();
 8003b72:	4b73      	ldr	r3, [pc, #460]	; (8003d40 <BSP_SDRAM_Init+0x1d4>)
  __HAL_RCC_GPIOH_CLK_ENABLE();
  __HAL_RCC_GPIOI_CLK_ENABLE();

  /* Common GPIO configuration */
  gpio_init_structure.Mode      = GPIO_MODE_AF_PP;
  gpio_init_structure.Pull      = GPIO_PULLUP;
 8003b74:	2101      	movs	r1, #1
  __HAL_RCC_FMC_CLK_ENABLE();
 8003b76:	f8d3 20d4 	ldr.w	r2, [r3, #212]	; 0xd4
 8003b7a:	f442 5280 	orr.w	r2, r2, #4096	; 0x1000
{
 8003b7e:	b5f0      	push	{r4, r5, r6, r7, lr}
  __HAL_RCC_FMC_CLK_ENABLE();
 8003b80:	f8c3 20d4 	str.w	r2, [r3, #212]	; 0xd4
{
 8003b84:	b08f      	sub	sp, #60	; 0x3c
  __HAL_RCC_FMC_CLK_ENABLE();
 8003b86:	f8d3 20d4 	ldr.w	r2, [r3, #212]	; 0xd4
 8003b8a:	4605      	mov	r5, r0
  gpio_init_structure.Mode      = GPIO_MODE_AF_PP;
 8003b8c:	2002      	movs	r0, #2
  gpio_init_structure.Speed     = GPIO_SPEED_FREQ_VERY_HIGH;
  gpio_init_structure.Alternate = GPIO_AF12_FMC;
 8003b8e:	240c      	movs	r4, #12
  __HAL_RCC_FMC_CLK_ENABLE();
 8003b90:	f402 5280 	and.w	r2, r2, #4096	; 0x1000
  gpio_init_structure.Speed     = GPIO_SPEED_FREQ_VERY_HIGH;
 8003b94:	2703      	movs	r7, #3
  /* Configure common MDMA parameters */
  mdma_handle.Init.Request                  = MDMA_REQUEST_SW;
  mdma_handle.Init.TransferTriggerMode      = MDMA_BLOCK_TRANSFER;
  mdma_handle.Init.Priority                 = MDMA_PRIORITY_HIGH;
  mdma_handle.Init.Endianness               = MDMA_LITTLE_ENDIANNESS_PRESERVE;
  mdma_handle.Init.SourceInc                = MDMA_SRC_INC_WORD;
 8003b96:	f240 2602 	movw	r6, #514	; 0x202
  __HAL_RCC_FMC_CLK_ENABLE();
 8003b9a:	9201      	str	r2, [sp, #4]
 8003b9c:	9a01      	ldr	r2, [sp, #4]
  SDRAM_MDMAx_CLK_ENABLE();
 8003b9e:	f8d3 20d4 	ldr.w	r2, [r3, #212]	; 0xd4
 8003ba2:	430a      	orrs	r2, r1
 8003ba4:	f8c3 20d4 	str.w	r2, [r3, #212]	; 0xd4
 8003ba8:	f8d3 20d4 	ldr.w	r2, [r3, #212]	; 0xd4
 8003bac:	400a      	ands	r2, r1
 8003bae:	9202      	str	r2, [sp, #8]
 8003bb0:	9a02      	ldr	r2, [sp, #8]
  __HAL_RCC_GPIOD_CLK_ENABLE();
 8003bb2:	f8d3 20e0 	ldr.w	r2, [r3, #224]	; 0xe0
 8003bb6:	f042 0208 	orr.w	r2, r2, #8
 8003bba:	f8c3 20e0 	str.w	r2, [r3, #224]	; 0xe0
 8003bbe:	f8d3 20e0 	ldr.w	r2, [r3, #224]	; 0xe0
 8003bc2:	f002 0208 	and.w	r2, r2, #8
 8003bc6:	9203      	str	r2, [sp, #12]
 8003bc8:	9a03      	ldr	r2, [sp, #12]
  __HAL_RCC_GPIOE_CLK_ENABLE();
 8003bca:	f8d3 20e0 	ldr.w	r2, [r3, #224]	; 0xe0
 8003bce:	f042 0210 	orr.w	r2, r2, #16
 8003bd2:	f8c3 20e0 	str.w	r2, [r3, #224]	; 0xe0
 8003bd6:	f8d3 20e0 	ldr.w	r2, [r3, #224]	; 0xe0
 8003bda:	f002 0210 	and.w	r2, r2, #16
 8003bde:	9204      	str	r2, [sp, #16]
 8003be0:	9a04      	ldr	r2, [sp, #16]
  __HAL_RCC_GPIOF_CLK_ENABLE();
 8003be2:	f8d3 20e0 	ldr.w	r2, [r3, #224]	; 0xe0
 8003be6:	f042 0220 	orr.w	r2, r2, #32
 8003bea:	f8c3 20e0 	str.w	r2, [r3, #224]	; 0xe0
 8003bee:	f8d3 20e0 	ldr.w	r2, [r3, #224]	; 0xe0
 8003bf2:	f002 0220 	and.w	r2, r2, #32
 8003bf6:	9205      	str	r2, [sp, #20]
 8003bf8:	9a05      	ldr	r2, [sp, #20]
  __HAL_RCC_GPIOG_CLK_ENABLE();
 8003bfa:	f8d3 20e0 	ldr.w	r2, [r3, #224]	; 0xe0
 8003bfe:	f042 0240 	orr.w	r2, r2, #64	; 0x40
 8003c02:	f8c3 20e0 	str.w	r2, [r3, #224]	; 0xe0
 8003c06:	f8d3 20e0 	ldr.w	r2, [r3, #224]	; 0xe0
 8003c0a:	f002 0240 	and.w	r2, r2, #64	; 0x40
 8003c0e:	9206      	str	r2, [sp, #24]
 8003c10:	9a06      	ldr	r2, [sp, #24]
  __HAL_RCC_GPIOH_CLK_ENABLE();
 8003c12:	f8d3 20e0 	ldr.w	r2, [r3, #224]	; 0xe0
 8003c16:	f042 0280 	orr.w	r2, r2, #128	; 0x80
 8003c1a:	f8c3 20e0 	str.w	r2, [r3, #224]	; 0xe0
 8003c1e:	f8d3 20e0 	ldr.w	r2, [r3, #224]	; 0xe0
 8003c22:	f002 0280 	and.w	r2, r2, #128	; 0x80
 8003c26:	9207      	str	r2, [sp, #28]
 8003c28:	9a07      	ldr	r2, [sp, #28]
  __HAL_RCC_GPIOI_CLK_ENABLE();
 8003c2a:	f8d3 20e0 	ldr.w	r2, [r3, #224]	; 0xe0
 8003c2e:	f442 7280 	orr.w	r2, r2, #256	; 0x100
 8003c32:	f8c3 20e0 	str.w	r2, [r3, #224]	; 0xe0
  gpio_init_structure.Pin   = GPIO_PIN_0 | GPIO_PIN_1 | GPIO_PIN_8| GPIO_PIN_9 | GPIO_PIN_10 |\
 8003c36:	f24c 7203 	movw	r2, #50947	; 0xc703
  __HAL_RCC_GPIOI_CLK_ENABLE();
 8003c3a:	f8d3 30e0 	ldr.w	r3, [r3, #224]	; 0xe0
  gpio_init_structure.Mode      = GPIO_MODE_AF_PP;
 8003c3e:	900a      	str	r0, [sp, #40]	; 0x28
  __HAL_RCC_GPIOI_CLK_ENABLE();
 8003c40:	f403 7380 	and.w	r3, r3, #256	; 0x100
  HAL_GPIO_Init(GPIOD, &gpio_init_structure);
 8003c44:	483f      	ldr	r0, [pc, #252]	; (8003d44 <BSP_SDRAM_Init+0x1d8>)
  gpio_init_structure.Pull      = GPIO_PULLUP;
 8003c46:	910b      	str	r1, [sp, #44]	; 0x2c
  HAL_GPIO_Init(GPIOD, &gpio_init_structure);
 8003c48:	a909      	add	r1, sp, #36	; 0x24
  __HAL_RCC_GPIOI_CLK_ENABLE();
 8003c4a:	9308      	str	r3, [sp, #32]
  gpio_init_structure.Pin   = GPIO_PIN_0 | GPIO_PIN_1 | GPIO_PIN_8| GPIO_PIN_9 | GPIO_PIN_10 |\
 8003c4c:	9209      	str	r2, [sp, #36]	; 0x24
  __HAL_RCC_GPIOI_CLK_ENABLE();
 8003c4e:	9b08      	ldr	r3, [sp, #32]
  gpio_init_structure.Alternate = GPIO_AF12_FMC;
 8003c50:	940d      	str	r4, [sp, #52]	; 0x34
  gpio_init_structure.Speed     = GPIO_SPEED_FREQ_VERY_HIGH;
 8003c52:	970c      	str	r7, [sp, #48]	; 0x30
  HAL_GPIO_Init(GPIOD, &gpio_init_structure);
 8003c54:	f000 feec 	bl	8004a30 <HAL_GPIO_Init>
  gpio_init_structure.Pin   = GPIO_PIN_0 | GPIO_PIN_1 | GPIO_PIN_7| GPIO_PIN_8 | GPIO_PIN_9 |\
 8003c58:	f64f 7383 	movw	r3, #65411	; 0xff83
  HAL_GPIO_Init(GPIOE, &gpio_init_structure);
 8003c5c:	a909      	add	r1, sp, #36	; 0x24
 8003c5e:	483a      	ldr	r0, [pc, #232]	; (8003d48 <BSP_SDRAM_Init+0x1dc>)
  gpio_init_structure.Pin   = GPIO_PIN_0 | GPIO_PIN_1 | GPIO_PIN_7| GPIO_PIN_8 | GPIO_PIN_9 |\
 8003c60:	9309      	str	r3, [sp, #36]	; 0x24
  HAL_GPIO_Init(GPIOE, &gpio_init_structure);
 8003c62:	f000 fee5 	bl	8004a30 <HAL_GPIO_Init>
  gpio_init_structure.Pin   = GPIO_PIN_0 | GPIO_PIN_1 | GPIO_PIN_2| GPIO_PIN_3 | GPIO_PIN_4 |\
 8003c66:	f64f 033f 	movw	r3, #63551	; 0xf83f
  HAL_GPIO_Init(GPIOF, &gpio_init_structure);
 8003c6a:	a909      	add	r1, sp, #36	; 0x24
 8003c6c:	4837      	ldr	r0, [pc, #220]	; (8003d4c <BSP_SDRAM_Init+0x1e0>)
  gpio_init_structure.Pin   = GPIO_PIN_0 | GPIO_PIN_1 | GPIO_PIN_2| GPIO_PIN_3 | GPIO_PIN_4 |\
 8003c6e:	9309      	str	r3, [sp, #36]	; 0x24
  HAL_GPIO_Init(GPIOF, &gpio_init_structure);
 8003c70:	f000 fede 	bl	8004a30 <HAL_GPIO_Init>
  gpio_init_structure.Pin   = GPIO_PIN_0 | GPIO_PIN_1 | GPIO_PIN_2 /*| GPIO_PIN_3 */|\
 8003c74:	f248 1337 	movw	r3, #33079	; 0x8137
  HAL_GPIO_Init(GPIOG, &gpio_init_structure);
 8003c78:	a909      	add	r1, sp, #36	; 0x24
 8003c7a:	4835      	ldr	r0, [pc, #212]	; (8003d50 <BSP_SDRAM_Init+0x1e4>)
  gpio_init_structure.Pin   = GPIO_PIN_0 | GPIO_PIN_1 | GPIO_PIN_2 /*| GPIO_PIN_3 */|\
 8003c7c:	9309      	str	r3, [sp, #36]	; 0x24
  HAL_GPIO_Init(GPIOG, &gpio_init_structure);
 8003c7e:	f000 fed7 	bl	8004a30 <HAL_GPIO_Init>
  gpio_init_structure.Pin   = GPIO_PIN_5 | GPIO_PIN_6 | GPIO_PIN_7 | GPIO_PIN_8 | GPIO_PIN_9 |\
 8003c82:	f64f 73e0 	movw	r3, #65504	; 0xffe0
  HAL_GPIO_Init(GPIOH, &gpio_init_structure);
 8003c86:	a909      	add	r1, sp, #36	; 0x24
 8003c88:	4832      	ldr	r0, [pc, #200]	; (8003d54 <BSP_SDRAM_Init+0x1e8>)
  gpio_init_structure.Pin   = GPIO_PIN_5 | GPIO_PIN_6 | GPIO_PIN_7 | GPIO_PIN_8 | GPIO_PIN_9 |\
 8003c8a:	9309      	str	r3, [sp, #36]	; 0x24
  HAL_GPIO_Init(GPIOH, &gpio_init_structure);
 8003c8c:	f000 fed0 	bl	8004a30 <HAL_GPIO_Init>
  gpio_init_structure.Pin   = GPIO_PIN_0 | GPIO_PIN_1 | GPIO_PIN_2 | GPIO_PIN_3 | GPIO_PIN_4 |\
 8003c90:	f240 63ff 	movw	r3, #1791	; 0x6ff
  HAL_GPIO_Init(GPIOI, &gpio_init_structure);
 8003c94:	a909      	add	r1, sp, #36	; 0x24
 8003c96:	4830      	ldr	r0, [pc, #192]	; (8003d58 <BSP_SDRAM_Init+0x1ec>)
  mdma_handle.Init.Request                  = MDMA_REQUEST_SW;
 8003c98:	4c30      	ldr	r4, [pc, #192]	; (8003d5c <BSP_SDRAM_Init+0x1f0>)
  gpio_init_structure.Pin   = GPIO_PIN_0 | GPIO_PIN_1 | GPIO_PIN_2 | GPIO_PIN_3 | GPIO_PIN_4 |\
 8003c9a:	9309      	str	r3, [sp, #36]	; 0x24
  HAL_GPIO_Init(GPIOI, &gpio_init_structure);
 8003c9c:	f000 fec8 	bl	8004a30 <HAL_GPIO_Init>
  mdma_handle.Init.Request                  = MDMA_REQUEST_SW;
 8003ca0:	f04f 4280 	mov.w	r2, #1073741824	; 0x40000000
  mdma_handle.Init.DestinationInc           = MDMA_DEST_INC_WORD;
 8003ca4:	f640 0008 	movw	r0, #2056	; 0x808
  mdma_handle.Init.TransferTriggerMode      = MDMA_BLOCK_TRANSFER;
 8003ca8:	f04f 5380 	mov.w	r3, #268435456	; 0x10000000
  mdma_handle.Init.SourceDataSize           = MDMA_SRC_DATASIZE_WORD;
 8003cac:	2120      	movs	r1, #32
  mdma_handle.Init.Request                  = MDMA_REQUEST_SW;
 8003cae:	6062      	str	r2, [r4, #4]
  mdma_handle.Init.DestDataSize             = MDMA_DEST_DATASIZE_WORD;
  mdma_handle.Init.DataAlignment            = MDMA_DATAALIGN_PACKENABLE;
 8003cb0:	f04f 7200 	mov.w	r2, #33554432	; 0x2000000
  mdma_handle.Init.TransferTriggerMode      = MDMA_BLOCK_TRANSFER;
 8003cb4:	60a3      	str	r3, [r4, #8]
  mdma_handle.Init.Priority                 = MDMA_PRIORITY_HIGH;
 8003cb6:	2380      	movs	r3, #128	; 0x80
  mdma_handle.Init.DataAlignment            = MDMA_DATAALIGN_PACKENABLE;
 8003cb8:	6262      	str	r2, [r4, #36]	; 0x24
  mdma_handle.Init.SourceBurst              = MDMA_SOURCE_BURST_SINGLE;
  mdma_handle.Init.DestBurst                = MDMA_DEST_BURST_SINGLE;
  mdma_handle.Init.BufferTransferLength     = 128;
  mdma_handle.Init.SourceBlockAddressOffset = 0;
  mdma_handle.Init.DestBlockAddressOffset   = 0;
  mdma_handle.Instance                      = SDRAM_MDMAx_CHANNEL;
 8003cba:	4a29      	ldr	r2, [pc, #164]	; (8003d60 <BSP_SDRAM_Init+0x1f4>)
  mdma_handle.Init.Priority                 = MDMA_PRIORITY_HIGH;
 8003cbc:	60e3      	str	r3, [r4, #12]
  mdma_handle.Init.DestDataSize             = MDMA_DEST_DATASIZE_WORD;
 8003cbe:	6223      	str	r3, [r4, #32]
  mdma_handle.Init.BufferTransferLength     = 128;
 8003cc0:	62a3      	str	r3, [r4, #40]	; 0x28
  mdma_handle.Init.SourceDataSize           = MDMA_SRC_DATASIZE_WORD;
 8003cc2:	61e1      	str	r1, [r4, #28]
  mdma_handle.Instance                      = SDRAM_MDMAx_CHANNEL;
 8003cc4:	6022      	str	r2, [r4, #0]
  mdma_handle.Init.Endianness               = MDMA_LITTLE_ENDIANNESS_PRESERVE;
 8003cc6:	6125      	str	r5, [r4, #16]
  mdma_handle.Init.DestinationInc           = MDMA_DEST_INC_WORD;
 8003cc8:	e9c4 6005 	strd	r6, r0, [r4, #20]

   /* Associate the MDMA handle */
  __HAL_LINKDMA(hsdram, hmdma, mdma_handle);
 8003ccc:	4e25      	ldr	r6, [pc, #148]	; (8003d64 <BSP_SDRAM_Init+0x1f8>)

  /* Deinitialize the stream for new transfer */
  (void)HAL_MDMA_DeInit(&mdma_handle);
 8003cce:	4620      	mov	r0, r4
  __HAL_LINKDMA(hsdram, hmdma, mdma_handle);
 8003cd0:	6334      	str	r4, [r6, #48]	; 0x30
 8003cd2:	6426      	str	r6, [r4, #64]	; 0x40
  mdma_handle.Init.DestBurst                = MDMA_DEST_BURST_SINGLE;
 8003cd4:	e9c4 550b 	strd	r5, r5, [r4, #44]	; 0x2c
  mdma_handle.Init.DestBlockAddressOffset   = 0;
 8003cd8:	e9c4 550d 	strd	r5, r5, [r4, #52]	; 0x34
  (void)HAL_MDMA_DeInit(&mdma_handle);
 8003cdc:	f001 fa10 	bl	8005100 <HAL_MDMA_DeInit>

  /* Configure the MDMA stream */
  (void)HAL_MDMA_Init(&mdma_handle);
 8003ce0:	4620      	mov	r0, r4
 8003ce2:	f001 f993 	bl	800500c <HAL_MDMA_Init>

  /* NVIC configuration for DMA transfer complete interrupt */
  HAL_NVIC_SetPriority(SDRAM_MDMAx_IRQn, BSP_SDRAM_IT_PRIORITY, 0);
 8003ce6:	462a      	mov	r2, r5
 8003ce8:	210f      	movs	r1, #15
 8003cea:	207a      	movs	r0, #122	; 0x7a
 8003cec:	f000 f8dc 	bl	8003ea8 <HAL_NVIC_SetPriority>
  HAL_NVIC_EnableIRQ(SDRAM_MDMAx_IRQn);
 8003cf0:	207a      	movs	r0, #122	; 0x7a
 8003cf2:	f000 f913 	bl	8003f1c <HAL_NVIC_EnableIRQ>
    if(MX_SDRAM_Init(&hsdram[0]) != HAL_OK)
 8003cf6:	4630      	mov	r0, r6
 8003cf8:	f7ff ff08 	bl	8003b0c <MX_SDRAM_Init>
 8003cfc:	4603      	mov	r3, r0
 8003cfe:	b9e0      	cbnz	r0, 8003d3a <BSP_SDRAM_Init+0x1ce>
      pRegMode.TargetBank      = FMC_SDRAM_CMD_TARGET_BANK2;
 8003d00:	4919      	ldr	r1, [pc, #100]	; (8003d68 <BSP_SDRAM_Init+0x1fc>)
 8003d02:	f04f 0c08 	mov.w	ip, #8
      pRegMode.WriteBurstMode  = IS42S32800J_WRITEBURST_MODE_SINGLE;
 8003d06:	f44f 7200 	mov.w	r2, #512	; 0x200
      pRegMode.RefreshRate     = REFRESH_COUNT;
 8003d0a:	f240 6503 	movw	r5, #1539	; 0x603
      pRegMode.CASLatency      = IS42S32800J_CAS_LATENCY_3;
 8003d0e:	2430      	movs	r4, #48	; 0x30
      if(IS42S32800J_Init(&hsdram[0], &pRegMode) != IS42S32800J_OK)
 8003d10:	4630      	mov	r0, r6
      pRegMode.RefreshMode     = IS42S32800J_AUTOREFRESH_MODE_CMD;
 8003d12:	604f      	str	r7, [r1, #4]
      pRegMode.BurstLength     = IS42S32800J_BURST_LENGTH_1;
 8003d14:	60cb      	str	r3, [r1, #12]
      pRegMode.BurstType       = IS42S32800J_BURST_TYPE_SEQUENTIAL;
 8003d16:	610b      	str	r3, [r1, #16]
      pRegMode.OperationMode   = IS42S32800J_OPERATING_MODE_STANDARD;
 8003d18:	618b      	str	r3, [r1, #24]
      pRegMode.TargetBank      = FMC_SDRAM_CMD_TARGET_BANK2;
 8003d1a:	f8c1 c000 	str.w	ip, [r1]
      pRegMode.RefreshRate     = REFRESH_COUNT;
 8003d1e:	608d      	str	r5, [r1, #8]
      pRegMode.CASLatency      = IS42S32800J_CAS_LATENCY_3;
 8003d20:	614c      	str	r4, [r1, #20]
      pRegMode.WriteBurstMode  = IS42S32800J_WRITEBURST_MODE_SINGLE;
 8003d22:	61ca      	str	r2, [r1, #28]
      if(IS42S32800J_Init(&hsdram[0], &pRegMode) != IS42S32800J_OK)
 8003d24:	f7fe fc62 	bl	80025ec <IS42S32800J_Init>
        ret =  BSP_ERROR_COMPONENT_FAILURE;
 8003d28:	2800      	cmp	r0, #0
 8003d2a:	bf18      	it	ne
 8003d2c:	f06f 0004 	mvnne.w	r0, #4
}
 8003d30:	b00f      	add	sp, #60	; 0x3c
 8003d32:	bdf0      	pop	{r4, r5, r6, r7, pc}
    ret =  BSP_ERROR_WRONG_PARAM;
 8003d34:	f06f 0001 	mvn.w	r0, #1
}
 8003d38:	4770      	bx	lr
      ret = BSP_ERROR_NO_INIT;
 8003d3a:	f04f 30ff 	mov.w	r0, #4294967295
 8003d3e:	e7f7      	b.n	8003d30 <BSP_SDRAM_Init+0x1c4>
 8003d40:	58024400 	.word	0x58024400
 8003d44:	58020c00 	.word	0x58020c00
 8003d48:	58021000 	.word	0x58021000
 8003d4c:	58021400 	.word	0x58021400
 8003d50:	58021800 	.word	0x58021800
 8003d54:	58021c00 	.word	0x58021c00
 8003d58:	58022000 	.word	0x58022000
 8003d5c:	24000930 	.word	0x24000930
 8003d60:	52000040 	.word	0x52000040
 8003d64:	24010b88 	.word	0x24010b88
 8003d68:	2400099c 	.word	0x2400099c

08003d6c <HAL_MspInit>:
__weak void HAL_MspInit(void)
{
  /* NOTE : This function Should not be modified, when the callback is needed,
            the HAL_MspInit could be implemented in the user file
   */
}
 8003d6c:	4770      	bx	lr
 8003d6e:	bf00      	nop

08003d70 <HAL_InitTick>:
  * @retval HAL status
  */
__weak HAL_StatusTypeDef HAL_InitTick(uint32_t TickPriority)
{
  /* Check uwTickFreq for MisraC 2012 (even if uwTickFreq is a enum type that don't take the value zero)*/
  if((uint32_t)uwTickFreq == 0UL)
 8003d70:	4b0f      	ldr	r3, [pc, #60]	; (8003db0 <HAL_InitTick+0x40>)
 8003d72:	781b      	ldrb	r3, [r3, #0]
 8003d74:	b90b      	cbnz	r3, 8003d7a <HAL_InitTick+0xa>
  {
    return HAL_ERROR;
 8003d76:	2001      	movs	r0, #1
    return HAL_ERROR;
  }

  /* Return function status */
  return HAL_OK;
}
 8003d78:	4770      	bx	lr
{
 8003d7a:	b510      	push	{r4, lr}
 8003d7c:	4604      	mov	r4, r0
    if (HAL_SYSTICK_Config(SystemCoreClock / (1000UL / (uint32_t)uwTickFreq)) > 0U)
 8003d7e:	f44f 707a 	mov.w	r0, #1000	; 0x3e8
 8003d82:	4a0c      	ldr	r2, [pc, #48]	; (8003db4 <HAL_InitTick+0x44>)
 8003d84:	fbb0 f3f3 	udiv	r3, r0, r3
 8003d88:	6810      	ldr	r0, [r2, #0]
 8003d8a:	fbb0 f0f3 	udiv	r0, r0, r3
 8003d8e:	f000 f8d3 	bl	8003f38 <HAL_SYSTICK_Config>
  if (TickPriority < (1UL << __NVIC_PRIO_BITS))
 8003d92:	2c0f      	cmp	r4, #15
 8003d94:	d800      	bhi.n	8003d98 <HAL_InitTick+0x28>
 8003d96:	b108      	cbz	r0, 8003d9c <HAL_InitTick+0x2c>
    return HAL_ERROR;
 8003d98:	2001      	movs	r0, #1
}
 8003d9a:	bd10      	pop	{r4, pc}
    HAL_NVIC_SetPriority(SysTick_IRQn, TickPriority, 0U);
 8003d9c:	2200      	movs	r2, #0
 8003d9e:	4621      	mov	r1, r4
 8003da0:	f04f 30ff 	mov.w	r0, #4294967295
 8003da4:	f000 f880 	bl	8003ea8 <HAL_NVIC_SetPriority>
    uwTickPrio = TickPriority;
 8003da8:	4b03      	ldr	r3, [pc, #12]	; (8003db8 <HAL_InitTick+0x48>)
 8003daa:	2000      	movs	r0, #0
 8003dac:	601c      	str	r4, [r3, #0]
}
 8003dae:	bd10      	pop	{r4, pc}
 8003db0:	24000854 	.word	0x24000854
 8003db4:	24000000 	.word	0x24000000
 8003db8:	24000858 	.word	0x24000858

08003dbc <HAL_Init>:
{
 8003dbc:	b538      	push	{r3, r4, r5, lr}
  HAL_NVIC_SetPriorityGrouping(NVIC_PRIORITYGROUP_4);
 8003dbe:	2003      	movs	r0, #3
  common_system_clock = HAL_RCC_GetSysClockFreq() >> ((D1CorePrescTable[(RCC->D1CFGR & RCC_D1CFGR_D1CPRE)>> RCC_D1CFGR_D1CPRE_Pos]) & 0x1FU);
 8003dc0:	4c12      	ldr	r4, [pc, #72]	; (8003e0c <HAL_Init+0x50>)
  HAL_NVIC_SetPriorityGrouping(NVIC_PRIORITYGROUP_4);
 8003dc2:	f000 f85d 	bl	8003e80 <HAL_NVIC_SetPriorityGrouping>
  SystemD2Clock = (common_system_clock >> ((D1CorePrescTable[(RCC->D1CFGR & RCC_D1CFGR_HPRE)>> RCC_D1CFGR_HPRE_Pos]) & 0x1FU));
 8003dc6:	4d12      	ldr	r5, [pc, #72]	; (8003e10 <HAL_Init+0x54>)
  common_system_clock = HAL_RCC_GetSysClockFreq() >> ((D1CorePrescTable[(RCC->D1CFGR & RCC_D1CFGR_D1CPRE)>> RCC_D1CFGR_D1CPRE_Pos]) & 0x1FU);
 8003dc8:	f001 fcee 	bl	80057a8 <HAL_RCC_GetSysClockFreq>
 8003dcc:	4b11      	ldr	r3, [pc, #68]	; (8003e14 <HAL_Init+0x58>)
 8003dce:	4602      	mov	r2, r0
  if(HAL_InitTick(TICK_INT_PRIORITY) != HAL_OK)
 8003dd0:	200f      	movs	r0, #15
  common_system_clock = HAL_RCC_GetSysClockFreq() >> ((D1CorePrescTable[(RCC->D1CFGR & RCC_D1CFGR_D1CPRE)>> RCC_D1CFGR_D1CPRE_Pos]) & 0x1FU);
 8003dd2:	6999      	ldr	r1, [r3, #24]
  SystemD2Clock = (common_system_clock >> ((D1CorePrescTable[(RCC->D1CFGR & RCC_D1CFGR_HPRE)>> RCC_D1CFGR_HPRE_Pos]) & 0x1FU));
 8003dd4:	699b      	ldr	r3, [r3, #24]
  common_system_clock = HAL_RCC_GetSysClockFreq() >> ((D1CorePrescTable[(RCC->D1CFGR & RCC_D1CFGR_D1CPRE)>> RCC_D1CFGR_D1CPRE_Pos]) & 0x1FU);
 8003dd6:	f3c1 2103 	ubfx	r1, r1, #8, #4
  SystemD2Clock = (common_system_clock >> ((D1CorePrescTable[(RCC->D1CFGR & RCC_D1CFGR_HPRE)>> RCC_D1CFGR_HPRE_Pos]) & 0x1FU));
 8003dda:	4003      	ands	r3, r0
  common_system_clock = HAL_RCC_GetSysClockFreq() >> ((D1CorePrescTable[(RCC->D1CFGR & RCC_D1CFGR_D1CPRE)>> RCC_D1CFGR_D1CPRE_Pos]) & 0x1FU);
 8003ddc:	5c61      	ldrb	r1, [r4, r1]
  SystemD2Clock = (common_system_clock >> ((D1CorePrescTable[(RCC->D1CFGR & RCC_D1CFGR_HPRE)>> RCC_D1CFGR_HPRE_Pos]) & 0x1FU));
 8003dde:	5ce3      	ldrb	r3, [r4, r3]
  common_system_clock = HAL_RCC_GetSysClockFreq() >> ((D1CorePrescTable[(RCC->D1CFGR & RCC_D1CFGR_D1CPRE)>> RCC_D1CFGR_D1CPRE_Pos]) & 0x1FU);
 8003de0:	f001 011f 	and.w	r1, r1, #31
  SystemCoreClock = common_system_clock;
 8003de4:	4c0c      	ldr	r4, [pc, #48]	; (8003e18 <HAL_Init+0x5c>)
  SystemD2Clock = (common_system_clock >> ((D1CorePrescTable[(RCC->D1CFGR & RCC_D1CFGR_HPRE)>> RCC_D1CFGR_HPRE_Pos]) & 0x1FU));
 8003de6:	f003 031f 	and.w	r3, r3, #31
  common_system_clock = HAL_RCC_GetSysClockFreq() >> ((D1CorePrescTable[(RCC->D1CFGR & RCC_D1CFGR_D1CPRE)>> RCC_D1CFGR_D1CPRE_Pos]) & 0x1FU);
 8003dea:	40ca      	lsrs	r2, r1
  SystemD2Clock = (common_system_clock >> ((D1CorePrescTable[(RCC->D1CFGR & RCC_D1CFGR_HPRE)>> RCC_D1CFGR_HPRE_Pos]) & 0x1FU));
 8003dec:	fa22 f303 	lsr.w	r3, r2, r3
  SystemCoreClock = common_system_clock;
 8003df0:	6022      	str	r2, [r4, #0]
  SystemD2Clock = (common_system_clock >> ((D1CorePrescTable[(RCC->D1CFGR & RCC_D1CFGR_HPRE)>> RCC_D1CFGR_HPRE_Pos]) & 0x1FU));
 8003df2:	602b      	str	r3, [r5, #0]
  if(HAL_InitTick(TICK_INT_PRIORITY) != HAL_OK)
 8003df4:	f7ff ffbc 	bl	8003d70 <HAL_InitTick>
 8003df8:	b110      	cbz	r0, 8003e00 <HAL_Init+0x44>
    return HAL_ERROR;
 8003dfa:	2401      	movs	r4, #1
}
 8003dfc:	4620      	mov	r0, r4
 8003dfe:	bd38      	pop	{r3, r4, r5, pc}
 8003e00:	4604      	mov	r4, r0
  HAL_MspInit();
 8003e02:	f7ff ffb3 	bl	8003d6c <HAL_MspInit>
}
 8003e06:	4620      	mov	r0, r4
 8003e08:	bd38      	pop	{r3, r4, r5, pc}
 8003e0a:	bf00      	nop
 8003e0c:	080076bc 	.word	0x080076bc
 8003e10:	24000004 	.word	0x24000004
 8003e14:	58024400 	.word	0x58024400
 8003e18:	24000000 	.word	0x24000000

08003e1c <HAL_IncTick>:
  *      implementations in user file.
  * @retval None
  */
__weak void HAL_IncTick(void)
{
  uwTick += (uint32_t)uwTickFreq;
 8003e1c:	4a03      	ldr	r2, [pc, #12]	; (8003e2c <HAL_IncTick+0x10>)
 8003e1e:	4b04      	ldr	r3, [pc, #16]	; (8003e30 <HAL_IncTick+0x14>)
 8003e20:	6811      	ldr	r1, [r2, #0]
 8003e22:	781b      	ldrb	r3, [r3, #0]
 8003e24:	440b      	add	r3, r1
 8003e26:	6013      	str	r3, [r2, #0]
}
 8003e28:	4770      	bx	lr
 8003e2a:	bf00      	nop
 8003e2c:	24010bbc 	.word	0x24010bbc
 8003e30:	24000854 	.word	0x24000854

08003e34 <HAL_GetTick>:
  *       implementations in user file.
  * @retval tick value
  */
__weak uint32_t HAL_GetTick(void)
{
  return uwTick;
 8003e34:	4b01      	ldr	r3, [pc, #4]	; (8003e3c <HAL_GetTick+0x8>)
 8003e36:	6818      	ldr	r0, [r3, #0]
}
 8003e38:	4770      	bx	lr
 8003e3a:	bf00      	nop
 8003e3c:	24010bbc 	.word	0x24010bbc

08003e40 <HAL_Delay>:
  *       implementations in user file.
  * @param Delay  specifies the delay time length, in milliseconds.
  * @retval None
  */
__weak void HAL_Delay(uint32_t Delay)
{
 8003e40:	b538      	push	{r3, r4, r5, lr}
 8003e42:	4604      	mov	r4, r0
  uint32_t tickstart = HAL_GetTick();
 8003e44:	f7ff fff6 	bl	8003e34 <HAL_GetTick>
 8003e48:	4605      	mov	r5, r0
  uint32_t wait = Delay;

  /* Add a freq to guarantee minimum wait */
  if (wait < HAL_MAX_DELAY)
 8003e4a:	1c63      	adds	r3, r4, #1
 8003e4c:	d002      	beq.n	8003e54 <HAL_Delay+0x14>
  {
    wait += (uint32_t)(uwTickFreq);
 8003e4e:	4b04      	ldr	r3, [pc, #16]	; (8003e60 <HAL_Delay+0x20>)
 8003e50:	781b      	ldrb	r3, [r3, #0]
 8003e52:	441c      	add	r4, r3
  }

  while ((HAL_GetTick() - tickstart) < wait)
 8003e54:	f7ff ffee 	bl	8003e34 <HAL_GetTick>
 8003e58:	1b43      	subs	r3, r0, r5
 8003e5a:	42a3      	cmp	r3, r4
 8003e5c:	d3fa      	bcc.n	8003e54 <HAL_Delay+0x14>
  {
  }
}
 8003e5e:	bd38      	pop	{r3, r4, r5, pc}
 8003e60:	24000854 	.word	0x24000854

08003e64 <HAL_GetREVID>:
  * @brief  Returns the device revision identifier.
  * @retval Device revision identifier
  */
uint32_t HAL_GetREVID(void)
{
   return((DBGMCU->IDCODE) >> 16);
 8003e64:	4b01      	ldr	r3, [pc, #4]	; (8003e6c <HAL_GetREVID+0x8>)
 8003e66:	6818      	ldr	r0, [r3, #0]
}
 8003e68:	0c00      	lsrs	r0, r0, #16
 8003e6a:	4770      	bx	lr
 8003e6c:	5c001000 	.word	0x5c001000

08003e70 <HAL_EnableCompensationCell>:
  *         voltage ranges from 1.62 to 2.0 V and from 2.7 to 3.6 V.
  * @retval None
  */
void HAL_EnableCompensationCell(void)
{
  SET_BIT(SYSCFG->CCCSR, SYSCFG_CCCSR_EN) ;
 8003e70:	4a02      	ldr	r2, [pc, #8]	; (8003e7c <HAL_EnableCompensationCell+0xc>)
 8003e72:	6a13      	ldr	r3, [r2, #32]
 8003e74:	f043 0301 	orr.w	r3, r3, #1
 8003e78:	6213      	str	r3, [r2, #32]
}
 8003e7a:	4770      	bx	lr
 8003e7c:	58000400 	.word	0x58000400

08003e80 <HAL_NVIC_SetPriorityGrouping>:
  reg_value  =  SCB->AIRCR;                                                   /* read old register configuration    */
 8003e80:	4907      	ldr	r1, [pc, #28]	; (8003ea0 <HAL_NVIC_SetPriorityGrouping+0x20>)
                (PriorityGroupTmp << SCB_AIRCR_PRIGROUP_Pos)  );              /* Insert write key and priority group */
 8003e82:	0200      	lsls	r0, r0, #8
  reg_value  =  (reg_value                                   |
 8003e84:	4b07      	ldr	r3, [pc, #28]	; (8003ea4 <HAL_NVIC_SetPriorityGrouping+0x24>)
  reg_value  =  SCB->AIRCR;                                                   /* read old register configuration    */
 8003e86:	68ca      	ldr	r2, [r1, #12]
                (PriorityGroupTmp << SCB_AIRCR_PRIGROUP_Pos)  );              /* Insert write key and priority group */
 8003e88:	f400 60e0 	and.w	r0, r0, #1792	; 0x700
  * @note   When the NVIC_PriorityGroup_0 is selected, IRQ preemption is no more possible.
  *         The pending IRQ priority will be managed only by the subpriority.
  * @retval None
  */
void HAL_NVIC_SetPriorityGrouping(uint32_t PriorityGroup)
{
 8003e8c:	b410      	push	{r4}
  reg_value &= ~((uint32_t)(SCB_AIRCR_VECTKEY_Msk | SCB_AIRCR_PRIGROUP_Msk)); /* clear bits to change               */
 8003e8e:	f64f 04ff 	movw	r4, #63743	; 0xf8ff
 8003e92:	4022      	ands	r2, r4
  /* Check the parameters */
  assert_param(IS_NVIC_PRIORITY_GROUP(PriorityGroup));

  /* Set the PRIGROUP[10:8] bits according to the PriorityGroup parameter value */
  NVIC_SetPriorityGrouping(PriorityGroup);
}
 8003e94:	f85d 4b04 	ldr.w	r4, [sp], #4
                ((uint32_t)0x5FAUL << SCB_AIRCR_VECTKEY_Pos) |
 8003e98:	4310      	orrs	r0, r2
  reg_value  =  (reg_value                                   |
 8003e9a:	4303      	orrs	r3, r0
  SCB->AIRCR =  reg_value;
 8003e9c:	60cb      	str	r3, [r1, #12]
 8003e9e:	4770      	bx	lr
 8003ea0:	e000ed00 	.word	0xe000ed00
 8003ea4:	05fa0000 	.word	0x05fa0000

08003ea8 <HAL_NVIC_SetPriority>:
  return ((uint32_t)((SCB->AIRCR & SCB_AIRCR_PRIGROUP_Msk) >> SCB_AIRCR_PRIGROUP_Pos));
 8003ea8:	4b19      	ldr	r3, [pc, #100]	; (8003f10 <HAL_NVIC_SetPriority+0x68>)
 8003eaa:	68db      	ldr	r3, [r3, #12]
 8003eac:	f3c3 2302 	ubfx	r3, r3, #8, #3
  *         This parameter can be a value between 0 and 15
  *         A lower priority value indicates a higher priority.
  * @retval None
  */
void HAL_NVIC_SetPriority(IRQn_Type IRQn, uint32_t PreemptPriority, uint32_t SubPriority)
{
 8003eb0:	b430      	push	{r4, r5}
  PreemptPriorityBits = ((7UL - PriorityGroupTmp) > (uint32_t)(__NVIC_PRIO_BITS)) ? (uint32_t)(__NVIC_PRIO_BITS) : (uint32_t)(7UL - PriorityGroupTmp);
 8003eb2:	f1c3 0507 	rsb	r5, r3, #7
  SubPriorityBits     = ((PriorityGroupTmp + (uint32_t)(__NVIC_PRIO_BITS)) < (uint32_t)7UL) ? (uint32_t)0UL : (uint32_t)((PriorityGroupTmp - 7UL) + (uint32_t)(__NVIC_PRIO_BITS));
 8003eb6:	1d1c      	adds	r4, r3, #4
  PreemptPriorityBits = ((7UL - PriorityGroupTmp) > (uint32_t)(__NVIC_PRIO_BITS)) ? (uint32_t)(__NVIC_PRIO_BITS) : (uint32_t)(7UL - PriorityGroupTmp);
 8003eb8:	2d04      	cmp	r5, #4
 8003eba:	bf28      	it	cs
 8003ebc:	2504      	movcs	r5, #4
  SubPriorityBits     = ((PriorityGroupTmp + (uint32_t)(__NVIC_PRIO_BITS)) < (uint32_t)7UL) ? (uint32_t)0UL : (uint32_t)((PriorityGroupTmp - 7UL) + (uint32_t)(__NVIC_PRIO_BITS));
 8003ebe:	2c06      	cmp	r4, #6
 8003ec0:	d919      	bls.n	8003ef6 <HAL_NVIC_SetPriority+0x4e>
 8003ec2:	3b03      	subs	r3, #3
 8003ec4:	f04f 34ff 	mov.w	r4, #4294967295
 8003ec8:	409c      	lsls	r4, r3
 8003eca:	ea22 0204 	bic.w	r2, r2, r4
           ((PreemptPriority & (uint32_t)((1UL << (PreemptPriorityBits)) - 1UL)) << SubPriorityBits) |
 8003ece:	f04f 34ff 	mov.w	r4, #4294967295
  if ((int32_t)(IRQn) >= 0)
 8003ed2:	2800      	cmp	r0, #0
           ((PreemptPriority & (uint32_t)((1UL << (PreemptPriorityBits)) - 1UL)) << SubPriorityBits) |
 8003ed4:	fa04 f405 	lsl.w	r4, r4, r5
 8003ed8:	ea21 0104 	bic.w	r1, r1, r4
 8003edc:	fa01 f103 	lsl.w	r1, r1, r3
 8003ee0:	ea41 0102 	orr.w	r1, r1, r2
  if ((int32_t)(IRQn) >= 0)
 8003ee4:	db0a      	blt.n	8003efc <HAL_NVIC_SetPriority+0x54>
    NVIC->IP[((uint32_t)IRQn)]                = (uint8_t)((priority << (8U - __NVIC_PRIO_BITS)) & (uint32_t)0xFFUL);
 8003ee6:	0109      	lsls	r1, r1, #4
 8003ee8:	4b0a      	ldr	r3, [pc, #40]	; (8003f14 <HAL_NVIC_SetPriority+0x6c>)
 8003eea:	b2c9      	uxtb	r1, r1
 8003eec:	4403      	add	r3, r0
 8003eee:	f883 1300 	strb.w	r1, [r3, #768]	; 0x300
  assert_param(IS_NVIC_PREEMPTION_PRIORITY(PreemptPriority));

  prioritygroup = NVIC_GetPriorityGrouping();

  NVIC_SetPriority(IRQn, NVIC_EncodePriority(prioritygroup, PreemptPriority, SubPriority));
}
 8003ef2:	bc30      	pop	{r4, r5}
 8003ef4:	4770      	bx	lr
 8003ef6:	2200      	movs	r2, #0
  SubPriorityBits     = ((PriorityGroupTmp + (uint32_t)(__NVIC_PRIO_BITS)) < (uint32_t)7UL) ? (uint32_t)0UL : (uint32_t)((PriorityGroupTmp - 7UL) + (uint32_t)(__NVIC_PRIO_BITS));
 8003ef8:	4613      	mov	r3, r2
 8003efa:	e7e8      	b.n	8003ece <HAL_NVIC_SetPriority+0x26>
    SCB->SHPR[(((uint32_t)IRQn) & 0xFUL)-4UL] = (uint8_t)((priority << (8U - __NVIC_PRIO_BITS)) & (uint32_t)0xFFUL);
 8003efc:	f000 000f 	and.w	r0, r0, #15
 8003f00:	0109      	lsls	r1, r1, #4
 8003f02:	4b05      	ldr	r3, [pc, #20]	; (8003f18 <HAL_NVIC_SetPriority+0x70>)
 8003f04:	b2c9      	uxtb	r1, r1
 8003f06:	4403      	add	r3, r0
 8003f08:	7619      	strb	r1, [r3, #24]
 8003f0a:	bc30      	pop	{r4, r5}
 8003f0c:	4770      	bx	lr
 8003f0e:	bf00      	nop
 8003f10:	e000ed00 	.word	0xe000ed00
 8003f14:	e000e100 	.word	0xe000e100
 8003f18:	e000ecfc 	.word	0xe000ecfc

08003f1c <HAL_NVIC_EnableIRQ>:
  if ((int32_t)(IRQn) >= 0)
 8003f1c:	2800      	cmp	r0, #0
 8003f1e:	db07      	blt.n	8003f30 <HAL_NVIC_EnableIRQ+0x14>
    NVIC->ISER[(((uint32_t)IRQn) >> 5UL)] = (uint32_t)(1UL << (((uint32_t)IRQn) & 0x1FUL));
 8003f20:	2301      	movs	r3, #1
 8003f22:	f000 011f 	and.w	r1, r0, #31
 8003f26:	4a03      	ldr	r2, [pc, #12]	; (8003f34 <HAL_NVIC_EnableIRQ+0x18>)
 8003f28:	0940      	lsrs	r0, r0, #5
 8003f2a:	408b      	lsls	r3, r1
 8003f2c:	f842 3020 	str.w	r3, [r2, r0, lsl #2]
  /* Check the parameters */
  assert_param(IS_NVIC_DEVICE_IRQ(IRQn));

  /* Enable interrupt */
  NVIC_EnableIRQ(IRQn);
}
 8003f30:	4770      	bx	lr
 8003f32:	bf00      	nop
 8003f34:	e000e100 	.word	0xe000e100

08003f38 <HAL_SYSTICK_Config>:
           function <b>SysTick_Config</b> is not included. In this case, the file <b><i>device</i>.h</b>
           must contain a vendor-specific implementation of this function.
 */
__STATIC_INLINE uint32_t SysTick_Config(uint32_t ticks)
{
  if ((ticks - 1UL) > SysTick_LOAD_RELOAD_Msk)
 8003f38:	3801      	subs	r0, #1
 8003f3a:	f1b0 7f80 	cmp.w	r0, #16777216	; 0x1000000
 8003f3e:	d20d      	bcs.n	8003f5c <HAL_SYSTICK_Config+0x24>
  {
    return (1UL);                                                   /* Reload value impossible */
  }

  SysTick->LOAD  = (uint32_t)(ticks - 1UL);                         /* set reload register */
 8003f40:	4b07      	ldr	r3, [pc, #28]	; (8003f60 <HAL_SYSTICK_Config+0x28>)
  NVIC_SetPriority (SysTick_IRQn, (1UL << __NVIC_PRIO_BITS) - 1UL); /* set Priority for Systick Interrupt */
  SysTick->VAL   = 0UL;                                             /* Load the SysTick Counter Value */
 8003f42:	2200      	movs	r2, #0
  SysTick->CTRL  = SysTick_CTRL_CLKSOURCE_Msk |
 8003f44:	2107      	movs	r1, #7
  * @param  TicksNumb Specifies the ticks Number of ticks between two interrupts.
  * @retval status   - 0  Function succeeded.
  *                  - 1  Function failed.
  */
uint32_t HAL_SYSTICK_Config(uint32_t TicksNumb)
{
 8003f46:	b430      	push	{r4, r5}
    SCB->SHPR[(((uint32_t)IRQn) & 0xFUL)-4UL] = (uint8_t)((priority << (8U - __NVIC_PRIO_BITS)) & (uint32_t)0xFFUL);
 8003f48:	25f0      	movs	r5, #240	; 0xf0
 8003f4a:	4c06      	ldr	r4, [pc, #24]	; (8003f64 <HAL_SYSTICK_Config+0x2c>)
  SysTick->LOAD  = (uint32_t)(ticks - 1UL);                         /* set reload register */
 8003f4c:	6058      	str	r0, [r3, #4]
                   SysTick_CTRL_TICKINT_Msk   |
                   SysTick_CTRL_ENABLE_Msk;                         /* Enable SysTick IRQ and SysTick Timer */
  return (0UL);                                                     /* Function successful */
 8003f4e:	4610      	mov	r0, r2
    SCB->SHPR[(((uint32_t)IRQn) & 0xFUL)-4UL] = (uint8_t)((priority << (8U - __NVIC_PRIO_BITS)) & (uint32_t)0xFFUL);
 8003f50:	f884 5023 	strb.w	r5, [r4, #35]	; 0x23
  SysTick->VAL   = 0UL;                                             /* Load the SysTick Counter Value */
 8003f54:	609a      	str	r2, [r3, #8]
  SysTick->CTRL  = SysTick_CTRL_CLKSOURCE_Msk |
 8003f56:	6019      	str	r1, [r3, #0]
   return SysTick_Config(TicksNumb);
}
 8003f58:	bc30      	pop	{r4, r5}
 8003f5a:	4770      	bx	lr
    return (1UL);                                                   /* Reload value impossible */
 8003f5c:	2001      	movs	r0, #1
 8003f5e:	4770      	bx	lr
 8003f60:	e000e010 	.word	0xe000e010
 8003f64:	e000ed00 	.word	0xe000ed00

08003f68 <DMA2D_SetConfig>:
  * @param  Height     The height of data to be transferred from source to destination.
  * @retval HAL status
  */
static void DMA2D_SetConfig(DMA2D_HandleTypeDef *hdma2d, uint32_t pdata, uint32_t DstAddress, uint32_t Width,
                            uint32_t Height)
{
 8003f68:	b470      	push	{r4, r5, r6}
 8003f6a:	9c03      	ldr	r4, [sp, #12]

  /* Configure DMA2D destination address */
  WRITE_REG(hdma2d->Instance->OMAR, DstAddress);

  /* Register to memory DMA2D mode selected */
  if (hdma2d->Init.Mode == DMA2D_R2M)
 8003f6c:	e9d0 5600 	ldrd	r5, r6, [r0]
  MODIFY_REG(hdma2d->Instance->NLR, (DMA2D_NLR_NL | DMA2D_NLR_PL), (Height | (Width << DMA2D_NLR_PL_Pos)));
 8003f70:	ea44 4303 	orr.w	r3, r4, r3, lsl #16
 8003f74:	6c6c      	ldr	r4, [r5, #68]	; 0x44
  if (hdma2d->Init.Mode == DMA2D_R2M)
 8003f76:	f5b6 3f40 	cmp.w	r6, #196608	; 0x30000
  MODIFY_REG(hdma2d->Instance->NLR, (DMA2D_NLR_NL | DMA2D_NLR_PL), (Height | (Width << DMA2D_NLR_PL_Pos)));
 8003f7a:	f004 4440 	and.w	r4, r4, #3221225472	; 0xc0000000
 8003f7e:	ea43 0304 	orr.w	r3, r3, r4
 8003f82:	646b      	str	r3, [r5, #68]	; 0x44
  WRITE_REG(hdma2d->Instance->OMAR, DstAddress);
 8003f84:	63ea      	str	r2, [r5, #60]	; 0x3c
  if (hdma2d->Init.Mode == DMA2D_R2M)
 8003f86:	d008      	beq.n	8003f9a <DMA2D_SetConfig+0x32>
      tmp  = ((tmp3 << 4U) | (tmp2 << 8U) | (tmp1 << 12U) | tmp4);
    }
    /* Write to DMA2D OCOLR register */
    WRITE_REG(hdma2d->Instance->OCOLR, tmp);
  }
  else if (hdma2d->Init.Mode == DMA2D_M2M_BLEND_FG) /*M2M_blending with fixed color FG DMA2D Mode selected*/
 8003f88:	f5b6 2f80 	cmp.w	r6, #262144	; 0x40000
 8003f8c:	d002      	beq.n	8003f94 <DMA2D_SetConfig+0x2c>
    WRITE_REG(hdma2d->Instance->BGMAR, pdata);
  }
  else /* M2M, M2M_PFC,M2M_Blending or M2M_blending with fixed color BG DMA2D Mode */
  {
    /* Configure DMA2D source address */
    WRITE_REG(hdma2d->Instance->FGMAR, pdata);
 8003f8e:	60e9      	str	r1, [r5, #12]
  }
}
 8003f90:	bc70      	pop	{r4, r5, r6}
 8003f92:	4770      	bx	lr
    WRITE_REG(hdma2d->Instance->BGMAR, pdata);
 8003f94:	6169      	str	r1, [r5, #20]
}
 8003f96:	bc70      	pop	{r4, r5, r6}
 8003f98:	4770      	bx	lr
    if (hdma2d->Init.ColorMode == DMA2D_OUTPUT_ARGB8888)
 8003f9a:	6883      	ldr	r3, [r0, #8]
 8003f9c:	b1b3      	cbz	r3, 8003fcc <DMA2D_SetConfig+0x64>
    else if (hdma2d->Init.ColorMode == DMA2D_OUTPUT_RGB888)
 8003f9e:	2b01      	cmp	r3, #1
 8003fa0:	d017      	beq.n	8003fd2 <DMA2D_SetConfig+0x6a>
    else if (hdma2d->Init.ColorMode == DMA2D_OUTPUT_RGB565)
 8003fa2:	2b02      	cmp	r3, #2
    tmp2 = pdata & DMA2D_OCOLR_RED_1;
 8003fa4:	f401 027f 	and.w	r2, r1, #16711680	; 0xff0000
    tmp3 = pdata & DMA2D_OCOLR_GREEN_1;
 8003fa8:	f401 447f 	and.w	r4, r1, #65280	; 0xff00
    tmp4 = pdata & DMA2D_OCOLR_BLUE_1;
 8003fac:	b2c8      	uxtb	r0, r1
    else if (hdma2d->Init.ColorMode == DMA2D_OUTPUT_RGB565)
 8003fae:	d01e      	beq.n	8003fee <DMA2D_SetConfig+0x86>
    else if (hdma2d->Init.ColorMode == DMA2D_OUTPUT_ARGB1555)
 8003fb0:	2b03      	cmp	r3, #3
    tmp1 = pdata & DMA2D_OCOLR_ALPHA_1;
 8003fb2:	f001 417f 	and.w	r1, r1, #4278190080	; 0xff000000
    else if (hdma2d->Init.ColorMode == DMA2D_OUTPUT_ARGB1555)
 8003fb6:	d00f      	beq.n	8003fd8 <DMA2D_SetConfig+0x70>
      tmp2 = (tmp2 >> 20U);
 8003fb8:	0d13      	lsrs	r3, r2, #20
      tmp3 = (tmp3 >> 12U);
 8003fba:	0b24      	lsrs	r4, r4, #12
      tmp  = ((tmp3 << 4U) | (tmp2 << 8U) | (tmp1 << 12U) | tmp4);
 8003fbc:	021b      	lsls	r3, r3, #8
      tmp1 = (tmp1 >> 28U);
 8003fbe:	0f09      	lsrs	r1, r1, #28
      tmp  = ((tmp3 << 4U) | (tmp2 << 8U) | (tmp1 << 12U) | tmp4);
 8003fc0:	ea43 1304 	orr.w	r3, r3, r4, lsl #4
 8003fc4:	ea43 1310 	orr.w	r3, r3, r0, lsr #4
 8003fc8:	ea43 3101 	orr.w	r1, r3, r1, lsl #12
    WRITE_REG(hdma2d->Instance->OCOLR, tmp);
 8003fcc:	63a9      	str	r1, [r5, #56]	; 0x38
}
 8003fce:	bc70      	pop	{r4, r5, r6}
 8003fd0:	4770      	bx	lr
      tmp = (tmp3 | tmp2 | tmp4);
 8003fd2:	f021 417f 	bic.w	r1, r1, #4278190080	; 0xff000000
 8003fd6:	e7f9      	b.n	8003fcc <DMA2D_SetConfig+0x64>
      tmp2 = (tmp2 >> 19U);
 8003fd8:	0cd2      	lsrs	r2, r2, #19
      tmp3 = (tmp3 >> 11U);
 8003fda:	0ae4      	lsrs	r4, r4, #11
      tmp  = ((tmp3 << 5U) | (tmp2 << 10U) | (tmp1 << 15U) | tmp4);
 8003fdc:	0293      	lsls	r3, r2, #10
      tmp1 = (tmp1 >> 31U);
 8003fde:	0fc9      	lsrs	r1, r1, #31
      tmp  = ((tmp3 << 5U) | (tmp2 << 10U) | (tmp1 << 15U) | tmp4);
 8003fe0:	ea43 1344 	orr.w	r3, r3, r4, lsl #5
 8003fe4:	ea43 03d0 	orr.w	r3, r3, r0, lsr #3
 8003fe8:	ea43 31c1 	orr.w	r1, r3, r1, lsl #15
 8003fec:	e7ee      	b.n	8003fcc <DMA2D_SetConfig+0x64>
      tmp2 = (tmp2 >> 19U);
 8003fee:	0cd1      	lsrs	r1, r2, #19
      tmp3 = (tmp3 >> 10U);
 8003ff0:	0aa4      	lsrs	r4, r4, #10
      tmp  = ((tmp3 << 5U) | (tmp2 << 11U) | tmp4);
 8003ff2:	02c9      	lsls	r1, r1, #11
 8003ff4:	ea41 1144 	orr.w	r1, r1, r4, lsl #5
 8003ff8:	ea41 01d0 	orr.w	r1, r1, r0, lsr #3
 8003ffc:	e7e6      	b.n	8003fcc <DMA2D_SetConfig+0x64>
 8003ffe:	bf00      	nop

08004000 <HAL_DMA2D_MspInit>:
}
 8004000:	4770      	bx	lr
 8004002:	bf00      	nop

08004004 <HAL_DMA2D_Init>:
  if (hdma2d == NULL)
 8004004:	2800      	cmp	r0, #0
 8004006:	d036      	beq.n	8004076 <HAL_DMA2D_Init+0x72>
{
 8004008:	b570      	push	{r4, r5, r6, lr}
  if (hdma2d->State == HAL_DMA2D_STATE_RESET)
 800400a:	f890 3061 	ldrb.w	r3, [r0, #97]	; 0x61
 800400e:	4604      	mov	r4, r0
 8004010:	f003 02ff 	and.w	r2, r3, #255	; 0xff
 8004014:	b353      	cbz	r3, 800406c <HAL_DMA2D_Init+0x68>
  MODIFY_REG(hdma2d->Instance->CR, DMA2D_CR_MODE | DMA2D_CR_LOM, hdma2d->Init.Mode | hdma2d->Init.LineOffsetMode);
 8004016:	6823      	ldr	r3, [r4, #0]
  hdma2d->State = HAL_DMA2D_STATE_BUSY;
 8004018:	2202      	movs	r2, #2
  MODIFY_REG(hdma2d->Instance->CR, DMA2D_CR_MODE | DMA2D_CR_LOM, hdma2d->Init.Mode | hdma2d->Init.LineOffsetMode);
 800401a:	69e0      	ldr	r0, [r4, #28]
  hdma2d->ErrorCode = HAL_DMA2D_ERROR_NONE;
 800401c:	2500      	movs	r5, #0
  hdma2d->State = HAL_DMA2D_STATE_BUSY;
 800401e:	f884 2061 	strb.w	r2, [r4, #97]	; 0x61
  MODIFY_REG(hdma2d->Instance->CR, DMA2D_CR_MODE | DMA2D_CR_LOM, hdma2d->Init.Mode | hdma2d->Init.LineOffsetMode);
 8004022:	4916      	ldr	r1, [pc, #88]	; (800407c <HAL_DMA2D_Init+0x78>)
 8004024:	681e      	ldr	r6, [r3, #0]
 8004026:	6862      	ldr	r2, [r4, #4]
 8004028:	4031      	ands	r1, r6
 800402a:	4302      	orrs	r2, r0
  MODIFY_REG(hdma2d->Instance->OPFCCR, DMA2D_OPFCCR_CM | DMA2D_OPFCCR_SB,
 800402c:	4814      	ldr	r0, [pc, #80]	; (8004080 <HAL_DMA2D_Init+0x7c>)
  MODIFY_REG(hdma2d->Instance->CR, DMA2D_CR_MODE | DMA2D_CR_LOM, hdma2d->Init.Mode | hdma2d->Init.LineOffsetMode);
 800402e:	4311      	orrs	r1, r2
  MODIFY_REG(hdma2d->Instance->OPFCCR, DMA2D_OPFCCR_CM | DMA2D_OPFCCR_SB,
 8004030:	68a2      	ldr	r2, [r4, #8]
  MODIFY_REG(hdma2d->Instance->CR, DMA2D_CR_MODE | DMA2D_CR_LOM, hdma2d->Init.Mode | hdma2d->Init.LineOffsetMode);
 8004032:	6019      	str	r1, [r3, #0]
  MODIFY_REG(hdma2d->Instance->OPFCCR, DMA2D_OPFCCR_CM | DMA2D_OPFCCR_SB,
 8004034:	69a1      	ldr	r1, [r4, #24]
 8004036:	6b5e      	ldr	r6, [r3, #52]	; 0x34
 8004038:	430a      	orrs	r2, r1
  MODIFY_REG(hdma2d->Instance->OOR, DMA2D_OOR_LO, hdma2d->Init.OutputOffset);
 800403a:	4912      	ldr	r1, [pc, #72]	; (8004084 <HAL_DMA2D_Init+0x80>)
  MODIFY_REG(hdma2d->Instance->OPFCCR, DMA2D_OPFCCR_CM | DMA2D_OPFCCR_SB,
 800403c:	4030      	ands	r0, r6
  hdma2d->State  = HAL_DMA2D_STATE_READY;
 800403e:	2601      	movs	r6, #1
  MODIFY_REG(hdma2d->Instance->OPFCCR, DMA2D_OPFCCR_CM | DMA2D_OPFCCR_SB,
 8004040:	4302      	orrs	r2, r0
  MODIFY_REG(hdma2d->Instance->OOR, DMA2D_OOR_LO, hdma2d->Init.OutputOffset);
 8004042:	68e0      	ldr	r0, [r4, #12]
  MODIFY_REG(hdma2d->Instance->OPFCCR, DMA2D_OPFCCR_CM | DMA2D_OPFCCR_SB,
 8004044:	635a      	str	r2, [r3, #52]	; 0x34
  MODIFY_REG(hdma2d->Instance->OOR, DMA2D_OOR_LO, hdma2d->Init.OutputOffset);
 8004046:	6c1a      	ldr	r2, [r3, #64]	; 0x40
 8004048:	4011      	ands	r1, r2
  MODIFY_REG(hdma2d->Instance->OPFCCR, (DMA2D_OPFCCR_AI | DMA2D_OPFCCR_RBS),
 800404a:	6962      	ldr	r2, [r4, #20]
  MODIFY_REG(hdma2d->Instance->OOR, DMA2D_OOR_LO, hdma2d->Init.OutputOffset);
 800404c:	4301      	orrs	r1, r0
  MODIFY_REG(hdma2d->Instance->OPFCCR, (DMA2D_OPFCCR_AI | DMA2D_OPFCCR_RBS),
 800404e:	0552      	lsls	r2, r2, #21
 8004050:	6920      	ldr	r0, [r4, #16]
  MODIFY_REG(hdma2d->Instance->OOR, DMA2D_OOR_LO, hdma2d->Init.OutputOffset);
 8004052:	6419      	str	r1, [r3, #64]	; 0x40
  MODIFY_REG(hdma2d->Instance->OPFCCR, (DMA2D_OPFCCR_AI | DMA2D_OPFCCR_RBS),
 8004054:	6b59      	ldr	r1, [r3, #52]	; 0x34
 8004056:	ea42 5200 	orr.w	r2, r2, r0, lsl #20
  return HAL_OK;
 800405a:	4628      	mov	r0, r5
  MODIFY_REG(hdma2d->Instance->OPFCCR, (DMA2D_OPFCCR_AI | DMA2D_OPFCCR_RBS),
 800405c:	f421 1140 	bic.w	r1, r1, #3145728	; 0x300000
 8004060:	430a      	orrs	r2, r1
 8004062:	635a      	str	r2, [r3, #52]	; 0x34
  hdma2d->ErrorCode = HAL_DMA2D_ERROR_NONE;
 8004064:	6665      	str	r5, [r4, #100]	; 0x64
  hdma2d->State  = HAL_DMA2D_STATE_READY;
 8004066:	f884 6061 	strb.w	r6, [r4, #97]	; 0x61
}
 800406a:	bd70      	pop	{r4, r5, r6, pc}
    hdma2d->Lock = HAL_UNLOCKED;
 800406c:	f880 2060 	strb.w	r2, [r0, #96]	; 0x60
    HAL_DMA2D_MspInit(hdma2d);
 8004070:	f7ff ffc6 	bl	8004000 <HAL_DMA2D_MspInit>
 8004074:	e7cf      	b.n	8004016 <HAL_DMA2D_Init+0x12>
    return HAL_ERROR;
 8004076:	2001      	movs	r0, #1
}
 8004078:	4770      	bx	lr
 800407a:	bf00      	nop
 800407c:	fff8ffbf 	.word	0xfff8ffbf
 8004080:	fffffef8 	.word	0xfffffef8
 8004084:	ffff0000 	.word	0xffff0000

08004088 <HAL_DMA2D_Start>:
{
 8004088:	b5f0      	push	{r4, r5, r6, r7, lr}
  __HAL_LOCK(hdma2d);
 800408a:	f890 5060 	ldrb.w	r5, [r0, #96]	; 0x60
{
 800408e:	b083      	sub	sp, #12
  __HAL_LOCK(hdma2d);
 8004090:	2d01      	cmp	r5, #1
 8004092:	d011      	beq.n	80040b8 <HAL_DMA2D_Start+0x30>
 8004094:	2601      	movs	r6, #1
  DMA2D_SetConfig(hdma2d, pdata, DstAddress, Width, Height);
 8004096:	9f08      	ldr	r7, [sp, #32]
  hdma2d->State = HAL_DMA2D_STATE_BUSY;
 8004098:	2502      	movs	r5, #2
 800409a:	4604      	mov	r4, r0
  DMA2D_SetConfig(hdma2d, pdata, DstAddress, Width, Height);
 800409c:	9700      	str	r7, [sp, #0]
  __HAL_LOCK(hdma2d);
 800409e:	f880 6060 	strb.w	r6, [r0, #96]	; 0x60
  hdma2d->State = HAL_DMA2D_STATE_BUSY;
 80040a2:	f880 5061 	strb.w	r5, [r0, #97]	; 0x61
  DMA2D_SetConfig(hdma2d, pdata, DstAddress, Width, Height);
 80040a6:	f7ff ff5f 	bl	8003f68 <DMA2D_SetConfig>
  __HAL_DMA2D_ENABLE(hdma2d);
 80040aa:	6822      	ldr	r2, [r4, #0]
  return HAL_OK;
 80040ac:	2000      	movs	r0, #0
  __HAL_DMA2D_ENABLE(hdma2d);
 80040ae:	6813      	ldr	r3, [r2, #0]
 80040b0:	4333      	orrs	r3, r6
 80040b2:	6013      	str	r3, [r2, #0]
}
 80040b4:	b003      	add	sp, #12
 80040b6:	bdf0      	pop	{r4, r5, r6, r7, pc}
  __HAL_LOCK(hdma2d);
 80040b8:	2002      	movs	r0, #2
}
 80040ba:	b003      	add	sp, #12
 80040bc:	bdf0      	pop	{r4, r5, r6, r7, pc}
 80040be:	bf00      	nop

080040c0 <HAL_DMA2D_PollForTransfer>:
{
 80040c0:	b570      	push	{r4, r5, r6, lr}
  __IO uint32_t isrflags = 0x0U;
 80040c2:	2300      	movs	r3, #0
{
 80040c4:	b082      	sub	sp, #8
 80040c6:	4605      	mov	r5, r0
 80040c8:	460c      	mov	r4, r1
  __IO uint32_t isrflags = 0x0U;
 80040ca:	9301      	str	r3, [sp, #4]
  if ((hdma2d->Instance->CR & DMA2D_CR_START) != 0U)
 80040cc:	6803      	ldr	r3, [r0, #0]
 80040ce:	681a      	ldr	r2, [r3, #0]
 80040d0:	07d2      	lsls	r2, r2, #31
 80040d2:	d40f      	bmi.n	80040f4 <HAL_DMA2D_PollForTransfer+0x34>
  layer_start = hdma2d->Instance->FGPFCCR & DMA2D_FGPFCCR_START;
 80040d4:	69da      	ldr	r2, [r3, #28]
  layer_start |= hdma2d->Instance->BGPFCCR & DMA2D_BGPFCCR_START;
 80040d6:	6a59      	ldr	r1, [r3, #36]	; 0x24
 80040d8:	430a      	orrs	r2, r1
  if (layer_start != 0U)
 80040da:	0692      	lsls	r2, r2, #26
 80040dc:	d433      	bmi.n	8004146 <HAL_DMA2D_PollForTransfer+0x86>
  __HAL_UNLOCK(hdma2d);
 80040de:	2200      	movs	r2, #0
  __HAL_DMA2D_CLEAR_FLAG(hdma2d, DMA2D_FLAG_TC | DMA2D_FLAG_CTC);
 80040e0:	2412      	movs	r4, #18
  hdma2d->State = HAL_DMA2D_STATE_READY;
 80040e2:	2101      	movs	r1, #1
  return HAL_OK;
 80040e4:	4610      	mov	r0, r2
  __HAL_DMA2D_CLEAR_FLAG(hdma2d, DMA2D_FLAG_TC | DMA2D_FLAG_CTC);
 80040e6:	609c      	str	r4, [r3, #8]
  __HAL_UNLOCK(hdma2d);
 80040e8:	f885 2060 	strb.w	r2, [r5, #96]	; 0x60
  hdma2d->State = HAL_DMA2D_STATE_READY;
 80040ec:	f885 1061 	strb.w	r1, [r5, #97]	; 0x61
}
 80040f0:	b002      	add	sp, #8
 80040f2:	bd70      	pop	{r4, r5, r6, pc}
    tickstart = HAL_GetTick();
 80040f4:	f7ff fe9e 	bl	8003e34 <HAL_GetTick>
 80040f8:	4606      	mov	r6, r0
    while (__HAL_DMA2D_GET_FLAG(hdma2d, DMA2D_FLAG_TC) == 0U)
 80040fa:	682b      	ldr	r3, [r5, #0]
 80040fc:	e001      	b.n	8004102 <HAL_DMA2D_PollForTransfer+0x42>
      if (Timeout != HAL_MAX_DELAY)
 80040fe:	1c60      	adds	r0, r4, #1
 8004100:	d148      	bne.n	8004194 <HAL_DMA2D_PollForTransfer+0xd4>
    while (__HAL_DMA2D_GET_FLAG(hdma2d, DMA2D_FLAG_TC) == 0U)
 8004102:	685a      	ldr	r2, [r3, #4]
 8004104:	0791      	lsls	r1, r2, #30
 8004106:	d4e5      	bmi.n	80040d4 <HAL_DMA2D_PollForTransfer+0x14>
      isrflags = READ_REG(hdma2d->Instance->ISR);
 8004108:	685a      	ldr	r2, [r3, #4]
 800410a:	9201      	str	r2, [sp, #4]
      if ((isrflags & (DMA2D_FLAG_CE | DMA2D_FLAG_TE)) != 0U)
 800410c:	9a01      	ldr	r2, [sp, #4]
 800410e:	f012 0f21 	tst.w	r2, #33	; 0x21
 8004112:	d0f4      	beq.n	80040fe <HAL_DMA2D_PollForTransfer+0x3e>
        if ((isrflags & DMA2D_FLAG_CE) != 0U)
 8004114:	9a01      	ldr	r2, [sp, #4]
 8004116:	0696      	lsls	r6, r2, #26
 8004118:	d503      	bpl.n	8004122 <HAL_DMA2D_PollForTransfer+0x62>
          hdma2d->ErrorCode |= HAL_DMA2D_ERROR_CE;
 800411a:	6e6a      	ldr	r2, [r5, #100]	; 0x64
 800411c:	f042 0202 	orr.w	r2, r2, #2
 8004120:	666a      	str	r2, [r5, #100]	; 0x64
        if ((isrflags & DMA2D_FLAG_TE) != 0U)
 8004122:	9a01      	ldr	r2, [sp, #4]
 8004124:	07d4      	lsls	r4, r2, #31
 8004126:	d503      	bpl.n	8004130 <HAL_DMA2D_PollForTransfer+0x70>
          hdma2d->ErrorCode |= HAL_DMA2D_ERROR_TE;
 8004128:	6e6a      	ldr	r2, [r5, #100]	; 0x64
 800412a:	f042 0201 	orr.w	r2, r2, #1
 800412e:	666a      	str	r2, [r5, #100]	; 0x64
        __HAL_DMA2D_CLEAR_FLAG(hdma2d, DMA2D_FLAG_CE | DMA2D_FLAG_TE);
 8004130:	2421      	movs	r4, #33	; 0x21
        hdma2d->State = HAL_DMA2D_STATE_ERROR;
 8004132:	2104      	movs	r1, #4
        __HAL_UNLOCK(hdma2d);
 8004134:	2200      	movs	r2, #0
        return HAL_ERROR;
 8004136:	2001      	movs	r0, #1
        __HAL_DMA2D_CLEAR_FLAG(hdma2d, DMA2D_FLAG_CAE | DMA2D_FLAG_CE | DMA2D_FLAG_TE);
 8004138:	609c      	str	r4, [r3, #8]
        hdma2d->State = HAL_DMA2D_STATE_ERROR;
 800413a:	f885 1061 	strb.w	r1, [r5, #97]	; 0x61
        __HAL_UNLOCK(hdma2d);
 800413e:	f885 2060 	strb.w	r2, [r5, #96]	; 0x60
}
 8004142:	b002      	add	sp, #8
 8004144:	bd70      	pop	{r4, r5, r6, pc}
    tickstart = HAL_GetTick();
 8004146:	f7ff fe75 	bl	8003e34 <HAL_GetTick>
 800414a:	4606      	mov	r6, r0
    while (__HAL_DMA2D_GET_FLAG(hdma2d, DMA2D_FLAG_CTC) == 0U)
 800414c:	682b      	ldr	r3, [r5, #0]
 800414e:	e001      	b.n	8004154 <HAL_DMA2D_PollForTransfer+0x94>
      if (Timeout != HAL_MAX_DELAY)
 8004150:	1c61      	adds	r1, r4, #1
 8004152:	d132      	bne.n	80041ba <HAL_DMA2D_PollForTransfer+0xfa>
    while (__HAL_DMA2D_GET_FLAG(hdma2d, DMA2D_FLAG_CTC) == 0U)
 8004154:	685a      	ldr	r2, [r3, #4]
 8004156:	06d2      	lsls	r2, r2, #27
 8004158:	d4c1      	bmi.n	80040de <HAL_DMA2D_PollForTransfer+0x1e>
      isrflags = READ_REG(hdma2d->Instance->ISR);
 800415a:	685a      	ldr	r2, [r3, #4]
 800415c:	9201      	str	r2, [sp, #4]
      if ((isrflags & (DMA2D_FLAG_CAE | DMA2D_FLAG_CE | DMA2D_FLAG_TE)) != 0U)
 800415e:	9a01      	ldr	r2, [sp, #4]
 8004160:	f012 0f29 	tst.w	r2, #41	; 0x29
 8004164:	d0f4      	beq.n	8004150 <HAL_DMA2D_PollForTransfer+0x90>
        if ((isrflags & DMA2D_FLAG_CAE) != 0U)
 8004166:	9a01      	ldr	r2, [sp, #4]
 8004168:	0716      	lsls	r6, r2, #28
 800416a:	d503      	bpl.n	8004174 <HAL_DMA2D_PollForTransfer+0xb4>
          hdma2d->ErrorCode |= HAL_DMA2D_ERROR_CAE;
 800416c:	6e6a      	ldr	r2, [r5, #100]	; 0x64
 800416e:	f042 0204 	orr.w	r2, r2, #4
 8004172:	666a      	str	r2, [r5, #100]	; 0x64
        if ((isrflags & DMA2D_FLAG_CE) != 0U)
 8004174:	9a01      	ldr	r2, [sp, #4]
 8004176:	0694      	lsls	r4, r2, #26
 8004178:	d503      	bpl.n	8004182 <HAL_DMA2D_PollForTransfer+0xc2>
          hdma2d->ErrorCode |= HAL_DMA2D_ERROR_CE;
 800417a:	6e6a      	ldr	r2, [r5, #100]	; 0x64
 800417c:	f042 0202 	orr.w	r2, r2, #2
 8004180:	666a      	str	r2, [r5, #100]	; 0x64
        if ((isrflags & DMA2D_FLAG_TE) != 0U)
 8004182:	9a01      	ldr	r2, [sp, #4]
 8004184:	07d0      	lsls	r0, r2, #31
 8004186:	d503      	bpl.n	8004190 <HAL_DMA2D_PollForTransfer+0xd0>
          hdma2d->ErrorCode |= HAL_DMA2D_ERROR_TE;
 8004188:	6e6a      	ldr	r2, [r5, #100]	; 0x64
 800418a:	f042 0201 	orr.w	r2, r2, #1
 800418e:	666a      	str	r2, [r5, #100]	; 0x64
        __HAL_DMA2D_CLEAR_FLAG(hdma2d, DMA2D_FLAG_CAE | DMA2D_FLAG_CE | DMA2D_FLAG_TE);
 8004190:	2429      	movs	r4, #41	; 0x29
 8004192:	e7ce      	b.n	8004132 <HAL_DMA2D_PollForTransfer+0x72>
        if (((HAL_GetTick() - tickstart) > Timeout) || (Timeout == 0U))
 8004194:	f7ff fe4e 	bl	8003e34 <HAL_GetTick>
 8004198:	1b80      	subs	r0, r0, r6
 800419a:	42a0      	cmp	r0, r4
 800419c:	d801      	bhi.n	80041a2 <HAL_DMA2D_PollForTransfer+0xe2>
 800419e:	2c00      	cmp	r4, #0
 80041a0:	d1ab      	bne.n	80040fa <HAL_DMA2D_PollForTransfer+0x3a>
          hdma2d->ErrorCode |= HAL_DMA2D_ERROR_TIMEOUT;
 80041a2:	6e6b      	ldr	r3, [r5, #100]	; 0x64
          hdma2d->State = HAL_DMA2D_STATE_TIMEOUT;
 80041a4:	2203      	movs	r2, #3
          __HAL_UNLOCK(hdma2d);
 80041a6:	2100      	movs	r1, #0
          hdma2d->ErrorCode |= HAL_DMA2D_ERROR_TIMEOUT;
 80041a8:	f043 0320 	orr.w	r3, r3, #32
          return HAL_TIMEOUT;
 80041ac:	4610      	mov	r0, r2
          __HAL_UNLOCK(hdma2d);
 80041ae:	f885 1060 	strb.w	r1, [r5, #96]	; 0x60
          hdma2d->ErrorCode |= HAL_DMA2D_ERROR_TIMEOUT;
 80041b2:	666b      	str	r3, [r5, #100]	; 0x64
          hdma2d->State = HAL_DMA2D_STATE_TIMEOUT;
 80041b4:	f885 2061 	strb.w	r2, [r5, #97]	; 0x61
          return HAL_TIMEOUT;
 80041b8:	e79a      	b.n	80040f0 <HAL_DMA2D_PollForTransfer+0x30>
        if (((HAL_GetTick() - tickstart) > Timeout) || (Timeout == 0U))
 80041ba:	f7ff fe3b 	bl	8003e34 <HAL_GetTick>
 80041be:	1b80      	subs	r0, r0, r6
 80041c0:	42a0      	cmp	r0, r4
 80041c2:	d8ee      	bhi.n	80041a2 <HAL_DMA2D_PollForTransfer+0xe2>
 80041c4:	2c00      	cmp	r4, #0
 80041c6:	d1c1      	bne.n	800414c <HAL_DMA2D_PollForTransfer+0x8c>
 80041c8:	e7eb      	b.n	80041a2 <HAL_DMA2D_PollForTransfer+0xe2>
 80041ca:	bf00      	nop

080041cc <HAL_DMA2D_ConfigLayer>:
  __HAL_LOCK(hdma2d);
 80041cc:	f890 2060 	ldrb.w	r2, [r0, #96]	; 0x60
 80041d0:	2a01      	cmp	r2, #1
 80041d2:	d063      	beq.n	800429c <HAL_DMA2D_ConfigLayer+0xd0>
 80041d4:	4603      	mov	r3, r0
  regValue = pLayerCfg->InputColorMode | (pLayerCfg->AlphaMode << DMA2D_BGPFCCR_AM_Pos) | \
 80041d6:	ebc1 00c1 	rsb	r0, r1, r1, lsl #3
  hdma2d->State = HAL_DMA2D_STATE_BUSY;
 80041da:	2202      	movs	r2, #2
  regValue = pLayerCfg->InputColorMode | (pLayerCfg->AlphaMode << DMA2D_BGPFCCR_AM_Pos) | \
 80041dc:	eb03 0080 	add.w	r0, r3, r0, lsl #2
{
 80041e0:	b470      	push	{r4, r5, r6}
  __HAL_LOCK(hdma2d);
 80041e2:	2401      	movs	r4, #1
  hdma2d->State = HAL_DMA2D_STATE_BUSY;
 80041e4:	f883 2061 	strb.w	r2, [r3, #97]	; 0x61
  __HAL_LOCK(hdma2d);
 80041e8:	f883 4060 	strb.w	r4, [r3, #96]	; 0x60
             (pLayerCfg->AlphaInverted << DMA2D_BGPFCCR_AI_Pos) | (pLayerCfg->RedBlueSwap << DMA2D_BGPFCCR_RBS_Pos);
 80041ec:	6b82      	ldr	r2, [r0, #56]	; 0x38
  regValue = pLayerCfg->InputColorMode | (pLayerCfg->AlphaMode << DMA2D_BGPFCCR_AM_Pos) | \
 80041ee:	6b06      	ldr	r6, [r0, #48]	; 0x30
 80041f0:	6ac4      	ldr	r4, [r0, #44]	; 0x2c
             (pLayerCfg->AlphaInverted << DMA2D_BGPFCCR_AI_Pos) | (pLayerCfg->RedBlueSwap << DMA2D_BGPFCCR_RBS_Pos);
 80041f2:	0512      	lsls	r2, r2, #20
 80041f4:	6bc5      	ldr	r5, [r0, #60]	; 0x3c
  regValue = pLayerCfg->InputColorMode | (pLayerCfg->AlphaMode << DMA2D_BGPFCCR_AM_Pos) | \
 80041f6:	ea42 4206 	orr.w	r2, r2, r6, lsl #16
  if ((pLayerCfg->InputColorMode == DMA2D_INPUT_A4) || (pLayerCfg->InputColorMode == DMA2D_INPUT_A8))
 80041fa:	f1a4 0609 	sub.w	r6, r4, #9
  regValue = pLayerCfg->InputColorMode | (pLayerCfg->AlphaMode << DMA2D_BGPFCCR_AM_Pos) | \
 80041fe:	4322      	orrs	r2, r4
  if ((pLayerCfg->InputColorMode == DMA2D_INPUT_A4) || (pLayerCfg->InputColorMode == DMA2D_INPUT_A8))
 8004200:	2e01      	cmp	r6, #1
  regValue = pLayerCfg->InputColorMode | (pLayerCfg->AlphaMode << DMA2D_BGPFCCR_AM_Pos) | \
 8004202:	ea42 5245 	orr.w	r2, r2, r5, lsl #21
  if ((pLayerCfg->InputColorMode == DMA2D_INPUT_A4) || (pLayerCfg->InputColorMode == DMA2D_INPUT_A8))
 8004206:	d922      	bls.n	800424e <HAL_DMA2D_ConfigLayer+0x82>
    regValue |= (pLayerCfg->InputAlpha << DMA2D_BGPFCCR_ALPHA_Pos);
 8004208:	6b45      	ldr	r5, [r0, #52]	; 0x34
 800420a:	ea42 6205 	orr.w	r2, r2, r5, lsl #24
  if (LayerIdx == DMA2D_BACKGROUND_LAYER)
 800420e:	b981      	cbnz	r1, 8004232 <HAL_DMA2D_ConfigLayer+0x66>
    MODIFY_REG(hdma2d->Instance->BGPFCCR, regMask, regValue);
 8004210:	6818      	ldr	r0, [r3, #0]
 8004212:	4923      	ldr	r1, [pc, #140]	; (80042a0 <HAL_DMA2D_ConfigLayer+0xd4>)
 8004214:	6a45      	ldr	r5, [r0, #36]	; 0x24
    WRITE_REG(hdma2d->Instance->BGOR, pLayerCfg->InputOffset);
 8004216:	6a9c      	ldr	r4, [r3, #40]	; 0x28
    MODIFY_REG(hdma2d->Instance->BGPFCCR, regMask, regValue);
 8004218:	4029      	ands	r1, r5
 800421a:	430a      	orrs	r2, r1
 800421c:	6242      	str	r2, [r0, #36]	; 0x24
    WRITE_REG(hdma2d->Instance->BGOR, pLayerCfg->InputOffset);
 800421e:	6184      	str	r4, [r0, #24]
  __HAL_UNLOCK(hdma2d);
 8004220:	2200      	movs	r2, #0
  hdma2d->State = HAL_DMA2D_STATE_READY;
 8004222:	2101      	movs	r1, #1
  return HAL_OK;
 8004224:	4610      	mov	r0, r2
  hdma2d->State = HAL_DMA2D_STATE_READY;
 8004226:	f883 1061 	strb.w	r1, [r3, #97]	; 0x61
  __HAL_UNLOCK(hdma2d);
 800422a:	f883 2060 	strb.w	r2, [r3, #96]	; 0x60
}
 800422e:	bc70      	pop	{r4, r5, r6}
 8004230:	4770      	bx	lr
    if (pLayerCfg->InputColorMode == DMA2D_INPUT_YCBCR)
 8004232:	2c0b      	cmp	r4, #11
    MODIFY_REG(hdma2d->Instance->FGPFCCR, regMask, regValue);
 8004234:	681c      	ldr	r4, [r3, #0]
    if (pLayerCfg->InputColorMode == DMA2D_INPUT_YCBCR)
 8004236:	d129      	bne.n	800428c <HAL_DMA2D_ConfigLayer+0xc0>
    MODIFY_REG(hdma2d->Instance->FGPFCCR, regMask, regValue);
 8004238:	69e6      	ldr	r6, [r4, #28]
 800423a:	491a      	ldr	r1, [pc, #104]	; (80042a4 <HAL_DMA2D_ConfigLayer+0xd8>)
      regValue |= (pLayerCfg->ChromaSubSampling << DMA2D_FGPFCCR_CSS_Pos);
 800423c:	6c05      	ldr	r5, [r0, #64]	; 0x40
    MODIFY_REG(hdma2d->Instance->FGPFCCR, regMask, regValue);
 800423e:	4031      	ands	r1, r6
    WRITE_REG(hdma2d->Instance->FGOR, pLayerCfg->InputOffset);
 8004240:	6a80      	ldr	r0, [r0, #40]	; 0x28
    MODIFY_REG(hdma2d->Instance->FGPFCCR, regMask, regValue);
 8004242:	ea41 4185 	orr.w	r1, r1, r5, lsl #18
 8004246:	430a      	orrs	r2, r1
 8004248:	61e2      	str	r2, [r4, #28]
    WRITE_REG(hdma2d->Instance->FGOR, pLayerCfg->InputOffset);
 800424a:	6120      	str	r0, [r4, #16]
    if ((pLayerCfg->InputColorMode == DMA2D_INPUT_A4) || (pLayerCfg->InputColorMode == DMA2D_INPUT_A8))
 800424c:	e7e8      	b.n	8004220 <HAL_DMA2D_ConfigLayer+0x54>
    regValue |= (pLayerCfg->InputAlpha & DMA2D_BGPFCCR_ALPHA);
 800424e:	6b44      	ldr	r4, [r0, #52]	; 0x34
 8004250:	f004 447f 	and.w	r4, r4, #4278190080	; 0xff000000
 8004254:	4322      	orrs	r2, r4
  if (LayerIdx == DMA2D_BACKGROUND_LAYER)
 8004256:	b161      	cbz	r1, 8004272 <HAL_DMA2D_ConfigLayer+0xa6>
    MODIFY_REG(hdma2d->Instance->FGPFCCR, regMask, regValue);
 8004258:	6819      	ldr	r1, [r3, #0]
 800425a:	4c11      	ldr	r4, [pc, #68]	; (80042a0 <HAL_DMA2D_ConfigLayer+0xd4>)
 800425c:	69ce      	ldr	r6, [r1, #28]
      WRITE_REG(hdma2d->Instance->FGCOLR, pLayerCfg->InputAlpha & (DMA2D_FGCOLR_BLUE | DMA2D_FGCOLR_GREEN | \
 800425e:	6b45      	ldr	r5, [r0, #52]	; 0x34
    MODIFY_REG(hdma2d->Instance->FGPFCCR, regMask, regValue);
 8004260:	4034      	ands	r4, r6
    WRITE_REG(hdma2d->Instance->FGOR, pLayerCfg->InputOffset);
 8004262:	6a86      	ldr	r6, [r0, #40]	; 0x28
      WRITE_REG(hdma2d->Instance->FGCOLR, pLayerCfg->InputAlpha & (DMA2D_FGCOLR_BLUE | DMA2D_FGCOLR_GREEN | \
 8004264:	f025 457f 	bic.w	r5, r5, #4278190080	; 0xff000000
    MODIFY_REG(hdma2d->Instance->FGPFCCR, regMask, regValue);
 8004268:	4322      	orrs	r2, r4
 800426a:	61ca      	str	r2, [r1, #28]
    WRITE_REG(hdma2d->Instance->FGOR, pLayerCfg->InputOffset);
 800426c:	610e      	str	r6, [r1, #16]
      WRITE_REG(hdma2d->Instance->FGCOLR, pLayerCfg->InputAlpha & (DMA2D_FGCOLR_BLUE | DMA2D_FGCOLR_GREEN | \
 800426e:	620d      	str	r5, [r1, #32]
 8004270:	e7d6      	b.n	8004220 <HAL_DMA2D_ConfigLayer+0x54>
    MODIFY_REG(hdma2d->Instance->BGPFCCR, regMask, regValue);
 8004272:	6819      	ldr	r1, [r3, #0]
 8004274:	4c0a      	ldr	r4, [pc, #40]	; (80042a0 <HAL_DMA2D_ConfigLayer+0xd4>)
 8004276:	6a4d      	ldr	r5, [r1, #36]	; 0x24
      WRITE_REG(hdma2d->Instance->BGCOLR, pLayerCfg->InputAlpha & (DMA2D_BGCOLR_BLUE | DMA2D_BGCOLR_GREEN | \
 8004278:	6b58      	ldr	r0, [r3, #52]	; 0x34
    MODIFY_REG(hdma2d->Instance->BGPFCCR, regMask, regValue);
 800427a:	402c      	ands	r4, r5
    WRITE_REG(hdma2d->Instance->BGOR, pLayerCfg->InputOffset);
 800427c:	6a9d      	ldr	r5, [r3, #40]	; 0x28
      WRITE_REG(hdma2d->Instance->BGCOLR, pLayerCfg->InputAlpha & (DMA2D_BGCOLR_BLUE | DMA2D_BGCOLR_GREEN | \
 800427e:	f020 407f 	bic.w	r0, r0, #4278190080	; 0xff000000
    MODIFY_REG(hdma2d->Instance->BGPFCCR, regMask, regValue);
 8004282:	4322      	orrs	r2, r4
 8004284:	624a      	str	r2, [r1, #36]	; 0x24
    WRITE_REG(hdma2d->Instance->BGOR, pLayerCfg->InputOffset);
 8004286:	618d      	str	r5, [r1, #24]
      WRITE_REG(hdma2d->Instance->BGCOLR, pLayerCfg->InputAlpha & (DMA2D_BGCOLR_BLUE | DMA2D_BGCOLR_GREEN | \
 8004288:	6288      	str	r0, [r1, #40]	; 0x28
 800428a:	e7c9      	b.n	8004220 <HAL_DMA2D_ConfigLayer+0x54>
    MODIFY_REG(hdma2d->Instance->FGPFCCR, regMask, regValue);
 800428c:	69e5      	ldr	r5, [r4, #28]
 800428e:	4904      	ldr	r1, [pc, #16]	; (80042a0 <HAL_DMA2D_ConfigLayer+0xd4>)
    WRITE_REG(hdma2d->Instance->FGOR, pLayerCfg->InputOffset);
 8004290:	6a80      	ldr	r0, [r0, #40]	; 0x28
    MODIFY_REG(hdma2d->Instance->FGPFCCR, regMask, regValue);
 8004292:	4029      	ands	r1, r5
 8004294:	430a      	orrs	r2, r1
 8004296:	61e2      	str	r2, [r4, #28]
    WRITE_REG(hdma2d->Instance->FGOR, pLayerCfg->InputOffset);
 8004298:	6120      	str	r0, [r4, #16]
    if ((pLayerCfg->InputColorMode == DMA2D_INPUT_A4) || (pLayerCfg->InputColorMode == DMA2D_INPUT_A8))
 800429a:	e7c1      	b.n	8004220 <HAL_DMA2D_ConfigLayer+0x54>
  __HAL_LOCK(hdma2d);
 800429c:	2002      	movs	r0, #2
}
 800429e:	4770      	bx	lr
 80042a0:	00ccfff0 	.word	0x00ccfff0
 80042a4:	00c0fff0 	.word	0x00c0fff0

080042a8 <DSI_ShortWrite>:
static HAL_StatusTypeDef DSI_ShortWrite(DSI_HandleTypeDef *hdsi,
                                        uint32_t ChannelID,
                                        uint32_t Mode,
                                        uint32_t Param1,
                                        uint32_t Param2)
{
 80042a8:	e92d 43f8 	stmdb	sp!, {r3, r4, r5, r6, r7, r8, r9, lr}
 80042ac:	4605      	mov	r5, r0
 80042ae:	4688      	mov	r8, r1
 80042b0:	4617      	mov	r7, r2
 80042b2:	4699      	mov	r9, r3
  uint32_t tickstart;

  /* Get tick */
  tickstart = HAL_GetTick();
 80042b4:	f7ff fdbe 	bl	8003e34 <HAL_GetTick>
 80042b8:	4606      	mov	r6, r0

  /* Wait for Command FIFO Empty */
  while((hdsi->Instance->GPSR & DSI_GPSR_CMDFE) == 0U)
 80042ba:	e005      	b.n	80042c8 <DSI_ShortWrite+0x20>
  {
    /* Check for the Timeout */
    if((HAL_GetTick() - tickstart ) > DSI_TIMEOUT_VALUE)
 80042bc:	f7ff fdba 	bl	8003e34 <HAL_GetTick>
 80042c0:	1b84      	subs	r4, r0, r6
 80042c2:	f5b4 7f7a 	cmp.w	r4, #1000	; 0x3e8
 80042c6:	d80e      	bhi.n	80042e6 <DSI_ShortWrite+0x3e>
  while((hdsi->Instance->GPSR & DSI_GPSR_CMDFE) == 0U)
 80042c8:	682c      	ldr	r4, [r5, #0]
 80042ca:	6f63      	ldr	r3, [r4, #116]	; 0x74
 80042cc:	07db      	lsls	r3, r3, #31
 80042ce:	d5f5      	bpl.n	80042bc <DSI_ShortWrite+0x14>
    }
  }

  /* Configure the packet to send a short DCS command with 0 or 1 parameter */
  /* Update the DSI packet header with new information */
  hdsi->Instance->GHCR = (Mode | (ChannelID << 6U) | (Param1 << 8U) | (Param2 << 16U));
 80042d0:	ea47 2109 	orr.w	r1, r7, r9, lsl #8
 80042d4:	9b08      	ldr	r3, [sp, #32]

  return HAL_OK;
 80042d6:	2000      	movs	r0, #0
  hdsi->Instance->GHCR = (Mode | (ChannelID << 6U) | (Param1 << 8U) | (Param2 << 16U));
 80042d8:	ea41 4103 	orr.w	r1, r1, r3, lsl #16
 80042dc:	ea41 1188 	orr.w	r1, r1, r8, lsl #6
 80042e0:	66e1      	str	r1, [r4, #108]	; 0x6c
}
 80042e2:	e8bd 83f8 	ldmia.w	sp!, {r3, r4, r5, r6, r7, r8, r9, pc}
      return HAL_TIMEOUT;
 80042e6:	2003      	movs	r0, #3
}
 80042e8:	e8bd 83f8 	ldmia.w	sp!, {r3, r4, r5, r6, r7, r8, r9, pc}

080042ec <HAL_DSI_MspInit>:
  /* Prevent unused argument(s) compilation warning */
  UNUSED(hdsi);
  /* NOTE : This function Should not be modified, when the callback is needed,
            the HAL_DSI_MspInit could be implemented in the user file
   */
}
 80042ec:	4770      	bx	lr
 80042ee:	bf00      	nop

080042f0 <HAL_DSI_Init>:
  if (hdsi == NULL)
 80042f0:	2800      	cmp	r0, #0
 80042f2:	f000 80b3 	beq.w	800445c <HAL_DSI_Init+0x16c>
{
 80042f6:	b5f0      	push	{r4, r5, r6, r7, lr}
  if (hdsi->State == HAL_DSI_STATE_RESET)
 80042f8:	7c43      	ldrb	r3, [r0, #17]
{
 80042fa:	b083      	sub	sp, #12
 80042fc:	460d      	mov	r5, r1
 80042fe:	4604      	mov	r4, r0
  if (hdsi->State == HAL_DSI_STATE_RESET)
 8004300:	2b00      	cmp	r3, #0
 8004302:	f000 80a8 	beq.w	8004456 <HAL_DSI_Init+0x166>
  __HAL_DSI_REG_ENABLE(hdsi);
 8004306:	6823      	ldr	r3, [r4, #0]
  hdsi->State = HAL_DSI_STATE_BUSY;
 8004308:	2103      	movs	r1, #3
  __HAL_DSI_REG_ENABLE(hdsi);
 800430a:	2200      	movs	r2, #0
  hdsi->State = HAL_DSI_STATE_BUSY;
 800430c:	7461      	strb	r1, [r4, #17]
  __HAL_DSI_REG_ENABLE(hdsi);
 800430e:	9200      	str	r2, [sp, #0]
 8004310:	f8d3 2430 	ldr.w	r2, [r3, #1072]	; 0x430
 8004314:	f042 7280 	orr.w	r2, r2, #16777216	; 0x1000000
 8004318:	f8c3 2430 	str.w	r2, [r3, #1072]	; 0x430
 800431c:	f8d3 3430 	ldr.w	r3, [r3, #1072]	; 0x430
 8004320:	f003 7380 	and.w	r3, r3, #16777216	; 0x1000000
 8004324:	9300      	str	r3, [sp, #0]
 8004326:	9b00      	ldr	r3, [sp, #0]
  tickstart = HAL_GetTick();
 8004328:	f7ff fd84 	bl	8003e34 <HAL_GetTick>
 800432c:	4606      	mov	r6, r0
  while (__HAL_DSI_GET_FLAG(hdsi, DSI_FLAG_RRS) == 0U)
 800432e:	e006      	b.n	800433e <HAL_DSI_Init+0x4e>
    if ((HAL_GetTick() - tickstart) > DSI_TIMEOUT_VALUE)
 8004330:	f7ff fd80 	bl	8003e34 <HAL_GetTick>
 8004334:	1b83      	subs	r3, r0, r6
 8004336:	f5b3 7f7a 	cmp.w	r3, #1000	; 0x3e8
 800433a:	f200 8089 	bhi.w	8004450 <HAL_DSI_Init+0x160>
  while (__HAL_DSI_GET_FLAG(hdsi, DSI_FLAG_RRS) == 0U)
 800433e:	6823      	ldr	r3, [r4, #0]
 8004340:	f8d3 240c 	ldr.w	r2, [r3, #1036]	; 0x40c
 8004344:	04d1      	lsls	r1, r2, #19
 8004346:	d5f3      	bpl.n	8004330 <HAL_DSI_Init+0x40>
  hdsi->Instance->WRPCR |= (((PLLInit->PLLNDIV) << 2U) | ((PLLInit->PLLIDF) << 11U) | ((PLLInit->PLLODF) << 16U));
 8004348:	686a      	ldr	r2, [r5, #4]
  __HAL_DSI_PLL_ENABLE(hdsi);
 800434a:	2000      	movs	r0, #0
  hdsi->Instance->WRPCR &= ~(DSI_WRPCR_PLL_NDIV | DSI_WRPCR_PLL_IDF | DSI_WRPCR_PLL_ODF);
 800434c:	f8d3 7430 	ldr.w	r7, [r3, #1072]	; 0x430
  hdsi->Instance->WRPCR |= (((PLLInit->PLLNDIV) << 2U) | ((PLLInit->PLLIDF) << 11U) | ((PLLInit->PLLODF) << 16U));
 8004350:	682e      	ldr	r6, [r5, #0]
 8004352:	02d2      	lsls	r2, r2, #11
  hdsi->Instance->WRPCR &= ~(DSI_WRPCR_PLL_NDIV | DSI_WRPCR_PLL_IDF | DSI_WRPCR_PLL_ODF);
 8004354:	4942      	ldr	r1, [pc, #264]	; (8004460 <HAL_DSI_Init+0x170>)
  hdsi->Instance->WRPCR |= (((PLLInit->PLLNDIV) << 2U) | ((PLLInit->PLLIDF) << 11U) | ((PLLInit->PLLODF) << 16U));
 8004356:	ea42 0286 	orr.w	r2, r2, r6, lsl #2
 800435a:	68ae      	ldr	r6, [r5, #8]
  hdsi->Instance->WRPCR &= ~(DSI_WRPCR_PLL_NDIV | DSI_WRPCR_PLL_IDF | DSI_WRPCR_PLL_ODF);
 800435c:	4039      	ands	r1, r7
  hdsi->Instance->WRPCR |= (((PLLInit->PLLNDIV) << 2U) | ((PLLInit->PLLIDF) << 11U) | ((PLLInit->PLLODF) << 16U));
 800435e:	ea42 4206 	orr.w	r2, r2, r6, lsl #16
  hdsi->Instance->WRPCR &= ~(DSI_WRPCR_PLL_NDIV | DSI_WRPCR_PLL_IDF | DSI_WRPCR_PLL_ODF);
 8004362:	f8c3 1430 	str.w	r1, [r3, #1072]	; 0x430
  hdsi->Instance->WRPCR |= (((PLLInit->PLLNDIV) << 2U) | ((PLLInit->PLLIDF) << 11U) | ((PLLInit->PLLODF) << 16U));
 8004366:	f8d3 1430 	ldr.w	r1, [r3, #1072]	; 0x430
 800436a:	430a      	orrs	r2, r1
 800436c:	f8c3 2430 	str.w	r2, [r3, #1072]	; 0x430
  __HAL_DSI_PLL_ENABLE(hdsi);
 8004370:	9001      	str	r0, [sp, #4]
 8004372:	f8d3 2430 	ldr.w	r2, [r3, #1072]	; 0x430
 8004376:	f042 0201 	orr.w	r2, r2, #1
 800437a:	f8c3 2430 	str.w	r2, [r3, #1072]	; 0x430
 800437e:	f8d3 3430 	ldr.w	r3, [r3, #1072]	; 0x430
 8004382:	f003 0301 	and.w	r3, r3, #1
 8004386:	9301      	str	r3, [sp, #4]
 8004388:	9b01      	ldr	r3, [sp, #4]
  tickstart = HAL_GetTick();
 800438a:	f7ff fd53 	bl	8003e34 <HAL_GetTick>
 800438e:	4606      	mov	r6, r0
  while (__HAL_DSI_GET_FLAG(hdsi, DSI_FLAG_PLLLS) == 0U)
 8004390:	e005      	b.n	800439e <HAL_DSI_Init+0xae>
    if ((HAL_GetTick() - tickstart) > DSI_TIMEOUT_VALUE)
 8004392:	f7ff fd4f 	bl	8003e34 <HAL_GetTick>
 8004396:	1b80      	subs	r0, r0, r6
 8004398:	f5b0 7f7a 	cmp.w	r0, #1000	; 0x3e8
 800439c:	d858      	bhi.n	8004450 <HAL_DSI_Init+0x160>
  while (__HAL_DSI_GET_FLAG(hdsi, DSI_FLAG_PLLLS) == 0U)
 800439e:	6823      	ldr	r3, [r4, #0]
 80043a0:	f8d3 240c 	ldr.w	r2, [r3, #1036]	; 0x40c
 80043a4:	05d2      	lsls	r2, r2, #23
 80043a6:	d5f4      	bpl.n	8004392 <HAL_DSI_Init+0xa2>
  hdsi->Instance->PCTLR |= (DSI_PCTLR_CKE | DSI_PCTLR_DEN);
 80043a8:	f8d3 20a0 	ldr.w	r2, [r3, #160]	; 0xa0
  unitIntervalx4 = (4000000U * tempIDF * ((1UL << (0x3U & PLLInit->PLLODF)))) / ((HSE_VALUE / 1000U) * PLLInit->PLLNDIV);
 80043ac:	f246 1ca8 	movw	ip, #25000	; 0x61a8
  hdsi->Instance->CLCR |= (DSI_CLCR_DPCC | hdsi->Init.AutomaticClockLaneControl);
 80043b0:	6867      	ldr	r7, [r4, #4]
  hdsi->Instance->IER[0U] = 0U;
 80043b2:	2100      	movs	r1, #0
  hdsi->Instance->PCTLR |= (DSI_PCTLR_CKE | DSI_PCTLR_DEN);
 80043b4:	f042 0206 	orr.w	r2, r2, #6
  hdsi->Instance->PCONFR |= hdsi->Init.NumberOfLanes;
 80043b8:	68e6      	ldr	r6, [r4, #12]
  hdsi->Instance->CCR |= hdsi->Init.TXEscapeCkdiv;
 80043ba:	f8d4 e008 	ldr.w	lr, [r4, #8]
  hdsi->Instance->PCTLR |= (DSI_PCTLR_CKE | DSI_PCTLR_DEN);
 80043be:	f8c3 20a0 	str.w	r2, [r3, #160]	; 0xa0
  hdsi->Instance->CLCR &= ~(DSI_CLCR_DPCC | DSI_CLCR_ACR);
 80043c2:	f8d3 2094 	ldr.w	r2, [r3, #148]	; 0x94
 80043c6:	f022 0203 	bic.w	r2, r2, #3
 80043ca:	f8c3 2094 	str.w	r2, [r3, #148]	; 0x94
  hdsi->Instance->CLCR |= (DSI_CLCR_DPCC | hdsi->Init.AutomaticClockLaneControl);
 80043ce:	f8d3 0094 	ldr.w	r0, [r3, #148]	; 0x94
  unitIntervalx4 = (4000000U * tempIDF * ((1UL << (0x3U & PLLInit->PLLODF)))) / ((HSE_VALUE / 1000U) * PLLInit->PLLNDIV);
 80043d2:	686a      	ldr	r2, [r5, #4]
  hdsi->Instance->CLCR |= (DSI_CLCR_DPCC | hdsi->Init.AutomaticClockLaneControl);
 80043d4:	4338      	orrs	r0, r7
  unitIntervalx4 = (4000000U * tempIDF * ((1UL << (0x3U & PLLInit->PLLODF)))) / ((HSE_VALUE / 1000U) * PLLInit->PLLNDIV);
 80043d6:	2a01      	cmp	r2, #1
  hdsi->Instance->CLCR |= (DSI_CLCR_DPCC | hdsi->Init.AutomaticClockLaneControl);
 80043d8:	f040 0001 	orr.w	r0, r0, #1
  unitIntervalx4 = (4000000U * tempIDF * ((1UL << (0x3U & PLLInit->PLLODF)))) / ((HSE_VALUE / 1000U) * PLLInit->PLLNDIV);
 80043dc:	bf38      	it	cc
 80043de:	2201      	movcc	r2, #1
  hdsi->Instance->CLCR |= (DSI_CLCR_DPCC | hdsi->Init.AutomaticClockLaneControl);
 80043e0:	f8c3 0094 	str.w	r0, [r3, #148]	; 0x94
  hdsi->Instance->PCONFR &= ~DSI_PCONFR_NL;
 80043e4:	f8d3 00a4 	ldr.w	r0, [r3, #164]	; 0xa4
  unitIntervalx4 = (4000000U * tempIDF * ((1UL << (0x3U & PLLInit->PLLODF)))) / ((HSE_VALUE / 1000U) * PLLInit->PLLNDIV);
 80043e8:	4617      	mov	r7, r2
  hdsi->Instance->PCONFR &= ~DSI_PCONFR_NL;
 80043ea:	f020 0003 	bic.w	r0, r0, #3
 80043ee:	f8c3 00a4 	str.w	r0, [r3, #164]	; 0xa4
  hdsi->Instance->PCONFR |= hdsi->Init.NumberOfLanes;
 80043f2:	f8d3 20a4 	ldr.w	r2, [r3, #164]	; 0xa4
  unitIntervalx4 = (4000000U * tempIDF * ((1UL << (0x3U & PLLInit->PLLODF)))) / ((HSE_VALUE / 1000U) * PLLInit->PLLNDIV);
 80043f6:	68a8      	ldr	r0, [r5, #8]
  hdsi->Instance->PCONFR |= hdsi->Init.NumberOfLanes;
 80043f8:	4332      	orrs	r2, r6
  unitIntervalx4 = (4000000U * tempIDF * ((1UL << (0x3U & PLLInit->PLLODF)))) / ((HSE_VALUE / 1000U) * PLLInit->PLLNDIV);
 80043fa:	682d      	ldr	r5, [r5, #0]
 80043fc:	f000 0003 	and.w	r0, r0, #3
  hdsi->Instance->PCONFR |= hdsi->Init.NumberOfLanes;
 8004400:	f8c3 20a4 	str.w	r2, [r3, #164]	; 0xa4
  hdsi->Instance->CCR &= ~DSI_CCR_TXECKDIV;
 8004404:	689e      	ldr	r6, [r3, #8]
  unitIntervalx4 = (4000000U * tempIDF * ((1UL << (0x3U & PLLInit->PLLODF)))) / ((HSE_VALUE / 1000U) * PLLInit->PLLNDIV);
 8004406:	fb0c f505 	mul.w	r5, ip, r5
 800440a:	4a16      	ldr	r2, [pc, #88]	; (8004464 <HAL_DSI_Init+0x174>)
  hdsi->Instance->CCR &= ~DSI_CCR_TXECKDIV;
 800440c:	f026 06ff 	bic.w	r6, r6, #255	; 0xff
  unitIntervalx4 = (4000000U * tempIDF * ((1UL << (0x3U & PLLInit->PLLODF)))) / ((HSE_VALUE / 1000U) * PLLInit->PLLNDIV);
 8004410:	fb02 f207 	mul.w	r2, r2, r7
  hdsi->Instance->CCR &= ~DSI_CCR_TXECKDIV;
 8004414:	609e      	str	r6, [r3, #8]
  hdsi->Instance->CCR |= hdsi->Init.TXEscapeCkdiv;
 8004416:	689e      	ldr	r6, [r3, #8]
  unitIntervalx4 = (4000000U * tempIDF * ((1UL << (0x3U & PLLInit->PLLODF)))) / ((HSE_VALUE / 1000U) * PLLInit->PLLNDIV);
 8004418:	4082      	lsls	r2, r0
  hdsi->Instance->CCR |= hdsi->Init.TXEscapeCkdiv;
 800441a:	ea46 060e 	orr.w	r6, r6, lr
 800441e:	609e      	str	r6, [r3, #8]
  hdsi->State = HAL_DSI_STATE_READY;
 8004420:	2601      	movs	r6, #1
  hdsi->Instance->WPCR[0U] &= ~DSI_WPCR0_UIX4;
 8004422:	f8d3 0418 	ldr.w	r0, [r3, #1048]	; 0x418
  unitIntervalx4 = (4000000U * tempIDF * ((1UL << (0x3U & PLLInit->PLLODF)))) / ((HSE_VALUE / 1000U) * PLLInit->PLLNDIV);
 8004426:	fbb2 f2f5 	udiv	r2, r2, r5
  hdsi->Instance->WPCR[0U] &= ~DSI_WPCR0_UIX4;
 800442a:	f020 003f 	bic.w	r0, r0, #63	; 0x3f
 800442e:	f8c3 0418 	str.w	r0, [r3, #1048]	; 0x418
  return HAL_OK;
 8004432:	4608      	mov	r0, r1
  hdsi->Instance->WPCR[0U] |= unitIntervalx4;
 8004434:	f8d3 5418 	ldr.w	r5, [r3, #1048]	; 0x418
 8004438:	432a      	orrs	r2, r5
 800443a:	f8c3 2418 	str.w	r2, [r3, #1048]	; 0x418
  hdsi->Instance->IER[0U] = 0U;
 800443e:	f8c3 10c4 	str.w	r1, [r3, #196]	; 0xc4
  hdsi->Instance->IER[1U] = 0U;
 8004442:	f8c3 10c8 	str.w	r1, [r3, #200]	; 0xc8
  hdsi->ErrorCode = HAL_DSI_ERROR_NONE;
 8004446:	6161      	str	r1, [r4, #20]
  hdsi->ErrorMsk = 0U;
 8004448:	61a1      	str	r1, [r4, #24]
  hdsi->State = HAL_DSI_STATE_READY;
 800444a:	7466      	strb	r6, [r4, #17]
}
 800444c:	b003      	add	sp, #12
 800444e:	bdf0      	pop	{r4, r5, r6, r7, pc}
      return HAL_TIMEOUT;
 8004450:	2003      	movs	r0, #3
}
 8004452:	b003      	add	sp, #12
 8004454:	bdf0      	pop	{r4, r5, r6, r7, pc}
    HAL_DSI_MspInit(hdsi);
 8004456:	f7ff ff49 	bl	80042ec <HAL_DSI_MspInit>
 800445a:	e754      	b.n	8004306 <HAL_DSI_Init+0x16>
    return HAL_ERROR;
 800445c:	2001      	movs	r0, #1
}
 800445e:	4770      	bx	lr
 8004460:	fffc8603 	.word	0xfffc8603
 8004464:	003d0900 	.word	0x003d0900

08004468 <HAL_DSI_TearingEffectCallback>:
 8004468:	4770      	bx	lr
 800446a:	bf00      	nop

0800446c <HAL_DSI_EndOfRefreshCallback>:
 800446c:	4770      	bx	lr
 800446e:	bf00      	nop

08004470 <HAL_DSI_ErrorCallback>:
 8004470:	4770      	bx	lr
 8004472:	bf00      	nop

08004474 <HAL_DSI_IRQHandler>:
void HAL_DSI_IRQHandler(DSI_HandleTypeDef *hdsi)
{
  uint32_t ErrorStatus0, ErrorStatus1;

  /* Tearing Effect Interrupt management ***************************************/
  if (__HAL_DSI_GET_FLAG(hdsi, DSI_FLAG_TE) != 0U)
 8004474:	6803      	ldr	r3, [r0, #0]
 8004476:	f8d3 240c 	ldr.w	r2, [r3, #1036]	; 0x40c
 800447a:	07d1      	lsls	r1, r2, #31
{
 800447c:	b510      	push	{r4, lr}
 800447e:	4604      	mov	r4, r0
  if (__HAL_DSI_GET_FLAG(hdsi, DSI_FLAG_TE) != 0U)
 8004480:	d503      	bpl.n	800448a <HAL_DSI_IRQHandler+0x16>
  {
    if (__HAL_DSI_GET_IT_SOURCE(hdsi, DSI_IT_TE) != 0U)
 8004482:	f8d3 2408 	ldr.w	r2, [r3, #1032]	; 0x408
 8004486:	07d2      	lsls	r2, r2, #31
 8004488:	d462      	bmi.n	8004550 <HAL_DSI_IRQHandler+0xdc>
#endif /* USE_HAL_DSI_REGISTER_CALLBACKS */
    }
  }

  /* End of Refresh Interrupt management ***************************************/
  if (__HAL_DSI_GET_FLAG(hdsi, DSI_FLAG_ER) != 0U)
 800448a:	f8d3 240c 	ldr.w	r2, [r3, #1036]	; 0x40c
 800448e:	0791      	lsls	r1, r2, #30
 8004490:	d503      	bpl.n	800449a <HAL_DSI_IRQHandler+0x26>
  {
    if (__HAL_DSI_GET_IT_SOURCE(hdsi, DSI_IT_ER) != 0U)
 8004492:	f8d3 2408 	ldr.w	r2, [r3, #1032]	; 0x408
 8004496:	0792      	lsls	r2, r2, #30
 8004498:	d44f      	bmi.n	800453a <HAL_DSI_IRQHandler+0xc6>
#endif /* USE_HAL_DSI_REGISTER_CALLBACKS */
    }
  }

  /* Error Interrupts management ***********************************************/
  if (hdsi->ErrorMsk != 0U)
 800449a:	69a3      	ldr	r3, [r4, #24]
 800449c:	2b00      	cmp	r3, #0
 800449e:	d04b      	beq.n	8004538 <HAL_DSI_IRQHandler+0xc4>
  {
    ErrorStatus0 = hdsi->Instance->ISR[0U];
 80044a0:	6821      	ldr	r1, [r4, #0]
 80044a2:	f8d1 20bc 	ldr.w	r2, [r1, #188]	; 0xbc
    ErrorStatus0 &= hdsi->Instance->IER[0U];
 80044a6:	f8d1 30c4 	ldr.w	r3, [r1, #196]	; 0xc4
    ErrorStatus1 = hdsi->Instance->ISR[1U];
 80044aa:	f8d1 00c0 	ldr.w	r0, [r1, #192]	; 0xc0
    ErrorStatus0 &= hdsi->Instance->IER[0U];
 80044ae:	401a      	ands	r2, r3
    ErrorStatus1 &= hdsi->Instance->IER[1U];
 80044b0:	f8d1 30c8 	ldr.w	r3, [r1, #200]	; 0xc8

    if ((ErrorStatus0 & DSI_ERROR_ACK_MASK) != 0U)
 80044b4:	b291      	uxth	r1, r2
    ErrorStatus1 &= hdsi->Instance->IER[1U];
 80044b6:	4003      	ands	r3, r0
    if ((ErrorStatus0 & DSI_ERROR_ACK_MASK) != 0U)
 80044b8:	b119      	cbz	r1, 80044c2 <HAL_DSI_IRQHandler+0x4e>
    {
      hdsi->ErrorCode |= HAL_DSI_ERROR_ACK;
 80044ba:	6961      	ldr	r1, [r4, #20]
 80044bc:	f041 0101 	orr.w	r1, r1, #1
 80044c0:	6161      	str	r1, [r4, #20]
    }

    if ((ErrorStatus0 & DSI_ERROR_PHY_MASK) != 0U)
 80044c2:	f412 1ff8 	tst.w	r2, #2031616	; 0x1f0000
 80044c6:	d003      	beq.n	80044d0 <HAL_DSI_IRQHandler+0x5c>
    {
      hdsi->ErrorCode |= HAL_DSI_ERROR_PHY;
 80044c8:	6962      	ldr	r2, [r4, #20]
 80044ca:	f042 0202 	orr.w	r2, r2, #2
 80044ce:	6162      	str	r2, [r4, #20]
    }

    if ((ErrorStatus1 & DSI_ERROR_TX_MASK) != 0U)
 80044d0:	07d8      	lsls	r0, r3, #31
 80044d2:	d503      	bpl.n	80044dc <HAL_DSI_IRQHandler+0x68>
    {
      hdsi->ErrorCode |= HAL_DSI_ERROR_TX;
 80044d4:	6962      	ldr	r2, [r4, #20]
 80044d6:	f042 0204 	orr.w	r2, r2, #4
 80044da:	6162      	str	r2, [r4, #20]
    }

    if ((ErrorStatus1 & DSI_ERROR_RX_MASK) != 0U)
 80044dc:	0799      	lsls	r1, r3, #30
 80044de:	d503      	bpl.n	80044e8 <HAL_DSI_IRQHandler+0x74>
    {
      hdsi->ErrorCode |= HAL_DSI_ERROR_RX;
 80044e0:	6962      	ldr	r2, [r4, #20]
 80044e2:	f042 0208 	orr.w	r2, r2, #8
 80044e6:	6162      	str	r2, [r4, #20]
    }

    if ((ErrorStatus1 & DSI_ERROR_ECC_MASK) != 0U)
 80044e8:	f013 0f0c 	tst.w	r3, #12
 80044ec:	d003      	beq.n	80044f6 <HAL_DSI_IRQHandler+0x82>
    {
      hdsi->ErrorCode |= HAL_DSI_ERROR_ECC;
 80044ee:	6962      	ldr	r2, [r4, #20]
 80044f0:	f042 0210 	orr.w	r2, r2, #16
 80044f4:	6162      	str	r2, [r4, #20]
    }

    if ((ErrorStatus1 & DSI_ERROR_CRC_MASK) != 0U)
 80044f6:	06da      	lsls	r2, r3, #27
 80044f8:	d503      	bpl.n	8004502 <HAL_DSI_IRQHandler+0x8e>
    {
      hdsi->ErrorCode |= HAL_DSI_ERROR_CRC;
 80044fa:	6962      	ldr	r2, [r4, #20]
 80044fc:	f042 0220 	orr.w	r2, r2, #32
 8004500:	6162      	str	r2, [r4, #20]
    }

    if ((ErrorStatus1 & DSI_ERROR_PSE_MASK) != 0U)
 8004502:	0698      	lsls	r0, r3, #26
 8004504:	d503      	bpl.n	800450e <HAL_DSI_IRQHandler+0x9a>
    {
      hdsi->ErrorCode |= HAL_DSI_ERROR_PSE;
 8004506:	6962      	ldr	r2, [r4, #20]
 8004508:	f042 0240 	orr.w	r2, r2, #64	; 0x40
 800450c:	6162      	str	r2, [r4, #20]
    }

    if ((ErrorStatus1 & DSI_ERROR_EOT_MASK) != 0U)
 800450e:	0659      	lsls	r1, r3, #25
 8004510:	d503      	bpl.n	800451a <HAL_DSI_IRQHandler+0xa6>
    {
      hdsi->ErrorCode |= HAL_DSI_ERROR_EOT;
 8004512:	6962      	ldr	r2, [r4, #20]
 8004514:	f042 0280 	orr.w	r2, r2, #128	; 0x80
 8004518:	6162      	str	r2, [r4, #20]
    }

    if ((ErrorStatus1 & DSI_ERROR_OVF_MASK) != 0U)
 800451a:	061a      	lsls	r2, r3, #24
 800451c:	d503      	bpl.n	8004526 <HAL_DSI_IRQHandler+0xb2>
    {
      hdsi->ErrorCode |= HAL_DSI_ERROR_OVF;
 800451e:	6962      	ldr	r2, [r4, #20]
 8004520:	f442 7280 	orr.w	r2, r2, #256	; 0x100
 8004524:	6162      	str	r2, [r4, #20]
    }

    if ((ErrorStatus1 & DSI_ERROR_GEN_MASK) != 0U)
 8004526:	f413 5ff8 	tst.w	r3, #7936	; 0x1f00
 800452a:	d003      	beq.n	8004534 <HAL_DSI_IRQHandler+0xc0>
    {
      hdsi->ErrorCode |= HAL_DSI_ERROR_GEN;
 800452c:	6963      	ldr	r3, [r4, #20]
 800452e:	f443 7300 	orr.w	r3, r3, #512	; 0x200
 8004532:	6163      	str	r3, [r4, #20]
    }

    /* Check only selected errors */
    if (hdsi->ErrorCode != HAL_DSI_ERROR_NONE)
 8004534:	6963      	ldr	r3, [r4, #20]
 8004536:	b93b      	cbnz	r3, 8004548 <HAL_DSI_IRQHandler+0xd4>
      /*Call Legacy Error callback */
      HAL_DSI_ErrorCallback(hdsi);
#endif /* USE_HAL_DSI_REGISTER_CALLBACKS */
    }
  }
}
 8004538:	bd10      	pop	{r4, pc}
      __HAL_DSI_CLEAR_FLAG(hdsi, DSI_FLAG_ER);
 800453a:	2202      	movs	r2, #2
      HAL_DSI_EndOfRefreshCallback(hdsi);
 800453c:	4620      	mov	r0, r4
      __HAL_DSI_CLEAR_FLAG(hdsi, DSI_FLAG_ER);
 800453e:	f8c3 2410 	str.w	r2, [r3, #1040]	; 0x410
      HAL_DSI_EndOfRefreshCallback(hdsi);
 8004542:	f7ff ff93 	bl	800446c <HAL_DSI_EndOfRefreshCallback>
 8004546:	e7a8      	b.n	800449a <HAL_DSI_IRQHandler+0x26>
      HAL_DSI_ErrorCallback(hdsi);
 8004548:	4620      	mov	r0, r4
 800454a:	f7ff ff91 	bl	8004470 <HAL_DSI_ErrorCallback>
}
 800454e:	bd10      	pop	{r4, pc}
      __HAL_DSI_CLEAR_FLAG(hdsi, DSI_FLAG_TE);
 8004550:	2201      	movs	r2, #1
 8004552:	f8c3 2410 	str.w	r2, [r3, #1040]	; 0x410
      HAL_DSI_TearingEffectCallback(hdsi);
 8004556:	f7ff ff87 	bl	8004468 <HAL_DSI_TearingEffectCallback>
 800455a:	6823      	ldr	r3, [r4, #0]
 800455c:	e795      	b.n	800448a <HAL_DSI_IRQHandler+0x16>
 800455e:	bf00      	nop

08004560 <HAL_DSI_ConfigVideoMode>:
  * @retval HAL status
  */
HAL_StatusTypeDef HAL_DSI_ConfigVideoMode(DSI_HandleTypeDef *hdsi, DSI_VidCfgTypeDef *VidCfg)
{
  /* Process locked */
  __HAL_LOCK(hdsi);
 8004560:	7c03      	ldrb	r3, [r0, #16]
 8004562:	2b01      	cmp	r3, #1
 8004564:	f000 8113 	beq.w	800478e <HAL_DSI_ConfigVideoMode+0x22e>
  {
    assert_param(IS_DSI_LOOSELY_PACKED(VidCfg->LooselyPacked));
  }

  /* Select video mode by resetting CMDM and DSIM bits */
  hdsi->Instance->MCR &= ~DSI_MCR_CMDM;
 8004568:	6803      	ldr	r3, [r0, #0]
  __HAL_LOCK(hdsi);
 800456a:	2201      	movs	r2, #1
{
 800456c:	e92d 41f0 	stmdb	sp!, {r4, r5, r6, r7, r8, lr}
  __HAL_LOCK(hdsi);
 8004570:	7402      	strb	r2, [r0, #16]
  if (VidCfg->ColorCoding == DSI_RGB666)
 8004572:	4604      	mov	r4, r0
  hdsi->Instance->MCR &= ~DSI_MCR_CMDM;
 8004574:	6b5a      	ldr	r2, [r3, #52]	; 0x34
  if (VidCfg->ColorCoding == DSI_RGB666)
 8004576:	6848      	ldr	r0, [r1, #4]
  hdsi->Instance->MCR &= ~DSI_MCR_CMDM;
 8004578:	f022 0201 	bic.w	r2, r2, #1
  hdsi->Instance->VPCR &= ~DSI_VPCR_VPSIZE;
  hdsi->Instance->VPCR |= VidCfg->PacketSize;

  /* Set the chunks number to be transmitted through the DSI link */
  hdsi->Instance->VCCR &= ~DSI_VCCR_NUMC;
  hdsi->Instance->VCCR |= VidCfg->NumberOfChunks;
 800457c:	f8d1 8014 	ldr.w	r8, [r1, #20]
  hdsi->Instance->VPCR &= ~DSI_VPCR_VPSIZE;
 8004580:	4e84      	ldr	r6, [pc, #528]	; (8004794 <HAL_DSI_ConfigVideoMode+0x234>)
  /* Select the color coding for the wrapper */
  hdsi->Instance->WCFGR &= ~DSI_WCFGR_COLMUX;
  hdsi->Instance->WCFGR |= ((VidCfg->ColorCoding) << 1U);

  /* Enable/disable the loosely packed variant to 18-bit configuration */
  if (VidCfg->ColorCoding == DSI_RGB666)
 8004582:	2803      	cmp	r0, #3
  hdsi->Instance->VCCR &= ~DSI_VCCR_NUMC;
 8004584:	4d84      	ldr	r5, [pc, #528]	; (8004798 <HAL_DSI_ConfigVideoMode+0x238>)
  hdsi->Instance->VPCR |= VidCfg->PacketSize;
 8004586:	e9d1 ec03 	ldrd	lr, ip, [r1, #12]
  hdsi->Instance->MCR &= ~DSI_MCR_CMDM;
 800458a:	635a      	str	r2, [r3, #52]	; 0x34
  hdsi->Instance->WCFGR &= ~DSI_WCFGR_DSIM;
 800458c:	f8d3 2400 	ldr.w	r2, [r3, #1024]	; 0x400
 8004590:	f022 0201 	bic.w	r2, r2, #1
 8004594:	f8c3 2400 	str.w	r2, [r3, #1024]	; 0x400
  hdsi->Instance->VMCR &= ~DSI_VMCR_VMT;
 8004598:	6b9a      	ldr	r2, [r3, #56]	; 0x38
 800459a:	f022 0203 	bic.w	r2, r2, #3
 800459e:	639a      	str	r2, [r3, #56]	; 0x38
  hdsi->Instance->VMCR |= VidCfg->Mode;
 80045a0:	6b9f      	ldr	r7, [r3, #56]	; 0x38
 80045a2:	ea47 070e 	orr.w	r7, r7, lr
  hdsi->Instance->VNPCR |= VidCfg->NullPacketSize;
 80045a6:	f8d1 e018 	ldr.w	lr, [r1, #24]
  hdsi->Instance->VMCR |= VidCfg->Mode;
 80045aa:	639f      	str	r7, [r3, #56]	; 0x38
  hdsi->Instance->VPCR &= ~DSI_VPCR_VPSIZE;
 80045ac:	6bda      	ldr	r2, [r3, #60]	; 0x3c
 80045ae:	ea06 0602 	and.w	r6, r6, r2
 80045b2:	63de      	str	r6, [r3, #60]	; 0x3c
  hdsi->Instance->VPCR |= VidCfg->PacketSize;
 80045b4:	6bda      	ldr	r2, [r3, #60]	; 0x3c
 80045b6:	ea42 020c 	orr.w	r2, r2, ip
  hdsi->Instance->LVCIDR |= VidCfg->VirtualChannelID;
 80045ba:	f8d1 c000 	ldr.w	ip, [r1]
  hdsi->Instance->VPCR |= VidCfg->PacketSize;
 80045be:	63da      	str	r2, [r3, #60]	; 0x3c
  hdsi->Instance->VCCR &= ~DSI_VCCR_NUMC;
 80045c0:	6c1a      	ldr	r2, [r3, #64]	; 0x40
 80045c2:	ea02 0205 	and.w	r2, r2, r5
 80045c6:	641a      	str	r2, [r3, #64]	; 0x40
  hdsi->Instance->VCCR |= VidCfg->NumberOfChunks;
 80045c8:	6c1f      	ldr	r7, [r3, #64]	; 0x40
 80045ca:	ea47 0708 	orr.w	r7, r7, r8
 80045ce:	641f      	str	r7, [r3, #64]	; 0x40
  hdsi->Instance->VNPCR &= ~DSI_VNPCR_NPSIZE;
 80045d0:	6c5e      	ldr	r6, [r3, #68]	; 0x44
 80045d2:	ea06 0605 	and.w	r6, r6, r5
 80045d6:	645e      	str	r6, [r3, #68]	; 0x44
  hdsi->Instance->VNPCR |= VidCfg->NullPacketSize;
 80045d8:	6c5d      	ldr	r5, [r3, #68]	; 0x44
 80045da:	ea45 050e 	orr.w	r5, r5, lr
 80045de:	645d      	str	r5, [r3, #68]	; 0x44
  hdsi->Instance->LVCIDR &= ~DSI_LVCIDR_VCID;
 80045e0:	68dd      	ldr	r5, [r3, #12]
 80045e2:	f025 0503 	bic.w	r5, r5, #3
 80045e6:	60dd      	str	r5, [r3, #12]
  hdsi->Instance->LVCIDR |= VidCfg->VirtualChannelID;
 80045e8:	68da      	ldr	r2, [r3, #12]
 80045ea:	ea42 020c 	orr.w	r2, r2, ip
 80045ee:	60da      	str	r2, [r3, #12]
  hdsi->Instance->LPCR &= ~(DSI_LPCR_DEP | DSI_LPCR_VSP | DSI_LPCR_HSP);
 80045f0:	695d      	ldr	r5, [r3, #20]
  hdsi->Instance->LPCR |= (VidCfg->DEPolarity | VidCfg->VSPolarity | VidCfg->HSPolarity);
 80045f2:	69cf      	ldr	r7, [r1, #28]
  hdsi->Instance->LPCR &= ~(DSI_LPCR_DEP | DSI_LPCR_VSP | DSI_LPCR_HSP);
 80045f4:	f025 0507 	bic.w	r5, r5, #7
  hdsi->Instance->LPCR |= (VidCfg->DEPolarity | VidCfg->VSPolarity | VidCfg->HSPolarity);
 80045f8:	e9d1 6208 	ldrd	r6, r2, [r1, #32]
  hdsi->Instance->LPCR &= ~(DSI_LPCR_DEP | DSI_LPCR_VSP | DSI_LPCR_HSP);
 80045fc:	615d      	str	r5, [r3, #20]
  hdsi->Instance->LPCR |= (VidCfg->DEPolarity | VidCfg->VSPolarity | VidCfg->HSPolarity);
 80045fe:	ea42 0206 	orr.w	r2, r2, r6
 8004602:	695d      	ldr	r5, [r3, #20]
 8004604:	ea42 0207 	orr.w	r2, r2, r7
 8004608:	ea42 0205 	orr.w	r2, r2, r5
 800460c:	615a      	str	r2, [r3, #20]
  hdsi->Instance->LCOLCR &= ~DSI_LCOLCR_COLC;
 800460e:	691a      	ldr	r2, [r3, #16]
 8004610:	f022 020f 	bic.w	r2, r2, #15
 8004614:	611a      	str	r2, [r3, #16]
  hdsi->Instance->LCOLCR |= VidCfg->ColorCoding;
 8004616:	691a      	ldr	r2, [r3, #16]
 8004618:	ea42 0200 	orr.w	r2, r2, r0
 800461c:	611a      	str	r2, [r3, #16]
  hdsi->Instance->WCFGR &= ~DSI_WCFGR_COLMUX;
 800461e:	f8d3 2400 	ldr.w	r2, [r3, #1024]	; 0x400
 8004622:	f022 020e 	bic.w	r2, r2, #14
 8004626:	f8c3 2400 	str.w	r2, [r3, #1024]	; 0x400
  hdsi->Instance->WCFGR |= ((VidCfg->ColorCoding) << 1U);
 800462a:	f8d3 2400 	ldr.w	r2, [r3, #1024]	; 0x400
 800462e:	ea42 0240 	orr.w	r2, r2, r0, lsl #1
 8004632:	f8c3 2400 	str.w	r2, [r3, #1024]	; 0x400
  if (VidCfg->ColorCoding == DSI_RGB666)
 8004636:	d107      	bne.n	8004648 <HAL_DSI_ConfigVideoMode+0xe8>
  {
    hdsi->Instance->LCOLCR &= ~DSI_LCOLCR_LPE;
 8004638:	6918      	ldr	r0, [r3, #16]
    hdsi->Instance->LCOLCR |= VidCfg->LooselyPacked;
 800463a:	688d      	ldr	r5, [r1, #8]
    hdsi->Instance->LCOLCR &= ~DSI_LCOLCR_LPE;
 800463c:	f420 7080 	bic.w	r0, r0, #256	; 0x100
 8004640:	6118      	str	r0, [r3, #16]
    hdsi->Instance->LCOLCR |= VidCfg->LooselyPacked;
 8004642:	691a      	ldr	r2, [r3, #16]
 8004644:	432a      	orrs	r2, r5
 8004646:	611a      	str	r2, [r3, #16]
  }

  /* Set the Horizontal Synchronization Active (HSA) in lane byte clock cycles */
  hdsi->Instance->VHSACR &= ~DSI_VHSACR_HSA;
 8004648:	6c9f      	ldr	r7, [r3, #72]	; 0x48
  /* Enable the request for an acknowledge response at the end of a frame */
  hdsi->Instance->VMCR &= ~DSI_VMCR_FBTAAE;
  hdsi->Instance->VMCR |= VidCfg->FrameBTAAcknowledgeEnable;

  /* Process unlocked */
  __HAL_UNLOCK(hdsi);
 800464a:	2600      	movs	r6, #0
  hdsi->Instance->VHSACR &= ~DSI_VHSACR_HSA;
 800464c:	4a53      	ldr	r2, [pc, #332]	; (800479c <HAL_DSI_ConfigVideoMode+0x23c>)
  hdsi->Instance->VHSACR |= VidCfg->HorizontalSyncActive;
 800464e:	6a88      	ldr	r0, [r1, #40]	; 0x28
  hdsi->Instance->VHSACR &= ~DSI_VHSACR_HSA;
 8004650:	4017      	ands	r7, r2
  hdsi->Instance->VHBPCR |= VidCfg->HorizontalBackPorch;
 8004652:	f8d1 c02c 	ldr.w	ip, [r1, #44]	; 0x2c
  hdsi->Instance->VLCR |= VidCfg->HorizontalLine;
 8004656:	f8d1 e030 	ldr.w	lr, [r1, #48]	; 0x30
  hdsi->Instance->VHSACR &= ~DSI_VHSACR_HSA;
 800465a:	649f      	str	r7, [r3, #72]	; 0x48
  hdsi->Instance->VHSACR |= VidCfg->HorizontalSyncActive;
 800465c:	6c9d      	ldr	r5, [r3, #72]	; 0x48
  hdsi->Instance->VLCR &= ~DSI_VLCR_HLINE;
 800465e:	4f50      	ldr	r7, [pc, #320]	; (80047a0 <HAL_DSI_ConfigVideoMode+0x240>)
  hdsi->Instance->VHSACR |= VidCfg->HorizontalSyncActive;
 8004660:	4305      	orrs	r5, r0
 8004662:	649d      	str	r5, [r3, #72]	; 0x48
  hdsi->Instance->VHBPCR &= ~DSI_VHBPCR_HBP;
 8004664:	6cd8      	ldr	r0, [r3, #76]	; 0x4c
 8004666:	4010      	ands	r0, r2
 8004668:	64d8      	str	r0, [r3, #76]	; 0x4c
  hdsi->Instance->VHBPCR |= VidCfg->HorizontalBackPorch;
 800466a:	6cda      	ldr	r2, [r3, #76]	; 0x4c
  hdsi->Instance->VVSACR &= ~DSI_VVSACR_VSA;
 800466c:	484d      	ldr	r0, [pc, #308]	; (80047a4 <HAL_DSI_ConfigVideoMode+0x244>)
  hdsi->Instance->VHBPCR |= VidCfg->HorizontalBackPorch;
 800466e:	ea42 020c 	orr.w	r2, r2, ip
  hdsi->Instance->VVSACR |= VidCfg->VerticalSyncActive;
 8004672:	f8d1 c034 	ldr.w	ip, [r1, #52]	; 0x34
  hdsi->Instance->VHBPCR |= VidCfg->HorizontalBackPorch;
 8004676:	64da      	str	r2, [r3, #76]	; 0x4c
  hdsi->Instance->VLCR &= ~DSI_VLCR_HLINE;
 8004678:	6d1a      	ldr	r2, [r3, #80]	; 0x50
 800467a:	4017      	ands	r7, r2
 800467c:	651f      	str	r7, [r3, #80]	; 0x50
  hdsi->Instance->VLCR |= VidCfg->HorizontalLine;
 800467e:	6d1d      	ldr	r5, [r3, #80]	; 0x50
 8004680:	ea45 050e 	orr.w	r5, r5, lr
  hdsi->Instance->VVBPCR |= VidCfg->VerticalBackPorch;
 8004684:	f8d1 e038 	ldr.w	lr, [r1, #56]	; 0x38
  hdsi->Instance->VLCR |= VidCfg->HorizontalLine;
 8004688:	651d      	str	r5, [r3, #80]	; 0x50
  hdsi->Instance->VVSACR &= ~DSI_VVSACR_VSA;
 800468a:	6d5d      	ldr	r5, [r3, #84]	; 0x54
 800468c:	4005      	ands	r5, r0
 800468e:	655d      	str	r5, [r3, #84]	; 0x54
  hdsi->Instance->VVSACR |= VidCfg->VerticalSyncActive;
 8004690:	6d5a      	ldr	r2, [r3, #84]	; 0x54
 8004692:	ea42 020c 	orr.w	r2, r2, ip
  hdsi->Instance->VVFPCR |= VidCfg->VerticalFrontPorch;
 8004696:	f8d1 c03c 	ldr.w	ip, [r1, #60]	; 0x3c
  hdsi->Instance->VVSACR |= VidCfg->VerticalSyncActive;
 800469a:	655a      	str	r2, [r3, #84]	; 0x54
  hdsi->Instance->VVBPCR &= ~DSI_VVBPCR_VBP;
 800469c:	6d9a      	ldr	r2, [r3, #88]	; 0x58
 800469e:	4002      	ands	r2, r0
 80046a0:	659a      	str	r2, [r3, #88]	; 0x58
  hdsi->Instance->VVBPCR |= VidCfg->VerticalBackPorch;
 80046a2:	6d9f      	ldr	r7, [r3, #88]	; 0x58
  hdsi->Instance->VVACR &= ~DSI_VVACR_VA;
 80046a4:	4a3b      	ldr	r2, [pc, #236]	; (8004794 <HAL_DSI_ConfigVideoMode+0x234>)
  hdsi->Instance->VVBPCR |= VidCfg->VerticalBackPorch;
 80046a6:	ea47 070e 	orr.w	r7, r7, lr
 80046aa:	659f      	str	r7, [r3, #88]	; 0x58
  hdsi->Instance->VVFPCR &= ~DSI_VVFPCR_VFP;
 80046ac:	6ddf      	ldr	r7, [r3, #92]	; 0x5c
 80046ae:	4007      	ands	r7, r0

  return HAL_OK;
 80046b0:	4630      	mov	r0, r6
  hdsi->Instance->VVFPCR &= ~DSI_VVFPCR_VFP;
 80046b2:	65df      	str	r7, [r3, #92]	; 0x5c
  hdsi->Instance->VVFPCR |= VidCfg->VerticalFrontPorch;
 80046b4:	6ddd      	ldr	r5, [r3, #92]	; 0x5c
 80046b6:	ea45 050c 	orr.w	r5, r5, ip
 80046ba:	65dd      	str	r5, [r3, #92]	; 0x5c
  hdsi->Instance->VVACR &= ~DSI_VVACR_VA;
 80046bc:	6e1d      	ldr	r5, [r3, #96]	; 0x60
 80046be:	402a      	ands	r2, r5
 80046c0:	661a      	str	r2, [r3, #96]	; 0x60
  hdsi->Instance->VVACR |= VidCfg->VerticalActive;
 80046c2:	6e1d      	ldr	r5, [r3, #96]	; 0x60
 80046c4:	6c0a      	ldr	r2, [r1, #64]	; 0x40
  hdsi->Instance->VMCR |= VidCfg->LPCommandEnable;
 80046c6:	f8d1 e044 	ldr.w	lr, [r1, #68]	; 0x44
  hdsi->Instance->VVACR |= VidCfg->VerticalActive;
 80046ca:	4315      	orrs	r5, r2
  hdsi->Instance->LPMCR |= ((VidCfg->LPLargestPacketSize) << 16U);
 80046cc:	f8d1 c048 	ldr.w	ip, [r1, #72]	; 0x48
  hdsi->Instance->VVACR |= VidCfg->VerticalActive;
 80046d0:	661d      	str	r5, [r3, #96]	; 0x60
  hdsi->Instance->VMCR &= ~DSI_VMCR_LPCE;
 80046d2:	6b9f      	ldr	r7, [r3, #56]	; 0x38
 80046d4:	f427 4700 	bic.w	r7, r7, #32768	; 0x8000
 80046d8:	639f      	str	r7, [r3, #56]	; 0x38
  hdsi->Instance->VMCR |= VidCfg->LPCommandEnable;
 80046da:	6b9a      	ldr	r2, [r3, #56]	; 0x38
 80046dc:	ea42 020e 	orr.w	r2, r2, lr
  hdsi->Instance->LPMCR |= VidCfg->LPVACTLargestPacketSize;
 80046e0:	f8d1 e04c 	ldr.w	lr, [r1, #76]	; 0x4c
  hdsi->Instance->VMCR |= VidCfg->LPCommandEnable;
 80046e4:	639a      	str	r2, [r3, #56]	; 0x38
  hdsi->Instance->LPMCR &= ~DSI_LPMCR_LPSIZE;
 80046e6:	699f      	ldr	r7, [r3, #24]
 80046e8:	f427 077f 	bic.w	r7, r7, #16711680	; 0xff0000
 80046ec:	619f      	str	r7, [r3, #24]
  hdsi->Instance->LPMCR |= ((VidCfg->LPLargestPacketSize) << 16U);
 80046ee:	699d      	ldr	r5, [r3, #24]
 80046f0:	ea45 450c 	orr.w	r5, r5, ip, lsl #16
  hdsi->Instance->VMCR |= VidCfg->LPHorizontalFrontPorchEnable;
 80046f4:	f8d1 c050 	ldr.w	ip, [r1, #80]	; 0x50
  hdsi->Instance->LPMCR |= ((VidCfg->LPLargestPacketSize) << 16U);
 80046f8:	619d      	str	r5, [r3, #24]
  hdsi->Instance->LPMCR &= ~DSI_LPMCR_VLPSIZE;
 80046fa:	699d      	ldr	r5, [r3, #24]
 80046fc:	f025 05ff 	bic.w	r5, r5, #255	; 0xff
 8004700:	619d      	str	r5, [r3, #24]
  hdsi->Instance->LPMCR |= VidCfg->LPVACTLargestPacketSize;
 8004702:	699a      	ldr	r2, [r3, #24]
 8004704:	ea42 020e 	orr.w	r2, r2, lr
  hdsi->Instance->VMCR |= VidCfg->LPHorizontalBackPorchEnable;
 8004708:	f8d1 e054 	ldr.w	lr, [r1, #84]	; 0x54
  hdsi->Instance->LPMCR |= VidCfg->LPVACTLargestPacketSize;
 800470c:	619a      	str	r2, [r3, #24]
  hdsi->Instance->VMCR &= ~DSI_VMCR_LPHFPE;
 800470e:	6b9a      	ldr	r2, [r3, #56]	; 0x38
 8004710:	f422 5200 	bic.w	r2, r2, #8192	; 0x2000
 8004714:	639a      	str	r2, [r3, #56]	; 0x38
  hdsi->Instance->VMCR |= VidCfg->LPHorizontalFrontPorchEnable;
 8004716:	6b9f      	ldr	r7, [r3, #56]	; 0x38
 8004718:	ea47 070c 	orr.w	r7, r7, ip
  hdsi->Instance->VMCR |= VidCfg->LPVerticalActiveEnable;
 800471c:	f8d1 c058 	ldr.w	ip, [r1, #88]	; 0x58
  hdsi->Instance->VMCR |= VidCfg->LPHorizontalFrontPorchEnable;
 8004720:	639f      	str	r7, [r3, #56]	; 0x38
  hdsi->Instance->VMCR &= ~DSI_VMCR_LPHBPE;
 8004722:	6b9f      	ldr	r7, [r3, #56]	; 0x38
 8004724:	f427 5780 	bic.w	r7, r7, #4096	; 0x1000
 8004728:	639f      	str	r7, [r3, #56]	; 0x38
  hdsi->Instance->VMCR |= VidCfg->LPHorizontalBackPorchEnable;
 800472a:	6b9d      	ldr	r5, [r3, #56]	; 0x38
 800472c:	ea45 050e 	orr.w	r5, r5, lr
 8004730:	639d      	str	r5, [r3, #56]	; 0x38
  hdsi->Instance->VMCR &= ~DSI_VMCR_LPVAE;
 8004732:	6b9d      	ldr	r5, [r3, #56]	; 0x38
 8004734:	f425 6500 	bic.w	r5, r5, #2048	; 0x800
 8004738:	639d      	str	r5, [r3, #56]	; 0x38
  hdsi->Instance->VMCR |= VidCfg->LPVerticalActiveEnable;
 800473a:	6b9a      	ldr	r2, [r3, #56]	; 0x38
 800473c:	ea42 020c 	orr.w	r2, r2, ip
 8004740:	639a      	str	r2, [r3, #56]	; 0x38
  hdsi->Instance->VMCR &= ~DSI_VMCR_LPVFPE;
 8004742:	6b9f      	ldr	r7, [r3, #56]	; 0x38
  hdsi->Instance->VMCR |= VidCfg->LPVerticalFrontPorchEnable;
 8004744:	6dcd      	ldr	r5, [r1, #92]	; 0x5c
  hdsi->Instance->VMCR &= ~DSI_VMCR_LPVFPE;
 8004746:	f427 6780 	bic.w	r7, r7, #1024	; 0x400
  hdsi->Instance->VMCR |= VidCfg->LPVerticalBackPorchEnable;
 800474a:	f8d1 e060 	ldr.w	lr, [r1, #96]	; 0x60
  hdsi->Instance->VMCR &= ~DSI_VMCR_LPVFPE;
 800474e:	639f      	str	r7, [r3, #56]	; 0x38
  hdsi->Instance->VMCR |= VidCfg->LPVerticalFrontPorchEnable;
 8004750:	6b9a      	ldr	r2, [r3, #56]	; 0x38
 8004752:	432a      	orrs	r2, r5
  hdsi->Instance->VMCR |= VidCfg->FrameBTAAcknowledgeEnable;
 8004754:	e9d1 c719 	ldrd	ip, r7, [r1, #100]	; 0x64
  hdsi->Instance->VMCR |= VidCfg->LPVerticalFrontPorchEnable;
 8004758:	639a      	str	r2, [r3, #56]	; 0x38
  hdsi->Instance->VMCR &= ~DSI_VMCR_LPVBPE;
 800475a:	6b9a      	ldr	r2, [r3, #56]	; 0x38
 800475c:	f422 7200 	bic.w	r2, r2, #512	; 0x200
 8004760:	639a      	str	r2, [r3, #56]	; 0x38
  hdsi->Instance->VMCR |= VidCfg->LPVerticalBackPorchEnable;
 8004762:	6b9d      	ldr	r5, [r3, #56]	; 0x38
 8004764:	ea45 050e 	orr.w	r5, r5, lr
 8004768:	639d      	str	r5, [r3, #56]	; 0x38
  hdsi->Instance->VMCR &= ~DSI_VMCR_LPVSAE;
 800476a:	6b9d      	ldr	r5, [r3, #56]	; 0x38
 800476c:	f425 7580 	bic.w	r5, r5, #256	; 0x100
 8004770:	639d      	str	r5, [r3, #56]	; 0x38
  hdsi->Instance->VMCR |= VidCfg->LPVerticalSyncActiveEnable;
 8004772:	6b99      	ldr	r1, [r3, #56]	; 0x38
 8004774:	ea41 010c 	orr.w	r1, r1, ip
 8004778:	6399      	str	r1, [r3, #56]	; 0x38
  hdsi->Instance->VMCR &= ~DSI_VMCR_FBTAAE;
 800477a:	6b99      	ldr	r1, [r3, #56]	; 0x38
 800477c:	f421 4180 	bic.w	r1, r1, #16384	; 0x4000
 8004780:	6399      	str	r1, [r3, #56]	; 0x38
  hdsi->Instance->VMCR |= VidCfg->FrameBTAAcknowledgeEnable;
 8004782:	6b9a      	ldr	r2, [r3, #56]	; 0x38
 8004784:	433a      	orrs	r2, r7
 8004786:	639a      	str	r2, [r3, #56]	; 0x38
  __HAL_UNLOCK(hdsi);
 8004788:	7426      	strb	r6, [r4, #16]
}
 800478a:	e8bd 81f0 	ldmia.w	sp!, {r4, r5, r6, r7, r8, pc}
  __HAL_LOCK(hdsi);
 800478e:	2002      	movs	r0, #2
}
 8004790:	4770      	bx	lr
 8004792:	bf00      	nop
 8004794:	ffffc000 	.word	0xffffc000
 8004798:	ffffe000 	.word	0xffffe000
 800479c:	fffff000 	.word	0xfffff000
 80047a0:	ffff8000 	.word	0xffff8000
 80047a4:	fffffc00 	.word	0xfffffc00

080047a8 <HAL_DSI_ConfigFlowControl>:
  * @retval HAL status
  */
HAL_StatusTypeDef HAL_DSI_ConfigFlowControl(DSI_HandleTypeDef *hdsi, uint32_t FlowControl)
{
  /* Process locked */
  __HAL_LOCK(hdsi);
 80047a8:	7c02      	ldrb	r2, [r0, #16]
 80047aa:	2a01      	cmp	r2, #1
 80047ac:	d00e      	beq.n	80047cc <HAL_DSI_ConfigFlowControl+0x24>

  /* Check the parameters */
  assert_param(IS_DSI_FLOW_CONTROL(FlowControl));

  /* Set the DSI Host Protocol Configuration Register */
  hdsi->Instance->PCR &= ~DSI_FLOW_CONTROL_ALL;
 80047ae:	6802      	ldr	r2, [r0, #0]
 80047b0:	4603      	mov	r3, r0
{
 80047b2:	b430      	push	{r4, r5}
  hdsi->Instance->PCR &= ~DSI_FLOW_CONTROL_ALL;
 80047b4:	6ad4      	ldr	r4, [r2, #44]	; 0x2c
  hdsi->Instance->PCR |= FlowControl;

  /* Process unlocked */
  __HAL_UNLOCK(hdsi);
 80047b6:	2500      	movs	r5, #0
  hdsi->Instance->PCR &= ~DSI_FLOW_CONTROL_ALL;
 80047b8:	f024 041f 	bic.w	r4, r4, #31

  return HAL_OK;
 80047bc:	4628      	mov	r0, r5
  hdsi->Instance->PCR &= ~DSI_FLOW_CONTROL_ALL;
 80047be:	62d4      	str	r4, [r2, #44]	; 0x2c
  hdsi->Instance->PCR |= FlowControl;
 80047c0:	6ad4      	ldr	r4, [r2, #44]	; 0x2c
 80047c2:	4321      	orrs	r1, r4
 80047c4:	62d1      	str	r1, [r2, #44]	; 0x2c
  __HAL_UNLOCK(hdsi);
 80047c6:	741d      	strb	r5, [r3, #16]
}
 80047c8:	bc30      	pop	{r4, r5}
 80047ca:	4770      	bx	lr
  __HAL_LOCK(hdsi);
 80047cc:	2002      	movs	r0, #2
}
 80047ce:	4770      	bx	lr

080047d0 <HAL_DSI_Start>:
  * @retval HAL status
  */
HAL_StatusTypeDef HAL_DSI_Start(DSI_HandleTypeDef *hdsi)
{
  /* Process locked */
  __HAL_LOCK(hdsi);
 80047d0:	7c03      	ldrb	r3, [r0, #16]
 80047d2:	2b01      	cmp	r3, #1
 80047d4:	d021      	beq.n	800481a <HAL_DSI_Start+0x4a>

  /* Enable the DSI host */
  __HAL_DSI_ENABLE(hdsi);
 80047d6:	6803      	ldr	r3, [r0, #0]
 80047d8:	2100      	movs	r1, #0
 80047da:	4602      	mov	r2, r0
  __HAL_DSI_WRAPPER_ENABLE(hdsi);

  /* Process unlocked */
  __HAL_UNLOCK(hdsi);

  return HAL_OK;
 80047dc:	4608      	mov	r0, r1
{
 80047de:	b410      	push	{r4}
 80047e0:	b083      	sub	sp, #12
  __HAL_DSI_ENABLE(hdsi);
 80047e2:	9100      	str	r1, [sp, #0]
 80047e4:	685c      	ldr	r4, [r3, #4]
 80047e6:	f044 0401 	orr.w	r4, r4, #1
 80047ea:	605c      	str	r4, [r3, #4]
 80047ec:	685c      	ldr	r4, [r3, #4]
 80047ee:	f004 0401 	and.w	r4, r4, #1
 80047f2:	9400      	str	r4, [sp, #0]
 80047f4:	9c00      	ldr	r4, [sp, #0]
  __HAL_DSI_WRAPPER_ENABLE(hdsi);
 80047f6:	9101      	str	r1, [sp, #4]
 80047f8:	f8d3 4404 	ldr.w	r4, [r3, #1028]	; 0x404
 80047fc:	f044 0408 	orr.w	r4, r4, #8
 8004800:	f8c3 4404 	str.w	r4, [r3, #1028]	; 0x404
 8004804:	f8d3 3404 	ldr.w	r3, [r3, #1028]	; 0x404
  __HAL_UNLOCK(hdsi);
 8004808:	7411      	strb	r1, [r2, #16]
  __HAL_DSI_WRAPPER_ENABLE(hdsi);
 800480a:	f003 0308 	and.w	r3, r3, #8
 800480e:	9301      	str	r3, [sp, #4]
 8004810:	9b01      	ldr	r3, [sp, #4]
}
 8004812:	b003      	add	sp, #12
 8004814:	f85d 4b04 	ldr.w	r4, [sp], #4
 8004818:	4770      	bx	lr
  __HAL_LOCK(hdsi);
 800481a:	2002      	movs	r0, #2
}
 800481c:	4770      	bx	lr
 800481e:	bf00      	nop

08004820 <HAL_DSI_ShortWrite>:
HAL_StatusTypeDef HAL_DSI_ShortWrite(DSI_HandleTypeDef *hdsi,
                                     uint32_t ChannelID,
                                     uint32_t Mode,
                                     uint32_t Param1,
                                     uint32_t Param2)
{
 8004820:	b570      	push	{r4, r5, r6, lr}
  HAL_StatusTypeDef status;
  /* Check the parameters */
  assert_param(IS_DSI_SHORT_WRITE_PACKET_TYPE(Mode));

  /* Process locked */
  __HAL_LOCK(hdsi);
 8004822:	7c05      	ldrb	r5, [r0, #16]
{
 8004824:	b082      	sub	sp, #8
  __HAL_LOCK(hdsi);
 8004826:	2d01      	cmp	r5, #1
 8004828:	d00a      	beq.n	8004840 <HAL_DSI_ShortWrite+0x20>

   status = DSI_ShortWrite(hdsi, ChannelID, Mode, Param1, Param2);
 800482a:	9e06      	ldr	r6, [sp, #24]
  __HAL_LOCK(hdsi);
 800482c:	2501      	movs	r5, #1
 800482e:	4604      	mov	r4, r0
   status = DSI_ShortWrite(hdsi, ChannelID, Mode, Param1, Param2);
 8004830:	9600      	str	r6, [sp, #0]
  __HAL_LOCK(hdsi);
 8004832:	7405      	strb	r5, [r0, #16]
   status = DSI_ShortWrite(hdsi, ChannelID, Mode, Param1, Param2);
 8004834:	f7ff fd38 	bl	80042a8 <DSI_ShortWrite>

  /* Process unlocked */
  __HAL_UNLOCK(hdsi);
 8004838:	2300      	movs	r3, #0
 800483a:	7423      	strb	r3, [r4, #16]

  return status;
}
 800483c:	b002      	add	sp, #8
 800483e:	bd70      	pop	{r4, r5, r6, pc}
  __HAL_LOCK(hdsi);
 8004840:	2002      	movs	r0, #2
}
 8004842:	b002      	add	sp, #8
 8004844:	bd70      	pop	{r4, r5, r6, pc}
 8004846:	bf00      	nop

08004848 <HAL_DSI_LongWrite>:
                                    uint32_t ChannelID,
                                    uint32_t Mode,
                                    uint32_t NbParams,
                                    uint32_t Param1,
                                    uint8_t *ParametersTable)
{
 8004848:	e92d 47f0 	stmdb	sp!, {r4, r5, r6, r7, r8, r9, sl, lr}
 800484c:	4698      	mov	r8, r3
  uint32_t tickstart;
  uint32_t fifoword;
  uint8_t *pparams = ParametersTable;

  /* Process locked */
  __HAL_LOCK(hdsi);
 800484e:	7c03      	ldrb	r3, [r0, #16]
{
 8004850:	9e08      	ldr	r6, [sp, #32]
  __HAL_LOCK(hdsi);
 8004852:	2b01      	cmp	r3, #1
 8004854:	d05e      	beq.n	8004914 <HAL_DSI_LongWrite+0xcc>
 8004856:	2301      	movs	r3, #1
 8004858:	4607      	mov	r7, r0
 800485a:	4689      	mov	r9, r1
 800485c:	4692      	mov	sl, r2
 800485e:	7403      	strb	r3, [r0, #16]

  /* Check the parameters */
  assert_param(IS_DSI_LONG_WRITE_PACKET_TYPE(Mode));

  /* Get tick */
  tickstart = HAL_GetTick();
 8004860:	f7ff fae8 	bl	8003e34 <HAL_GetTick>
 8004864:	4605      	mov	r5, r0

  /* Wait for Command FIFO Empty */
  while ((hdsi->Instance->GPSR & DSI_GPSR_CMDFE) == 0U)
 8004866:	e005      	b.n	8004874 <HAL_DSI_LongWrite+0x2c>
  {
    /* Check for the Timeout */
    if ((HAL_GetTick() - tickstart) > DSI_TIMEOUT_VALUE)
 8004868:	f7ff fae4 	bl	8003e34 <HAL_GetTick>
 800486c:	1b40      	subs	r0, r0, r5
 800486e:	f5b0 7f7a 	cmp.w	r0, #1000	; 0x3e8
 8004872:	d84b      	bhi.n	800490c <HAL_DSI_LongWrite+0xc4>
  while ((hdsi->Instance->GPSR & DSI_GPSR_CMDFE) == 0U)
 8004874:	6839      	ldr	r1, [r7, #0]
 8004876:	6f4c      	ldr	r4, [r1, #116]	; 0x74
 8004878:	f014 0401 	ands.w	r4, r4, #1
 800487c:	d0f4      	beq.n	8004868 <HAL_DSI_LongWrite+0x20>
    }
  }

  /* Set the DCS code on payload byte 1, and the other parameters on the write FIFO command*/
  fifoword = Param1;
  nbBytes = (NbParams < 3U) ? NbParams : 3U;
 800487e:	4640      	mov	r0, r8
 8004880:	2803      	cmp	r0, #3
 8004882:	bf28      	it	cs
 8004884:	2003      	movcs	r0, #3

  for (count = 0U; count < nbBytes; count++)
 8004886:	f1b8 0f00 	cmp.w	r8, #0
 800488a:	d046      	beq.n	800491a <HAL_DSI_LongWrite+0xd2>
 800488c:	9b09      	ldr	r3, [sp, #36]	; 0x24
 800488e:	1e5c      	subs	r4, r3, #1
 8004890:	2300      	movs	r3, #0
  {
    fifoword |= (((uint32_t)(*(pparams + count))) << (8U + (8U * count)));
 8004892:	3301      	adds	r3, #1
 8004894:	f814 2f01 	ldrb.w	r2, [r4, #1]!
 8004898:	00dd      	lsls	r5, r3, #3
  for (count = 0U; count < nbBytes; count++)
 800489a:	4283      	cmp	r3, r0
    fifoword |= (((uint32_t)(*(pparams + count))) << (8U + (8U * count)));
 800489c:	fa02 f205 	lsl.w	r2, r2, r5
 80048a0:	ea46 0602 	orr.w	r6, r6, r2
  for (count = 0U; count < nbBytes; count++)
 80048a4:	d3f5      	bcc.n	8004892 <HAL_DSI_LongWrite+0x4a>
  }
  hdsi->Instance->GPDR = fifoword;

  uicounter = NbParams - nbBytes;
  pparams += nbBytes;
 80048a6:	9b09      	ldr	r3, [sp, #36]	; 0x24
  hdsi->Instance->GPDR = fifoword;
 80048a8:	670e      	str	r6, [r1, #112]	; 0x70
  pparams += nbBytes;
 80048aa:	181e      	adds	r6, r3, r0
  /* Set the Next parameters on the write FIFO command*/
  while (uicounter != 0U)
 80048ac:	ebb8 0000 	subs.w	r0, r8, r0
 80048b0:	d017      	beq.n	80048e2 <HAL_DSI_LongWrite+0x9a>
  {
    nbBytes = (uicounter < 4U) ? uicounter : 4U;
 80048b2:	2804      	cmp	r0, #4
 80048b4:	4684      	mov	ip, r0
 80048b6:	f04f 0500 	mov.w	r5, #0
 80048ba:	bf28      	it	cs
 80048bc:	f04f 0c04 	movcs.w	ip, #4
    fifoword = 0U;
 80048c0:	462b      	mov	r3, r5
 80048c2:	eb06 020c 	add.w	r2, r6, ip
    for (count = 0U; count < nbBytes; count++)
    {
      fifoword |= (((uint32_t)(*(pparams + count))) << (8U * count));
 80048c6:	f816 4b01 	ldrb.w	r4, [r6], #1
 80048ca:	40ac      	lsls	r4, r5
    for (count = 0U; count < nbBytes; count++)
 80048cc:	42b2      	cmp	r2, r6
      fifoword |= (((uint32_t)(*(pparams + count))) << (8U * count));
 80048ce:	f105 0508 	add.w	r5, r5, #8
 80048d2:	ea43 0304 	orr.w	r3, r3, r4
    for (count = 0U; count < nbBytes; count++)
 80048d6:	d1f6      	bne.n	80048c6 <HAL_DSI_LongWrite+0x7e>
  while (uicounter != 0U)
 80048d8:	ebb0 000c 	subs.w	r0, r0, ip
    }
    hdsi->Instance->GPDR = fifoword;

    uicounter -= nbBytes;
    pparams += nbBytes;
 80048dc:	4616      	mov	r6, r2
    hdsi->Instance->GPDR = fifoword;
 80048de:	670b      	str	r3, [r1, #112]	; 0x70
  while (uicounter != 0U)
 80048e0:	d1e7      	bne.n	80048b2 <HAL_DSI_LongWrite+0x6a>

  /* Configure the packet to send a long DCS command */
  DSI_ConfigPacketHeader(hdsi->Instance,
                         ChannelID,
                         Mode,
                         ((NbParams + 1U) & 0x00FFU),
 80048e2:	f108 0801 	add.w	r8, r8, #1
  DSIx->GHCR = (DataType | (ChannelID << 6U) | (Data0 << 8U) | (Data1 << 16U));
 80048e6:	ea4a 1389 	orr.w	r3, sl, r9, lsl #6
                         (((NbParams + 1U) & 0xFF00U) >> 8U));

  /* Process unlocked */
  __HAL_UNLOCK(hdsi);
 80048ea:	2200      	movs	r2, #0
  DSIx->GHCR = (DataType | (ChannelID << 6U) | (Data0 << 8U) | (Data1 << 16U));
 80048ec:	ea4f 2908 	mov.w	r9, r8, lsl #8

  return HAL_OK;
 80048f0:	4610      	mov	r0, r2
  DSIx->GHCR = (DataType | (ChannelID << 6U) | (Data0 << 8U) | (Data1 << 16U));
 80048f2:	46c8      	mov	r8, r9
 80048f4:	fa1f f989 	uxth.w	r9, r9
 80048f8:	f408 087f 	and.w	r8, r8, #16711680	; 0xff0000
 80048fc:	ea43 0309 	orr.w	r3, r3, r9
 8004900:	ea43 0308 	orr.w	r3, r3, r8
 8004904:	66cb      	str	r3, [r1, #108]	; 0x6c
  __HAL_UNLOCK(hdsi);
 8004906:	743a      	strb	r2, [r7, #16]
}
 8004908:	e8bd 87f0 	ldmia.w	sp!, {r4, r5, r6, r7, r8, r9, sl, pc}
      return HAL_TIMEOUT;
 800490c:	2003      	movs	r0, #3
      __HAL_UNLOCK(hdsi);
 800490e:	743c      	strb	r4, [r7, #16]
}
 8004910:	e8bd 87f0 	ldmia.w	sp!, {r4, r5, r6, r7, r8, r9, sl, pc}
  __HAL_LOCK(hdsi);
 8004914:	2002      	movs	r0, #2
}
 8004916:	e8bd 87f0 	ldmia.w	sp!, {r4, r5, r6, r7, r8, r9, sl, pc}
  hdsi->Instance->GPDR = fifoword;
 800491a:	670e      	str	r6, [r1, #112]	; 0x70
  while (uicounter != 0U)
 800491c:	e7e1      	b.n	80048e2 <HAL_DSI_LongWrite+0x9a>
 800491e:	bf00      	nop

08004920 <HAL_DSI_Read>:
                               uint8_t *Array,
                               uint32_t Size,
                               uint32_t Mode,
                               uint32_t DCSCmd,
                               uint8_t *ParametersTable)
{
 8004920:	e92d 41f0 	stmdb	sp!, {r4, r5, r6, r7, r8, lr}
 8004924:	4615      	mov	r5, r2
  uint32_t fifoword;
  uint32_t nbbytes;
  uint32_t count;

  /* Process locked */
  __HAL_LOCK(hdsi);
 8004926:	7c02      	ldrb	r2, [r0, #16]
{
 8004928:	b082      	sub	sp, #8
  __HAL_LOCK(hdsi);
 800492a:	2a01      	cmp	r2, #1
{
 800492c:	9c08      	ldr	r4, [sp, #32]
  __HAL_LOCK(hdsi);
 800492e:	d070      	beq.n	8004a12 <HAL_DSI_Read+0xf2>
 8004930:	461e      	mov	r6, r3
 8004932:	2301      	movs	r3, #1
 8004934:	4607      	mov	r7, r0
 8004936:	4688      	mov	r8, r1

  /* Check the parameters */
  assert_param(IS_DSI_READ_PACKET_TYPE(Mode));

  if (datasize > 2U)
 8004938:	2e02      	cmp	r6, #2
  __HAL_LOCK(hdsi);
 800493a:	7403      	strb	r3, [r0, #16]
  if (datasize > 2U)
 800493c:	d80d      	bhi.n	800495a <HAL_DSI_Read+0x3a>
      return HAL_ERROR;
    }
  }

  /* Configure the packet to read command */
  if (Mode == DSI_DCS_SHORT_PKT_READ)
 800493e:	2c06      	cmp	r4, #6
 8004940:	d017      	beq.n	8004972 <HAL_DSI_Read+0x52>
  {
    DSI_ConfigPacketHeader(hdsi->Instance, ChannelNbr, Mode, DCSCmd, 0U);
  }
  else if (Mode == DSI_GEN_SHORT_PKT_READ_P0)
 8004942:	2c04      	cmp	r4, #4
 8004944:	d04f      	beq.n	80049e6 <HAL_DSI_Read+0xc6>
  {
    DSI_ConfigPacketHeader(hdsi->Instance, ChannelNbr, Mode, 0U, 0U);
  }
  else if (Mode == DSI_GEN_SHORT_PKT_READ_P1)
 8004946:	2c14      	cmp	r4, #20
 8004948:	d067      	beq.n	8004a1a <HAL_DSI_Read+0xfa>
  {
    DSI_ConfigPacketHeader(hdsi->Instance, ChannelNbr, Mode, ParametersTable[0U], 0U);
  }
  else if (Mode == DSI_GEN_SHORT_PKT_READ_P2)
 800494a:	2c24      	cmp	r4, #36	; 0x24
 800494c:	d052      	beq.n	80049f4 <HAL_DSI_Read+0xd4>
      __HAL_UNLOCK(hdsi);
 800494e:	2300      	movs	r3, #0
      return HAL_ERROR;
 8004950:	2001      	movs	r0, #1
      __HAL_UNLOCK(hdsi);
 8004952:	743b      	strb	r3, [r7, #16]

  /* Process unlocked */
  __HAL_UNLOCK(hdsi);

  return HAL_OK;
}
 8004954:	b002      	add	sp, #8
 8004956:	e8bd 81f0 	ldmia.w	sp!, {r4, r5, r6, r7, r8, pc}
    if (DSI_ShortWrite(hdsi, ChannelNbr, DSI_MAX_RETURN_PKT_SIZE, ((datasize) & 0xFFU),
 800495a:	f3c6 2c07 	ubfx	ip, r6, #8, #8
 800495e:	b2f3      	uxtb	r3, r6
 8004960:	2237      	movs	r2, #55	; 0x37
 8004962:	f8cd c000 	str.w	ip, [sp]
 8004966:	f7ff fc9f 	bl	80042a8 <DSI_ShortWrite>
 800496a:	2800      	cmp	r0, #0
 800496c:	d1ef      	bne.n	800494e <HAL_DSI_Read+0x2e>
  if (Mode == DSI_DCS_SHORT_PKT_READ)
 800496e:	2c06      	cmp	r4, #6
 8004970:	d1e7      	bne.n	8004942 <HAL_DSI_Read+0x22>
  DSIx->GHCR = (DataType | (ChannelID << 6U) | (Data0 << 8U) | (Data1 << 16U));
 8004972:	9b09      	ldr	r3, [sp, #36]	; 0x24
    DSI_ConfigPacketHeader(hdsi->Instance, ChannelNbr, Mode, DCSCmd, 0U);
 8004974:	6839      	ldr	r1, [r7, #0]
  DSIx->GHCR = (DataType | (ChannelID << 6U) | (Data0 << 8U) | (Data1 << 16U));
 8004976:	021a      	lsls	r2, r3, #8
 8004978:	ea42 1388 	orr.w	r3, r2, r8, lsl #6
 800497c:	f043 0306 	orr.w	r3, r3, #6
 8004980:	66cb      	str	r3, [r1, #108]	; 0x6c
  tickstart = HAL_GetTick();
 8004982:	f7ff fa57 	bl	8003e34 <HAL_GetTick>
 8004986:	4680      	mov	r8, r0
  while (((int32_t)(datasize)) > 0)
 8004988:	e006      	b.n	8004998 <HAL_DSI_Read+0x78>
    if ((HAL_GetTick() - tickstart) > DSI_TIMEOUT_VALUE)
 800498a:	f7ff fa53 	bl	8003e34 <HAL_GetTick>
 800498e:	eba0 0008 	sub.w	r0, r0, r8
 8004992:	f5b0 7f7a 	cmp.w	r0, #1000	; 0x3e8
 8004996:	d81b      	bhi.n	80049d0 <HAL_DSI_Read+0xb0>
  while (((int32_t)(datasize)) > 0)
 8004998:	2e00      	cmp	r6, #0
 800499a:	dd1f      	ble.n	80049dc <HAL_DSI_Read+0xbc>
    if ((hdsi->Instance->GPSR & DSI_GPSR_PRDFE) == 0U)
 800499c:	683b      	ldr	r3, [r7, #0]
 800499e:	6f59      	ldr	r1, [r3, #116]	; 0x74
 80049a0:	f011 0110 	ands.w	r1, r1, #16
 80049a4:	d1f1      	bne.n	800498a <HAL_DSI_Read+0x6a>
      nbbytes = (datasize < 4U) ? datasize : 4U;
 80049a6:	2e04      	cmp	r6, #4
 80049a8:	4630      	mov	r0, r6
      fifoword = hdsi->Instance->GPDR;
 80049aa:	6f1a      	ldr	r2, [r3, #112]	; 0x70
      nbbytes = (datasize < 4U) ? datasize : 4U;
 80049ac:	bf28      	it	cs
 80049ae:	2004      	movcs	r0, #4
      for (count = 0U; count < nbbytes; count++)
 80049b0:	182b      	adds	r3, r5, r0
        *pdata = (uint8_t)(fifoword >> (8U * count));
 80049b2:	fa22 f401 	lsr.w	r4, r2, r1
 80049b6:	3108      	adds	r1, #8
 80049b8:	f805 4b01 	strb.w	r4, [r5], #1
      for (count = 0U; count < nbbytes; count++)
 80049bc:	429d      	cmp	r5, r3
 80049be:	d1f8      	bne.n	80049b2 <HAL_DSI_Read+0x92>
 80049c0:	1a36      	subs	r6, r6, r0
    if ((HAL_GetTick() - tickstart) > DSI_TIMEOUT_VALUE)
 80049c2:	f7ff fa37 	bl	8003e34 <HAL_GetTick>
 80049c6:	eba0 0008 	sub.w	r0, r0, r8
 80049ca:	f5b0 7f7a 	cmp.w	r0, #1000	; 0x3e8
 80049ce:	d9e3      	bls.n	8004998 <HAL_DSI_Read+0x78>
      __HAL_UNLOCK(hdsi);
 80049d0:	2300      	movs	r3, #0
      return HAL_TIMEOUT;
 80049d2:	2003      	movs	r0, #3
      __HAL_UNLOCK(hdsi);
 80049d4:	743b      	strb	r3, [r7, #16]
}
 80049d6:	b002      	add	sp, #8
 80049d8:	e8bd 81f0 	ldmia.w	sp!, {r4, r5, r6, r7, r8, pc}
  __HAL_UNLOCK(hdsi);
 80049dc:	2000      	movs	r0, #0
 80049de:	7438      	strb	r0, [r7, #16]
}
 80049e0:	b002      	add	sp, #8
 80049e2:	e8bd 81f0 	ldmia.w	sp!, {r4, r5, r6, r7, r8, pc}
  DSIx->GHCR = (DataType | (ChannelID << 6U) | (Data0 << 8U) | (Data1 << 16U));
 80049e6:	ea4f 1388 	mov.w	r3, r8, lsl #6
    DSI_ConfigPacketHeader(hdsi->Instance, ChannelNbr, Mode, 0U, 0U);
 80049ea:	683a      	ldr	r2, [r7, #0]
  DSIx->GHCR = (DataType | (ChannelID << 6U) | (Data0 << 8U) | (Data1 << 16U));
 80049ec:	f043 0304 	orr.w	r3, r3, #4
 80049f0:	66d3      	str	r3, [r2, #108]	; 0x6c
}
 80049f2:	e7c6      	b.n	8004982 <HAL_DSI_Read+0x62>
    DSI_ConfigPacketHeader(hdsi->Instance, ChannelNbr, Mode, ParametersTable[0U], ParametersTable[1U]);
 80049f4:	9a0a      	ldr	r2, [sp, #40]	; 0x28
  DSIx->GHCR = (DataType | (ChannelID << 6U) | (Data0 << 8U) | (Data1 << 16U));
 80049f6:	ea4f 1388 	mov.w	r3, r8, lsl #6
    DSI_ConfigPacketHeader(hdsi->Instance, ChannelNbr, Mode, ParametersTable[0U], ParametersTable[1U]);
 80049fa:	990a      	ldr	r1, [sp, #40]	; 0x28
 80049fc:	7852      	ldrb	r2, [r2, #1]
 80049fe:	7809      	ldrb	r1, [r1, #0]
  DSIx->GHCR = (DataType | (ChannelID << 6U) | (Data0 << 8U) | (Data1 << 16U));
 8004a00:	ea43 4302 	orr.w	r3, r3, r2, lsl #16
    DSI_ConfigPacketHeader(hdsi->Instance, ChannelNbr, Mode, ParametersTable[0U], ParametersTable[1U]);
 8004a04:	683a      	ldr	r2, [r7, #0]
  DSIx->GHCR = (DataType | (ChannelID << 6U) | (Data0 << 8U) | (Data1 << 16U));
 8004a06:	ea43 2301 	orr.w	r3, r3, r1, lsl #8
 8004a0a:	f043 0324 	orr.w	r3, r3, #36	; 0x24
 8004a0e:	66d3      	str	r3, [r2, #108]	; 0x6c
}
 8004a10:	e7b7      	b.n	8004982 <HAL_DSI_Read+0x62>
  __HAL_LOCK(hdsi);
 8004a12:	2002      	movs	r0, #2
}
 8004a14:	b002      	add	sp, #8
 8004a16:	e8bd 81f0 	ldmia.w	sp!, {r4, r5, r6, r7, r8, pc}
    DSI_ConfigPacketHeader(hdsi->Instance, ChannelNbr, Mode, ParametersTable[0U], 0U);
 8004a1a:	9a0a      	ldr	r2, [sp, #40]	; 0x28
  DSIx->GHCR = (DataType | (ChannelID << 6U) | (Data0 << 8U) | (Data1 << 16U));
 8004a1c:	ea4f 1388 	mov.w	r3, r8, lsl #6
    DSI_ConfigPacketHeader(hdsi->Instance, ChannelNbr, Mode, ParametersTable[0U], 0U);
 8004a20:	7811      	ldrb	r1, [r2, #0]
 8004a22:	683a      	ldr	r2, [r7, #0]
  DSIx->GHCR = (DataType | (ChannelID << 6U) | (Data0 << 8U) | (Data1 << 16U));
 8004a24:	ea43 2301 	orr.w	r3, r3, r1, lsl #8
 8004a28:	f043 0314 	orr.w	r3, r3, #20
 8004a2c:	66d3      	str	r3, [r2, #108]	; 0x6c
}
 8004a2e:	e7a8      	b.n	8004982 <HAL_DSI_Read+0x62>

08004a30 <HAL_GPIO_Init>:
  * @param  GPIO_Init: pointer to a GPIO_InitTypeDef structure that contains
  *         the configuration information for the specified GPIO peripheral.
  * @retval None
  */
void HAL_GPIO_Init(GPIO_TypeDef  *GPIOx, GPIO_InitTypeDef *GPIO_Init)
{
 8004a30:	e92d 4ff0 	stmdb	sp!, {r4, r5, r6, r7, r8, r9, sl, fp, lr}
  assert_param(IS_GPIO_PIN(GPIO_Init->Pin));
  assert_param(IS_GPIO_MODE(GPIO_Init->Mode));
  assert_param(IS_GPIO_PULL(GPIO_Init->Pull));

  /* Configure the port pins */
  while (((GPIO_Init->Pin) >> position) != 0x00U)
 8004a34:	680e      	ldr	r6, [r1, #0]
{
 8004a36:	b085      	sub	sp, #20
  while (((GPIO_Init->Pin) >> position) != 0x00U)
 8004a38:	2e00      	cmp	r6, #0
 8004a3a:	f000 80d3 	beq.w	8004be4 <HAL_GPIO_Init+0x1b4>
  uint32_t position = 0x00U;
 8004a3e:	2300      	movs	r3, #0
      /*--------------------- EXTI Mode Configuration ------------------------*/
      /* Configure the External Interrupt or event for the current IO */
      if ((GPIO_Init->Mode & EXTI_MODE) == EXTI_MODE)
      {
        /* Enable SYSCFG Clock */
        __HAL_RCC_SYSCFG_CLK_ENABLE();
 8004a40:	f8df a220 	ldr.w	sl, [pc, #544]	; 8004c64 <HAL_GPIO_Init+0x234>
        temp &= ~(0x0FUL << (4U * (position & 0x03U)));
        temp |= (GPIO_GET_INDEX(GPIOx) << (4U * (position & 0x03U)));
        SYSCFG->EXTICR[position >> 2U] = temp;

        /* Clear EXTI line configuration */
        temp = EXTI_CurrentCPU->IMR1;
 8004a44:	f8df b220 	ldr.w	fp, [pc, #544]	; 8004c68 <HAL_GPIO_Init+0x238>
        temp |= (GPIO_GET_INDEX(GPIOx) << (4U * (position & 0x03U)));
 8004a48:	46b1      	mov	r9, r6
 8004a4a:	e020      	b.n	8004a8e <HAL_GPIO_Init+0x5e>
        temp = GPIOx->AFR[position >> 3U];
 8004a4c:	08da      	lsrs	r2, r3, #3
        temp &= ~(0xFU << ((position & 0x07U) * 4U));
 8004a4e:	f003 0c07 	and.w	ip, r3, #7
      temp |= ((GPIO_Init->Mode & GPIO_MODE) << (position * 2U));
 8004a52:	f004 0403 	and.w	r4, r4, #3
        temp &= ~(0xFU << ((position & 0x07U) * 4U));
 8004a56:	f04f 0e0f 	mov.w	lr, #15
 8004a5a:	eb00 0282 	add.w	r2, r0, r2, lsl #2
        temp |= ((GPIO_Init->Alternate) << ((position & 0x07U) * 4U));
 8004a5e:	690e      	ldr	r6, [r1, #16]
        temp &= ~(0xFU << ((position & 0x07U) * 4U));
 8004a60:	ea4f 0c8c 	mov.w	ip, ip, lsl #2
      temp |= ((GPIO_Init->Mode & GPIO_MODE) << (position * 2U));
 8004a64:	fa04 f707 	lsl.w	r7, r4, r7
        temp = GPIOx->AFR[position >> 3U];
 8004a68:	6a14      	ldr	r4, [r2, #32]
        temp &= ~(0xFU << ((position & 0x07U) * 4U));
 8004a6a:	fa0e fe0c 	lsl.w	lr, lr, ip
        temp |= ((GPIO_Init->Alternate) << ((position & 0x07U) * 4U));
 8004a6e:	fa06 f60c 	lsl.w	r6, r6, ip
        temp &= ~(0xFU << ((position & 0x07U) * 4U));
 8004a72:	ea24 0c0e 	bic.w	ip, r4, lr
        temp |= ((GPIO_Init->Alternate) << ((position & 0x07U) * 4U));
 8004a76:	ea46 060c 	orr.w	r6, r6, ip
        GPIOx->AFR[position >> 3U] = temp;
 8004a7a:	6216      	str	r6, [r2, #32]
      temp = GPIOx->MODER;
 8004a7c:	6802      	ldr	r2, [r0, #0]
      temp &= ~(GPIO_MODER_MODE0 << (position * 2U));
 8004a7e:	4015      	ands	r5, r2
      temp |= ((GPIO_Init->Mode & GPIO_MODE) << (position * 2U));
 8004a80:	433d      	orrs	r5, r7
      GPIOx->MODER = temp;
 8004a82:	6005      	str	r5, [r0, #0]
        }
        EXTI->FTSR1 = temp;
      }
    }

    position++;
 8004a84:	3301      	adds	r3, #1
  while (((GPIO_Init->Pin) >> position) != 0x00U)
 8004a86:	fa39 f203 	lsrs.w	r2, r9, r3
 8004a8a:	f000 80ab 	beq.w	8004be4 <HAL_GPIO_Init+0x1b4>
    iocurrent = (GPIO_Init->Pin) & (1UL << position);
 8004a8e:	2201      	movs	r2, #1
 8004a90:	409a      	lsls	r2, r3
    if (iocurrent != 0x00U)
 8004a92:	ea12 0809 	ands.w	r8, r2, r9
 8004a96:	d0f5      	beq.n	8004a84 <HAL_GPIO_Init+0x54>
      if ((GPIO_Init->Mode == GPIO_MODE_OUTPUT_PP) || (GPIO_Init->Mode == GPIO_MODE_AF_PP) ||
 8004a98:	684c      	ldr	r4, [r1, #4]
 8004a9a:	005f      	lsls	r7, r3, #1
 8004a9c:	f024 0c10 	bic.w	ip, r4, #16
 8004aa0:	f10c 35ff 	add.w	r5, ip, #4294967295
          (GPIO_Init->Mode == GPIO_MODE_OUTPUT_OD) || (GPIO_Init->Mode == GPIO_MODE_AF_OD))
 8004aa4:	2d01      	cmp	r5, #1
        temp &= ~(GPIO_OSPEEDR_OSPEED0 << (position * 2U));
 8004aa6:	f04f 0503 	mov.w	r5, #3
          (GPIO_Init->Mode == GPIO_MODE_OUTPUT_OD) || (GPIO_Init->Mode == GPIO_MODE_AF_OD))
 8004aaa:	f200 809e 	bhi.w	8004bea <HAL_GPIO_Init+0x1ba>
        temp |= (((GPIO_Init->Mode & GPIO_OUTPUT_TYPE) >> 4U) << position);
 8004aae:	f3c4 1600 	ubfx	r6, r4, #4, #1
        temp = GPIOx->OSPEEDR;
 8004ab2:	f8d0 e008 	ldr.w	lr, [r0, #8]
        temp &= ~(GPIO_OSPEEDR_OSPEED0 << (position * 2U));
 8004ab6:	40bd      	lsls	r5, r7
        temp |= (((GPIO_Init->Mode & GPIO_OUTPUT_TYPE) >> 4U) << position);
 8004ab8:	409e      	lsls	r6, r3
        temp &= ~(GPIO_OSPEEDR_OSPEED0 << (position * 2U));
 8004aba:	ea2e 0e05 	bic.w	lr, lr, r5
 8004abe:	43ed      	mvns	r5, r5
        temp |= (((GPIO_Init->Mode & GPIO_OUTPUT_TYPE) >> 4U) << position);
 8004ac0:	9601      	str	r6, [sp, #4]
        temp |= (GPIO_Init->Speed << (position * 2U));
 8004ac2:	68ce      	ldr	r6, [r1, #12]
 8004ac4:	40be      	lsls	r6, r7
 8004ac6:	ea46 0e0e 	orr.w	lr, r6, lr
        temp |= (((GPIO_Init->Mode & GPIO_OUTPUT_TYPE) >> 4U) << position);
 8004aca:	9e01      	ldr	r6, [sp, #4]
        GPIOx->OSPEEDR = temp;
 8004acc:	f8c0 e008 	str.w	lr, [r0, #8]
        temp = GPIOx->OTYPER;
 8004ad0:	f8d0 e004 	ldr.w	lr, [r0, #4]
        temp &= ~(GPIO_OTYPER_OT0 << position) ;
 8004ad4:	ea2e 0202 	bic.w	r2, lr, r2
        temp |= (((GPIO_Init->Mode & GPIO_OUTPUT_TYPE) >> 4U) << position);
 8004ad8:	4316      	orrs	r6, r2
        GPIOx->OTYPER = temp;
 8004ada:	6046      	str	r6, [r0, #4]
      temp = GPIOx->PUPDR;
 8004adc:	68c6      	ldr	r6, [r0, #12]
      if ((GPIO_Init->Mode == GPIO_MODE_AF_PP) || (GPIO_Init->Mode == GPIO_MODE_AF_OD))
 8004ade:	f1bc 0f02 	cmp.w	ip, #2
      temp |= ((GPIO_Init->Pull) << (position * 2U));
 8004ae2:	688a      	ldr	r2, [r1, #8]
      temp &= ~(GPIO_PUPDR_PUPD0 << (position * 2U));
 8004ae4:	ea06 0605 	and.w	r6, r6, r5
      temp |= ((GPIO_Init->Pull) << (position * 2U));
 8004ae8:	fa02 f207 	lsl.w	r2, r2, r7
 8004aec:	ea42 0206 	orr.w	r2, r2, r6
      GPIOx->PUPDR = temp;
 8004af0:	60c2      	str	r2, [r0, #12]
      if ((GPIO_Init->Mode == GPIO_MODE_AF_PP) || (GPIO_Init->Mode == GPIO_MODE_AF_OD))
 8004af2:	d0ab      	beq.n	8004a4c <HAL_GPIO_Init+0x1c>
      temp = GPIOx->MODER;
 8004af4:	6806      	ldr	r6, [r0, #0]
      temp |= ((GPIO_Init->Mode & GPIO_MODE) << (position * 2U));
 8004af6:	f004 0203 	and.w	r2, r4, #3
      temp &= ~(GPIO_MODER_MODE0 << (position * 2U));
 8004afa:	402e      	ands	r6, r5
      temp |= ((GPIO_Init->Mode & GPIO_MODE) << (position * 2U));
 8004afc:	fa02 f707 	lsl.w	r7, r2, r7
 8004b00:	433e      	orrs	r6, r7
      GPIOx->MODER = temp;
 8004b02:	6006      	str	r6, [r0, #0]
      if ((GPIO_Init->Mode & EXTI_MODE) == EXTI_MODE)
 8004b04:	00e6      	lsls	r6, r4, #3
 8004b06:	d5bd      	bpl.n	8004a84 <HAL_GPIO_Init+0x54>
        __HAL_RCC_SYSCFG_CLK_ENABLE();
 8004b08:	f8da 60f4 	ldr.w	r6, [sl, #244]	; 0xf4
 8004b0c:	f023 0703 	bic.w	r7, r3, #3
        temp &= ~(0x0FUL << (4U * (position & 0x03U)));
 8004b10:	f003 0203 	and.w	r2, r3, #3
 8004b14:	250f      	movs	r5, #15
        __HAL_RCC_SYSCFG_CLK_ENABLE();
 8004b16:	f046 0602 	orr.w	r6, r6, #2
 8004b1a:	f107 47b0 	add.w	r7, r7, #1476395008	; 0x58000000
        temp &= ~(0x0FUL << (4U * (position & 0x03U)));
 8004b1e:	0092      	lsls	r2, r2, #2
        __HAL_RCC_SYSCFG_CLK_ENABLE();
 8004b20:	f8ca 60f4 	str.w	r6, [sl, #244]	; 0xf4
 8004b24:	f507 6780 	add.w	r7, r7, #1024	; 0x400
 8004b28:	f8da 60f4 	ldr.w	r6, [sl, #244]	; 0xf4
        temp &= ~(0x0FUL << (4U * (position & 0x03U)));
 8004b2c:	fa05 fc02 	lsl.w	ip, r5, r2
        __HAL_RCC_SYSCFG_CLK_ENABLE();
 8004b30:	f006 0602 	and.w	r6, r6, #2
 8004b34:	9603      	str	r6, [sp, #12]
        temp |= (GPIO_GET_INDEX(GPIOx) << (4U * (position & 0x03U)));
 8004b36:	4e42      	ldr	r6, [pc, #264]	; (8004c40 <HAL_GPIO_Init+0x210>)
        __HAL_RCC_SYSCFG_CLK_ENABLE();
 8004b38:	9d03      	ldr	r5, [sp, #12]
        temp |= (GPIO_GET_INDEX(GPIOx) << (4U * (position & 0x03U)));
 8004b3a:	42b0      	cmp	r0, r6
        temp = SYSCFG->EXTICR[position >> 2U];
 8004b3c:	68bd      	ldr	r5, [r7, #8]
        temp &= ~(0x0FUL << (4U * (position & 0x03U)));
 8004b3e:	ea25 050c 	bic.w	r5, r5, ip
        temp |= (GPIO_GET_INDEX(GPIOx) << (4U * (position & 0x03U)));
 8004b42:	d020      	beq.n	8004b86 <HAL_GPIO_Init+0x156>
 8004b44:	f506 6680 	add.w	r6, r6, #1024	; 0x400
 8004b48:	42b0      	cmp	r0, r6
 8004b4a:	d056      	beq.n	8004bfa <HAL_GPIO_Init+0x1ca>
 8004b4c:	4e3d      	ldr	r6, [pc, #244]	; (8004c44 <HAL_GPIO_Init+0x214>)
 8004b4e:	42b0      	cmp	r0, r6
 8004b50:	d058      	beq.n	8004c04 <HAL_GPIO_Init+0x1d4>
 8004b52:	4e3d      	ldr	r6, [pc, #244]	; (8004c48 <HAL_GPIO_Init+0x218>)
 8004b54:	42b0      	cmp	r0, r6
 8004b56:	d04b      	beq.n	8004bf0 <HAL_GPIO_Init+0x1c0>
 8004b58:	4e3c      	ldr	r6, [pc, #240]	; (8004c4c <HAL_GPIO_Init+0x21c>)
 8004b5a:	42b0      	cmp	r0, r6
 8004b5c:	d05c      	beq.n	8004c18 <HAL_GPIO_Init+0x1e8>
 8004b5e:	4e3c      	ldr	r6, [pc, #240]	; (8004c50 <HAL_GPIO_Init+0x220>)
 8004b60:	42b0      	cmp	r0, r6
 8004b62:	d05e      	beq.n	8004c22 <HAL_GPIO_Init+0x1f2>
 8004b64:	4e3b      	ldr	r6, [pc, #236]	; (8004c54 <HAL_GPIO_Init+0x224>)
 8004b66:	42b0      	cmp	r0, r6
 8004b68:	d051      	beq.n	8004c0e <HAL_GPIO_Init+0x1de>
 8004b6a:	4e3b      	ldr	r6, [pc, #236]	; (8004c58 <HAL_GPIO_Init+0x228>)
 8004b6c:	42b0      	cmp	r0, r6
 8004b6e:	d05d      	beq.n	8004c2c <HAL_GPIO_Init+0x1fc>
 8004b70:	4e3a      	ldr	r6, [pc, #232]	; (8004c5c <HAL_GPIO_Init+0x22c>)
 8004b72:	42b0      	cmp	r0, r6
 8004b74:	d05f      	beq.n	8004c36 <HAL_GPIO_Init+0x206>
 8004b76:	4e3a      	ldr	r6, [pc, #232]	; (8004c60 <HAL_GPIO_Init+0x230>)
 8004b78:	42b0      	cmp	r0, r6
 8004b7a:	bf0c      	ite	eq
 8004b7c:	2609      	moveq	r6, #9
 8004b7e:	260a      	movne	r6, #10
 8004b80:	fa06 f202 	lsl.w	r2, r6, r2
 8004b84:	4315      	orrs	r5, r2
        SYSCFG->EXTICR[position >> 2U] = temp;
 8004b86:	60bd      	str	r5, [r7, #8]
        temp &= ~(iocurrent);
 8004b88:	ea6f 0608 	mvn.w	r6, r8
        temp = EXTI_CurrentCPU->IMR1;
 8004b8c:	f8db 2000 	ldr.w	r2, [fp]
        if ((GPIO_Init->Mode & GPIO_MODE_IT) == GPIO_MODE_IT)
 8004b90:	03e5      	lsls	r5, r4, #15
    position++;
 8004b92:	f103 0301 	add.w	r3, r3, #1
        temp &= ~(iocurrent);
 8004b96:	bf54      	ite	pl
 8004b98:	4032      	andpl	r2, r6
          temp |= iocurrent;
 8004b9a:	ea48 0202 	orrmi.w	r2, r8, r2
        EXTI_CurrentCPU->IMR1 = temp;
 8004b9e:	f8cb 2000 	str.w	r2, [fp]
        if ((GPIO_Init->Mode & GPIO_MODE_EVT) == GPIO_MODE_EVT)
 8004ba2:	03a2      	lsls	r2, r4, #14
        temp = EXTI_CurrentCPU->EMR1;
 8004ba4:	f8db 5004 	ldr.w	r5, [fp, #4]
        temp = EXTI->RTSR1;
 8004ba8:	f04f 42b0 	mov.w	r2, #1476395008	; 0x58000000
        temp &= ~(iocurrent);
 8004bac:	bf54      	ite	pl
 8004bae:	4035      	andpl	r5, r6
          temp |= iocurrent;
 8004bb0:	ea48 0505 	orrmi.w	r5, r8, r5
        if ((GPIO_Init->Mode & RISING_EDGE) == RISING_EDGE)
 8004bb4:	02e7      	lsls	r7, r4, #11
        EXTI_CurrentCPU->EMR1 = temp;
 8004bb6:	f8cb 5004 	str.w	r5, [fp, #4]
        temp = EXTI->RTSR1;
 8004bba:	6815      	ldr	r5, [r2, #0]
        EXTI->RTSR1 = temp;
 8004bbc:	f04f 42b0 	mov.w	r2, #1476395008	; 0x58000000
        temp &= ~(iocurrent);
 8004bc0:	bf54      	ite	pl
 8004bc2:	4035      	andpl	r5, r6
          temp |= iocurrent;
 8004bc4:	ea48 0505 	orrmi.w	r5, r8, r5
        if ((GPIO_Init->Mode & FALLING_EDGE) == FALLING_EDGE)
 8004bc8:	02a4      	lsls	r4, r4, #10
        EXTI->FTSR1 = temp;
 8004bca:	f04f 44b0 	mov.w	r4, #1476395008	; 0x58000000
        EXTI->RTSR1 = temp;
 8004bce:	6015      	str	r5, [r2, #0]
        temp = EXTI->FTSR1;
 8004bd0:	6852      	ldr	r2, [r2, #4]
        temp &= ~(iocurrent);
 8004bd2:	bf54      	ite	pl
 8004bd4:	4032      	andpl	r2, r6
          temp |= iocurrent;
 8004bd6:	ea48 0202 	orrmi.w	r2, r8, r2
        EXTI->FTSR1 = temp;
 8004bda:	6062      	str	r2, [r4, #4]
  while (((GPIO_Init->Pin) >> position) != 0x00U)
 8004bdc:	fa39 f203 	lsrs.w	r2, r9, r3
 8004be0:	f47f af55 	bne.w	8004a8e <HAL_GPIO_Init+0x5e>
  }
}
 8004be4:	b005      	add	sp, #20
 8004be6:	e8bd 8ff0 	ldmia.w	sp!, {r4, r5, r6, r7, r8, r9, sl, fp, pc}
 8004bea:	40bd      	lsls	r5, r7
 8004bec:	43ed      	mvns	r5, r5
 8004bee:	e775      	b.n	8004adc <HAL_GPIO_Init+0xac>
 8004bf0:	2603      	movs	r6, #3
 8004bf2:	fa06 f202 	lsl.w	r2, r6, r2
 8004bf6:	4315      	orrs	r5, r2
 8004bf8:	e7c5      	b.n	8004b86 <HAL_GPIO_Init+0x156>
 8004bfa:	2601      	movs	r6, #1
 8004bfc:	fa06 f202 	lsl.w	r2, r6, r2
 8004c00:	4315      	orrs	r5, r2
 8004c02:	e7c0      	b.n	8004b86 <HAL_GPIO_Init+0x156>
 8004c04:	2602      	movs	r6, #2
 8004c06:	fa06 f202 	lsl.w	r2, r6, r2
 8004c0a:	4315      	orrs	r5, r2
 8004c0c:	e7bb      	b.n	8004b86 <HAL_GPIO_Init+0x156>
 8004c0e:	2606      	movs	r6, #6
 8004c10:	fa06 f202 	lsl.w	r2, r6, r2
 8004c14:	4315      	orrs	r5, r2
 8004c16:	e7b6      	b.n	8004b86 <HAL_GPIO_Init+0x156>
 8004c18:	2604      	movs	r6, #4
 8004c1a:	fa06 f202 	lsl.w	r2, r6, r2
 8004c1e:	4315      	orrs	r5, r2
 8004c20:	e7b1      	b.n	8004b86 <HAL_GPIO_Init+0x156>
 8004c22:	2605      	movs	r6, #5
 8004c24:	fa06 f202 	lsl.w	r2, r6, r2
 8004c28:	4315      	orrs	r5, r2
 8004c2a:	e7ac      	b.n	8004b86 <HAL_GPIO_Init+0x156>
 8004c2c:	2607      	movs	r6, #7
 8004c2e:	fa06 f202 	lsl.w	r2, r6, r2
 8004c32:	4315      	orrs	r5, r2
 8004c34:	e7a7      	b.n	8004b86 <HAL_GPIO_Init+0x156>
 8004c36:	2608      	movs	r6, #8
 8004c38:	fa06 f202 	lsl.w	r2, r6, r2
 8004c3c:	4315      	orrs	r5, r2
 8004c3e:	e7a2      	b.n	8004b86 <HAL_GPIO_Init+0x156>
 8004c40:	58020000 	.word	0x58020000
 8004c44:	58020800 	.word	0x58020800
 8004c48:	58020c00 	.word	0x58020c00
 8004c4c:	58021000 	.word	0x58021000
 8004c50:	58021400 	.word	0x58021400
 8004c54:	58021800 	.word	0x58021800
 8004c58:	58021c00 	.word	0x58021c00
 8004c5c:	58022000 	.word	0x58022000
 8004c60:	58022400 	.word	0x58022400
 8004c64:	58024400 	.word	0x58024400
 8004c68:	58000080 	.word	0x58000080

08004c6c <HAL_GPIO_ReadPin>:
  GPIO_PinState bitstatus;

  /* Check the parameters */
  assert_param(IS_GPIO_PIN(GPIO_Pin));

  if ((GPIOx->IDR & GPIO_Pin) != 0x00U)
 8004c6c:	6903      	ldr	r3, [r0, #16]
 8004c6e:	4219      	tst	r1, r3
  else
  {
    bitstatus = GPIO_PIN_RESET;
  }
  return bitstatus;
}
 8004c70:	bf14      	ite	ne
 8004c72:	2001      	movne	r0, #1
 8004c74:	2000      	moveq	r0, #0
 8004c76:	4770      	bx	lr

08004c78 <HAL_GPIO_WritePin>:
{
  /* Check the parameters */
  assert_param(IS_GPIO_PIN(GPIO_Pin));
  assert_param(IS_GPIO_PIN_ACTION(PinState));

  if (PinState != GPIO_PIN_RESET)
 8004c78:	b902      	cbnz	r2, 8004c7c <HAL_GPIO_WritePin+0x4>
  {
    GPIOx->BSRR = GPIO_Pin;
  }
  else
  {
    GPIOx->BSRR = (uint32_t)GPIO_Pin << GPIO_NUMBER;
 8004c7a:	0409      	lsls	r1, r1, #16
 8004c7c:	6181      	str	r1, [r0, #24]
  }
}
 8004c7e:	4770      	bx	lr

08004c80 <HAL_GPIO_TogglePin>:

  /* Check the parameters */
  assert_param(IS_GPIO_PIN(GPIO_Pin));

  /* get current Output Data Register value */
  odr = GPIOx->ODR;
 8004c80:	6943      	ldr	r3, [r0, #20]

  /* Set selected pins that were at low level, and reset ones that were high */
  GPIOx->BSRR = ((odr & GPIO_Pin) << GPIO_NUMBER) | (~odr & GPIO_Pin);
 8004c82:	ea01 0203 	and.w	r2, r1, r3
 8004c86:	ea21 0103 	bic.w	r1, r1, r3
 8004c8a:	ea41 4102 	orr.w	r1, r1, r2, lsl #16
 8004c8e:	6181      	str	r1, [r0, #24]
}
 8004c90:	4770      	bx	lr
 8004c92:	bf00      	nop

08004c94 <HAL_HSEM_FastTake>:
    /*take success when MasterID match and take bit set*/
    return HAL_OK;
  }
#else
  /* Read the RLR register to take the semaphore */
  if (HSEM->RLR[SemID] == (HSEM_CR_COREID_CURRENT | HSEM_RLR_LOCK))
 8004c94:	4a04      	ldr	r2, [pc, #16]	; (8004ca8 <HAL_HSEM_FastTake+0x14>)
 8004c96:	3020      	adds	r0, #32
 8004c98:	4b04      	ldr	r3, [pc, #16]	; (8004cac <HAL_HSEM_FastTake+0x18>)
 8004c9a:	f852 0020 	ldr.w	r0, [r2, r0, lsl #2]
  }
#endif

  /* Semaphore take fails */
  return HAL_ERROR;
}
 8004c9e:	1ac0      	subs	r0, r0, r3
 8004ca0:	bf18      	it	ne
 8004ca2:	2001      	movne	r0, #1
 8004ca4:	4770      	bx	lr
 8004ca6:	bf00      	nop
 8004ca8:	58026400 	.word	0x58026400
 8004cac:	80000300 	.word	0x80000300

08004cb0 <HAL_HSEM_Release>:

  /* Clear the semaphore by writing to the R register : the MasterID , the processID and take bit = 0  */
#if  USE_MULTI_CORE_SHARED_CODE != 0U
  HSEM->R[SemID] = (ProcessID | ((HAL_GetCurrentCPUID() << POSITION_VAL(HSEM_R_MASTERID)) & HSEM_R_MASTERID));
#else
  HSEM->R[SemID] = (ProcessID | HSEM_CR_COREID_CURRENT);
 8004cb0:	4b02      	ldr	r3, [pc, #8]	; (8004cbc <HAL_HSEM_Release+0xc>)
 8004cb2:	f441 7140 	orr.w	r1, r1, #768	; 0x300
 8004cb6:	f843 1020 	str.w	r1, [r3, r0, lsl #2]
#endif

}
 8004cba:	4770      	bx	lr
 8004cbc:	58026400 	.word	0x58026400

08004cc0 <LTDC_SetConfig>:
  uint32_t tmp1;
  uint32_t tmp2;

  /* Configure the horizontal start and stop position */
  tmp = ((pLayerCfg->WindowX1 + ((hltdc->Instance->BPCR & LTDC_BPCR_AHBP) >> 16U)) << 16U);
  LTDC_LAYER(hltdc, LayerIdx)->WHPCR &= ~(LTDC_LxWHPCR_WHSTPOS | LTDC_LxWHPCR_WHSPPOS);
 8004cc0:	01d2      	lsls	r2, r2, #7

  /* Configure the default color values */
  tmp = ((uint32_t)(pLayerCfg->Backcolor.Green) << 8U);
  tmp1 = ((uint32_t)(pLayerCfg->Backcolor.Red) << 16U);
  tmp2 = (pLayerCfg->Alpha0 << 24U);
  LTDC_LAYER(hltdc, LayerIdx)->DCCR &= ~(LTDC_LxDCCR_DCBLUE | LTDC_LxDCCR_DCGREEN | LTDC_LxDCCR_DCRED | LTDC_LxDCCR_DCALPHA);
 8004cc2:	f04f 0c00 	mov.w	ip, #0
{
 8004cc6:	e92d 4ff0 	stmdb	sp!, {r4, r5, r6, r7, r8, r9, sl, fp, lr}
  LTDC_LAYER(hltdc, LayerIdx)->WHPCR &= ~(LTDC_LxWHPCR_WHSTPOS | LTDC_LxWHPCR_WHSPPOS);
 8004cca:	3284      	adds	r2, #132	; 0x84
  tmp = ((pLayerCfg->WindowX1 + ((hltdc->Instance->BPCR & LTDC_BPCR_AHBP) >> 16U)) << 16U);
 8004ccc:	6804      	ldr	r4, [r0, #0]
 8004cce:	6848      	ldr	r0, [r1, #4]
{
 8004cd0:	b083      	sub	sp, #12
  LTDC_LAYER(hltdc, LayerIdx)->WHPCR &= ~(LTDC_LxWHPCR_WHSTPOS | LTDC_LxWHPCR_WHSPPOS);
 8004cd2:	18a3      	adds	r3, r4, r2
  tmp = ((pLayerCfg->WindowX1 + ((hltdc->Instance->BPCR & LTDC_BPCR_AHBP) >> 16U)) << 16U);
 8004cd4:	68e5      	ldr	r5, [r4, #12]
  tmp = ((pLayerCfg->WindowY1 + (hltdc->Instance->BPCR & LTDC_BPCR_AVBP)) << 16U);
 8004cd6:	f8d1 800c 	ldr.w	r8, [r1, #12]
  LTDC_LAYER(hltdc, LayerIdx)->WHPCR &= ~(LTDC_LxWHPCR_WHSTPOS | LTDC_LxWHPCR_WHSPPOS);
 8004cda:	f8d3 e004 	ldr.w	lr, [r3, #4]
  tmp = ((pLayerCfg->WindowX1 + ((hltdc->Instance->BPCR & LTDC_BPCR_AHBP) >> 16U)) << 16U);
 8004cde:	f3c5 450b 	ubfx	r5, r5, #16, #12
  LTDC_LAYER(hltdc, LayerIdx)->WHPCR = ((pLayerCfg->WindowX0 + ((hltdc->Instance->BPCR & LTDC_BPCR_AHBP) >> 16U) + 1U) | tmp);
 8004ce2:	680e      	ldr	r6, [r1, #0]
  tmp = ((pLayerCfg->WindowX1 + ((hltdc->Instance->BPCR & LTDC_BPCR_AHBP) >> 16U)) << 16U);
 8004ce4:	eb05 0a00 	add.w	sl, r5, r0
  LTDC_LAYER(hltdc, LayerIdx)->WHPCR &= ~(LTDC_LxWHPCR_WHSTPOS | LTDC_LxWHPCR_WHSPPOS);
 8004ce8:	f40e 4570 	and.w	r5, lr, #61440	; 0xf000
  tmp = ((pLayerCfg->WindowX1 + ((hltdc->Instance->BPCR & LTDC_BPCR_AHBP) >> 16U)) << 16U);
 8004cec:	9001      	str	r0, [sp, #4]
  LTDC_LAYER(hltdc, LayerIdx)->WHPCR = ((pLayerCfg->WindowX0 + ((hltdc->Instance->BPCR & LTDC_BPCR_AHBP) >> 16U) + 1U) | tmp);
 8004cee:	f106 0b01 	add.w	fp, r6, #1
  LTDC_LAYER(hltdc, LayerIdx)->WVPCR  = ((pLayerCfg->WindowY0 + (hltdc->Instance->BPCR & LTDC_BPCR_AVBP) + 1U) | tmp);
 8004cf2:	6888      	ldr	r0, [r1, #8]
  LTDC_LAYER(hltdc, LayerIdx)->WHPCR &= ~(LTDC_LxWHPCR_WHSTPOS | LTDC_LxWHPCR_WHSPPOS);
 8004cf4:	605d      	str	r5, [r3, #4]
  LTDC_LAYER(hltdc, LayerIdx)->WHPCR = ((pLayerCfg->WindowX0 + ((hltdc->Instance->BPCR & LTDC_BPCR_AHBP) >> 16U) + 1U) | tmp);
 8004cf6:	68e5      	ldr	r5, [r4, #12]
  LTDC_LAYER(hltdc, LayerIdx)->WVPCR  = ((pLayerCfg->WindowY0 + (hltdc->Instance->BPCR & LTDC_BPCR_AVBP) + 1U) | tmp);
 8004cf8:	f100 0901 	add.w	r9, r0, #1
  LTDC_LAYER(hltdc, LayerIdx)->PFCR = (pLayerCfg->PixelFormat);
 8004cfc:	f8d1 e010 	ldr.w	lr, [r1, #16]
  LTDC_LAYER(hltdc, LayerIdx)->WHPCR = ((pLayerCfg->WindowX0 + ((hltdc->Instance->BPCR & LTDC_BPCR_AHBP) >> 16U) + 1U) | tmp);
 8004d00:	f3c5 450b 	ubfx	r5, r5, #16, #12
  /* Specifies the constant alpha value */
  LTDC_LAYER(hltdc, LayerIdx)->CACR &= ~(LTDC_LxCACR_CONSTA);
  LTDC_LAYER(hltdc, LayerIdx)->CACR = (pLayerCfg->Alpha);

  /* Specifies the blending factors */
  LTDC_LAYER(hltdc, LayerIdx)->BFCR &= ~(LTDC_LxBFCR_BF2 | LTDC_LxBFCR_BF1);
 8004d04:	4f38      	ldr	r7, [pc, #224]	; (8004de8 <LTDC_SetConfig+0x128>)
  LTDC_LAYER(hltdc, LayerIdx)->WHPCR = ((pLayerCfg->WindowX0 + ((hltdc->Instance->BPCR & LTDC_BPCR_AHBP) >> 16U) + 1U) | tmp);
 8004d06:	445d      	add	r5, fp
  tmp2 = (pLayerCfg->Alpha0 << 24U);
 8004d08:	f8d1 b018 	ldr.w	fp, [r1, #24]
  LTDC_LAYER(hltdc, LayerIdx)->WHPCR = ((pLayerCfg->WindowX0 + ((hltdc->Instance->BPCR & LTDC_BPCR_AHBP) >> 16U) + 1U) | tmp);
 8004d0c:	ea45 450a 	orr.w	r5, r5, sl, lsl #16
 8004d10:	605d      	str	r5, [r3, #4]
  tmp = ((pLayerCfg->WindowY1 + (hltdc->Instance->BPCR & LTDC_BPCR_AVBP)) << 16U);
 8004d12:	f8d4 a00c 	ldr.w	sl, [r4, #12]
  LTDC_LAYER(hltdc, LayerIdx)->WVPCR &= ~(LTDC_LxWVPCR_WVSTPOS | LTDC_LxWVPCR_WVSPPOS);
 8004d16:	689d      	ldr	r5, [r3, #8]
  tmp = ((pLayerCfg->WindowY1 + (hltdc->Instance->BPCR & LTDC_BPCR_AVBP)) << 16U);
 8004d18:	f3ca 0a0a 	ubfx	sl, sl, #0, #11
  LTDC_LAYER(hltdc, LayerIdx)->WVPCR &= ~(LTDC_LxWVPCR_WVSTPOS | LTDC_LxWVPCR_WVSPPOS);
 8004d1c:	f405 4570 	and.w	r5, r5, #61440	; 0xf000
  tmp = ((pLayerCfg->WindowY1 + (hltdc->Instance->BPCR & LTDC_BPCR_AVBP)) << 16U);
 8004d20:	44c2      	add	sl, r8
  LTDC_LAYER(hltdc, LayerIdx)->CACR = (pLayerCfg->Alpha);
 8004d22:	f8d1 8014 	ldr.w	r8, [r1, #20]
  LTDC_LAYER(hltdc, LayerIdx)->WVPCR &= ~(LTDC_LxWVPCR_WVSTPOS | LTDC_LxWVPCR_WVSPPOS);
 8004d26:	609d      	str	r5, [r3, #8]
  LTDC_LAYER(hltdc, LayerIdx)->WVPCR  = ((pLayerCfg->WindowY0 + (hltdc->Instance->BPCR & LTDC_BPCR_AVBP) + 1U) | tmp);
 8004d28:	68e5      	ldr	r5, [r4, #12]
 8004d2a:	f3c5 050a 	ubfx	r5, r5, #0, #11
 8004d2e:	444d      	add	r5, r9
 8004d30:	ea45 450a 	orr.w	r5, r5, sl, lsl #16
 8004d34:	609d      	str	r5, [r3, #8]
  LTDC_LAYER(hltdc, LayerIdx)->PFCR &= ~(LTDC_LxPFCR_PF);
 8004d36:	691d      	ldr	r5, [r3, #16]
 8004d38:	f025 0507 	bic.w	r5, r5, #7
 8004d3c:	611d      	str	r5, [r3, #16]
  LTDC_LAYER(hltdc, LayerIdx)->PFCR = (pLayerCfg->PixelFormat);
 8004d3e:	f8c3 e010 	str.w	lr, [r3, #16]
  LTDC_LAYER(hltdc, LayerIdx)->DCCR &= ~(LTDC_LxDCCR_DCBLUE | LTDC_LxDCCR_DCGREEN | LTDC_LxDCCR_DCRED | LTDC_LxDCCR_DCALPHA);
 8004d42:	699d      	ldr	r5, [r3, #24]
  tmp = ((uint32_t)(pLayerCfg->Backcolor.Green) << 8U);
 8004d44:	f891 a031 	ldrb.w	sl, [r1, #49]	; 0x31
  tmp1 = ((uint32_t)(pLayerCfg->Backcolor.Red) << 16U);
 8004d48:	f891 9032 	ldrb.w	r9, [r1, #50]	; 0x32
  LTDC_LAYER(hltdc, LayerIdx)->DCCR &= ~(LTDC_LxDCCR_DCBLUE | LTDC_LxDCCR_DCGREEN | LTDC_LxDCCR_DCRED | LTDC_LxDCCR_DCALPHA);
 8004d4c:	f8c3 c018 	str.w	ip, [r3, #24]
  LTDC_LAYER(hltdc, LayerIdx)->DCCR = (pLayerCfg->Backcolor.Blue | tmp | tmp1 | tmp2);
 8004d50:	f891 5030 	ldrb.w	r5, [r1, #48]	; 0x30
 8004d54:	ea45 650b 	orr.w	r5, r5, fp, lsl #24
 8004d58:	ea45 250a 	orr.w	r5, r5, sl, lsl #8
 8004d5c:	ea45 4509 	orr.w	r5, r5, r9, lsl #16
 8004d60:	619d      	str	r5, [r3, #24]
  LTDC_LAYER(hltdc, LayerIdx)->CACR &= ~(LTDC_LxCACR_CONSTA);
 8004d62:	695d      	ldr	r5, [r3, #20]
 8004d64:	f025 05ff 	bic.w	r5, r5, #255	; 0xff
 8004d68:	615d      	str	r5, [r3, #20]
  LTDC_LAYER(hltdc, LayerIdx)->CACR = (pLayerCfg->Alpha);
 8004d6a:	f8c3 8014 	str.w	r8, [r3, #20]
  LTDC_LAYER(hltdc, LayerIdx)->BFCR &= ~(LTDC_LxBFCR_BF2 | LTDC_LxBFCR_BF1);
 8004d6e:	69dd      	ldr	r5, [r3, #28]
 8004d70:	402f      	ands	r7, r5
  LTDC_LAYER(hltdc, LayerIdx)->BFCR = (pLayerCfg->BlendingFactor1 | pLayerCfg->BlendingFactor2);
 8004d72:	69cd      	ldr	r5, [r1, #28]
  LTDC_LAYER(hltdc, LayerIdx)->BFCR &= ~(LTDC_LxBFCR_BF2 | LTDC_LxBFCR_BF1);
 8004d74:	61df      	str	r7, [r3, #28]
  LTDC_LAYER(hltdc, LayerIdx)->BFCR = (pLayerCfg->BlendingFactor1 | pLayerCfg->BlendingFactor2);
 8004d76:	e9d1 0708 	ldrd	r0, r7, [r1, #32]
 8004d7a:	4305      	orrs	r5, r0
 8004d7c:	61dd      	str	r5, [r3, #28]

  /* Configure the color frame buffer start address */
  LTDC_LAYER(hltdc, LayerIdx)->CFBAR &= ~(LTDC_LxCFBAR_CFBADD);
 8004d7e:	6a9d      	ldr	r5, [r3, #40]	; 0x28
 8004d80:	f8c3 c028 	str.w	ip, [r3, #40]	; 0x28
  LTDC_LAYER(hltdc, LayerIdx)->CFBAR = (pLayerCfg->FBStartAdress);
 8004d84:	629f      	str	r7, [r3, #40]	; 0x28

  if (pLayerCfg->PixelFormat == LTDC_PIXEL_FORMAT_ARGB8888)
 8004d86:	f1be 0f00 	cmp.w	lr, #0
 8004d8a:	d00b      	beq.n	8004da4 <LTDC_SetConfig+0xe4>
  {
    tmp = 4U;
  }
  else if (pLayerCfg->PixelFormat == LTDC_PIXEL_FORMAT_RGB888)
 8004d8c:	f1be 0f01 	cmp.w	lr, #1
 8004d90:	d026      	beq.n	8004de0 <LTDC_SetConfig+0x120>
  {
    tmp = 3U;
  }
  else if ((pLayerCfg->PixelFormat == LTDC_PIXEL_FORMAT_ARGB4444) || \
 8004d92:	f1ae 0502 	sub.w	r5, lr, #2
           (pLayerCfg->PixelFormat == LTDC_PIXEL_FORMAT_RGB565)   || \
           (pLayerCfg->PixelFormat == LTDC_PIXEL_FORMAT_ARGB1555) || \
 8004d96:	2d02      	cmp	r5, #2
 8004d98:	d902      	bls.n	8004da0 <LTDC_SetConfig+0xe0>
 8004d9a:	f1be 0f07 	cmp.w	lr, #7
 8004d9e:	d121      	bne.n	8004de4 <LTDC_SetConfig+0x124>
           (pLayerCfg->PixelFormat == LTDC_PIXEL_FORMAT_AL88))
  {
    tmp = 2U;
 8004da0:	2702      	movs	r7, #2
 8004da2:	e000      	b.n	8004da6 <LTDC_SetConfig+0xe6>
    tmp = 4U;
 8004da4:	2704      	movs	r7, #4
    tmp = 1U;
  }

  /* Configure the color frame buffer pitch in byte */
  LTDC_LAYER(hltdc, LayerIdx)->CFBLR  &= ~(LTDC_LxCFBLR_CFBLL | LTDC_LxCFBLR_CFBP);
  LTDC_LAYER(hltdc, LayerIdx)->CFBLR  = (((pLayerCfg->ImageWidth * tmp) << 16U) | (((pLayerCfg->WindowX1 - pLayerCfg->WindowX0) * tmp)  + 7U));
 8004da6:	9801      	ldr	r0, [sp, #4]
  LTDC_LAYER(hltdc, LayerIdx)->CFBLR  &= ~(LTDC_LxCFBLR_CFBLL | LTDC_LxCFBLR_CFBP);
 8004da8:	6add      	ldr	r5, [r3, #44]	; 0x2c
  LTDC_LAYER(hltdc, LayerIdx)->CFBLR  = (((pLayerCfg->ImageWidth * tmp) << 16U) | (((pLayerCfg->WindowX1 - pLayerCfg->WindowX0) * tmp)  + 7U));
 8004daa:	1b80      	subs	r0, r0, r6
  LTDC_LAYER(hltdc, LayerIdx)->CFBLR  &= ~(LTDC_LxCFBLR_CFBLL | LTDC_LxCFBLR_CFBP);
 8004dac:	f005 25e0 	and.w	r5, r5, #3758153728	; 0xe000e000
  LTDC_LAYER(hltdc, LayerIdx)->CFBLR  = (((pLayerCfg->ImageWidth * tmp) << 16U) | (((pLayerCfg->WindowX1 - pLayerCfg->WindowX0) * tmp)  + 7U));
 8004db0:	fb07 f000 	mul.w	r0, r7, r0
  /* Configure the frame buffer line number */
  LTDC_LAYER(hltdc, LayerIdx)->CFBLNR  &= ~(LTDC_LxCFBLNR_CFBLNBR);
  LTDC_LAYER(hltdc, LayerIdx)->CFBLNR  = (pLayerCfg->ImageHeight);
 8004db4:	e9d1 6c0a 	ldrd	r6, ip, [r1, #40]	; 0x28
  LTDC_LAYER(hltdc, LayerIdx)->CFBLR  = (((pLayerCfg->ImageWidth * tmp) << 16U) | (((pLayerCfg->WindowX1 - pLayerCfg->WindowX0) * tmp)  + 7U));
 8004db8:	3007      	adds	r0, #7
  LTDC_LAYER(hltdc, LayerIdx)->CFBLR  &= ~(LTDC_LxCFBLR_CFBLL | LTDC_LxCFBLR_CFBP);
 8004dba:	62dd      	str	r5, [r3, #44]	; 0x2c
  LTDC_LAYER(hltdc, LayerIdx)->CFBLR  = (((pLayerCfg->ImageWidth * tmp) << 16U) | (((pLayerCfg->WindowX1 - pLayerCfg->WindowX0) * tmp)  + 7U));
 8004dbc:	fb06 f607 	mul.w	r6, r6, r7
  LTDC_LAYER(hltdc, LayerIdx)->CFBLNR  &= ~(LTDC_LxCFBLNR_CFBLNBR);
 8004dc0:	490a      	ldr	r1, [pc, #40]	; (8004dec <LTDC_SetConfig+0x12c>)
  LTDC_LAYER(hltdc, LayerIdx)->CFBLR  = (((pLayerCfg->ImageWidth * tmp) << 16U) | (((pLayerCfg->WindowX1 - pLayerCfg->WindowX0) * tmp)  + 7U));
 8004dc2:	ea40 4006 	orr.w	r0, r0, r6, lsl #16
 8004dc6:	62d8      	str	r0, [r3, #44]	; 0x2c
  LTDC_LAYER(hltdc, LayerIdx)->CFBLNR  &= ~(LTDC_LxCFBLNR_CFBLNBR);
 8004dc8:	6b18      	ldr	r0, [r3, #48]	; 0x30
 8004dca:	4001      	ands	r1, r0
 8004dcc:	6319      	str	r1, [r3, #48]	; 0x30
  LTDC_LAYER(hltdc, LayerIdx)->CFBLNR  = (pLayerCfg->ImageHeight);
 8004dce:	f8c3 c030 	str.w	ip, [r3, #48]	; 0x30

  /* Enable LTDC_Layer by setting LEN bit */
  LTDC_LAYER(hltdc, LayerIdx)->CR |= (uint32_t)LTDC_LxCR_LEN;
 8004dd2:	58a3      	ldr	r3, [r4, r2]
 8004dd4:	f043 0301 	orr.w	r3, r3, #1
 8004dd8:	50a3      	str	r3, [r4, r2]
}
 8004dda:	b003      	add	sp, #12
 8004ddc:	e8bd 8ff0 	ldmia.w	sp!, {r4, r5, r6, r7, r8, r9, sl, fp, pc}
    tmp = 3U;
 8004de0:	2703      	movs	r7, #3
 8004de2:	e7e0      	b.n	8004da6 <LTDC_SetConfig+0xe6>
    tmp = 1U;
 8004de4:	2701      	movs	r7, #1
 8004de6:	e7de      	b.n	8004da6 <LTDC_SetConfig+0xe6>
 8004de8:	fffff8f8 	.word	0xfffff8f8
 8004dec:	fffff800 	.word	0xfffff800

08004df0 <HAL_LTDC_MspInit>:
}
 8004df0:	4770      	bx	lr
 8004df2:	bf00      	nop

08004df4 <HAL_LTDC_Init>:
  if (hltdc == NULL)
 8004df4:	2800      	cmp	r0, #0
 8004df6:	d06d      	beq.n	8004ed4 <HAL_LTDC_Init+0xe0>
{
 8004df8:	b5f8      	push	{r3, r4, r5, r6, r7, lr}
  if (hltdc->State == HAL_LTDC_STATE_RESET)
 8004dfa:	f890 30a1 	ldrb.w	r3, [r0, #161]	; 0xa1
 8004dfe:	4604      	mov	r4, r0
 8004e00:	f003 02ff 	and.w	r2, r3, #255	; 0xff
 8004e04:	2b00      	cmp	r3, #0
 8004e06:	d060      	beq.n	8004eca <HAL_LTDC_Init+0xd6>
  hltdc->Instance->GCR |= (uint32_t)(hltdc->Init.HSPolarity | hltdc->Init.VSPolarity | \
 8004e08:	68a0      	ldr	r0, [r4, #8]
  hltdc->State = HAL_LTDC_STATE_BUSY;
 8004e0a:	2502      	movs	r5, #2
  hltdc->Instance->GCR |= (uint32_t)(hltdc->Init.HSPolarity | hltdc->Init.VSPolarity | \
 8004e0c:	68e6      	ldr	r6, [r4, #12]
  hltdc->ErrorCode = HAL_LTDC_ERROR_NONE;
 8004e0e:	2100      	movs	r1, #0
  hltdc->State = HAL_LTDC_STATE_BUSY;
 8004e10:	f884 50a1 	strb.w	r5, [r4, #161]	; 0xa1
                                     hltdc->Init.DEPolarity | hltdc->Init.PCPolarity);
 8004e14:	6925      	ldr	r5, [r4, #16]
  tmp = (hltdc->Init.HorizontalSync << 16U);
 8004e16:	6967      	ldr	r7, [r4, #20]
  hltdc->Instance->SSCR |= (tmp | hltdc->Init.VerticalSync);
 8004e18:	f8d4 c018 	ldr.w	ip, [r4, #24]
  hltdc->Instance->GCR |= (uint32_t)(hltdc->Init.HSPolarity | hltdc->Init.VSPolarity | \
 8004e1c:	e9d4 3200 	ldrd	r3, r2, [r4]
 8004e20:	4302      	orrs	r2, r0
  hltdc->Instance->GCR &= ~(LTDC_GCR_HSPOL | LTDC_GCR_VSPOL | LTDC_GCR_DEPOL | LTDC_GCR_PCPOL);
 8004e22:	6998      	ldr	r0, [r3, #24]
  hltdc->Instance->GCR |= (uint32_t)(hltdc->Init.HSPolarity | hltdc->Init.VSPolarity | \
 8004e24:	4332      	orrs	r2, r6
  hltdc->Instance->GCR &= ~(LTDC_GCR_HSPOL | LTDC_GCR_VSPOL | LTDC_GCR_DEPOL | LTDC_GCR_PCPOL);
 8004e26:	f020 4070 	bic.w	r0, r0, #4026531840	; 0xf0000000
  hltdc->Instance->SSCR &= ~(LTDC_SSCR_VSH | LTDC_SSCR_HSW);
 8004e2a:	4e2b      	ldr	r6, [pc, #172]	; (8004ed8 <HAL_LTDC_Init+0xe4>)
  hltdc->Instance->GCR &= ~(LTDC_GCR_HSPOL | LTDC_GCR_VSPOL | LTDC_GCR_DEPOL | LTDC_GCR_PCPOL);
 8004e2c:	6198      	str	r0, [r3, #24]
                                     hltdc->Init.DEPolarity | hltdc->Init.PCPolarity);
 8004e2e:	432a      	orrs	r2, r5
  hltdc->Instance->GCR |= (uint32_t)(hltdc->Init.HSPolarity | hltdc->Init.VSPolarity | \
 8004e30:	6998      	ldr	r0, [r3, #24]
  hltdc->State = HAL_LTDC_STATE_READY;
 8004e32:	2501      	movs	r5, #1
  hltdc->Instance->GCR |= (uint32_t)(hltdc->Init.HSPolarity | hltdc->Init.VSPolarity | \
 8004e34:	4302      	orrs	r2, r0
 8004e36:	619a      	str	r2, [r3, #24]
  hltdc->Instance->SSCR &= ~(LTDC_SSCR_VSH | LTDC_SSCR_HSW);
 8004e38:	689a      	ldr	r2, [r3, #8]
 8004e3a:	4032      	ands	r2, r6
 8004e3c:	609a      	str	r2, [r3, #8]
  hltdc->Instance->SSCR |= (tmp | hltdc->Init.VerticalSync);
 8004e3e:	6898      	ldr	r0, [r3, #8]
 8004e40:	ea40 4007 	orr.w	r0, r0, r7, lsl #16
  tmp = (hltdc->Init.AccumulatedHBP << 16U);
 8004e44:	69e7      	ldr	r7, [r4, #28]
  hltdc->Instance->SSCR |= (tmp | hltdc->Init.VerticalSync);
 8004e46:	ea40 000c 	orr.w	r0, r0, ip
  hltdc->Instance->BPCR |= (tmp | hltdc->Init.AccumulatedVBP);
 8004e4a:	f8d4 c020 	ldr.w	ip, [r4, #32]
  hltdc->Instance->SSCR |= (tmp | hltdc->Init.VerticalSync);
 8004e4e:	6098      	str	r0, [r3, #8]
  hltdc->Instance->BPCR &= ~(LTDC_BPCR_AVBP | LTDC_BPCR_AHBP);
 8004e50:	68d8      	ldr	r0, [r3, #12]
 8004e52:	4030      	ands	r0, r6
 8004e54:	60d8      	str	r0, [r3, #12]
  hltdc->Instance->BPCR |= (tmp | hltdc->Init.AccumulatedVBP);
 8004e56:	68da      	ldr	r2, [r3, #12]
 8004e58:	ea42 4207 	orr.w	r2, r2, r7, lsl #16
  tmp = (hltdc->Init.AccumulatedActiveW << 16U);
 8004e5c:	6a67      	ldr	r7, [r4, #36]	; 0x24
  hltdc->Instance->BPCR |= (tmp | hltdc->Init.AccumulatedVBP);
 8004e5e:	ea42 020c 	orr.w	r2, r2, ip
  hltdc->Instance->AWCR |= (tmp | hltdc->Init.AccumulatedActiveH);
 8004e62:	f8d4 c028 	ldr.w	ip, [r4, #40]	; 0x28
  hltdc->Instance->BPCR |= (tmp | hltdc->Init.AccumulatedVBP);
 8004e66:	60da      	str	r2, [r3, #12]
  hltdc->Instance->AWCR &= ~(LTDC_AWCR_AAH | LTDC_AWCR_AAW);
 8004e68:	691a      	ldr	r2, [r3, #16]
 8004e6a:	4032      	ands	r2, r6
 8004e6c:	611a      	str	r2, [r3, #16]
  hltdc->Instance->AWCR |= (tmp | hltdc->Init.AccumulatedActiveH);
 8004e6e:	6918      	ldr	r0, [r3, #16]
 8004e70:	ea40 4007 	orr.w	r0, r0, r7, lsl #16
  tmp = (hltdc->Init.TotalWidth << 16U);
 8004e74:	6ae7      	ldr	r7, [r4, #44]	; 0x2c
  hltdc->Instance->AWCR |= (tmp | hltdc->Init.AccumulatedActiveH);
 8004e76:	ea40 000c 	orr.w	r0, r0, ip
 8004e7a:	6118      	str	r0, [r3, #16]
  hltdc->Instance->TWCR &= ~(LTDC_TWCR_TOTALH | LTDC_TWCR_TOTALW);
 8004e7c:	6958      	ldr	r0, [r3, #20]
 8004e7e:	4006      	ands	r6, r0
 8004e80:	615e      	str	r6, [r3, #20]
  hltdc->Instance->TWCR |= (tmp | hltdc->Init.TotalHeigh);
 8004e82:	695a      	ldr	r2, [r3, #20]
 8004e84:	6b20      	ldr	r0, [r4, #48]	; 0x30
 8004e86:	ea42 4207 	orr.w	r2, r2, r7, lsl #16
 8004e8a:	4302      	orrs	r2, r0
 8004e8c:	615a      	str	r2, [r3, #20]
  hltdc->Instance->BCCR &= ~(LTDC_BCCR_BCBLUE | LTDC_BCCR_BCGREEN | LTDC_BCCR_BCRED);
 8004e8e:	6ad8      	ldr	r0, [r3, #44]	; 0x2c
  tmp = ((uint32_t)(hltdc->Init.Backcolor.Green) << 8U);
 8004e90:	f894 7035 	ldrb.w	r7, [r4, #53]	; 0x35
  hltdc->Instance->BCCR &= ~(LTDC_BCCR_BCBLUE | LTDC_BCCR_BCGREEN | LTDC_BCCR_BCRED);
 8004e94:	f000 407f 	and.w	r0, r0, #4278190080	; 0xff000000
  tmp1 = ((uint32_t)(hltdc->Init.Backcolor.Red) << 16U);
 8004e98:	f894 6036 	ldrb.w	r6, [r4, #54]	; 0x36
  hltdc->Instance->BCCR &= ~(LTDC_BCCR_BCBLUE | LTDC_BCCR_BCGREEN | LTDC_BCCR_BCRED);
 8004e9c:	62d8      	str	r0, [r3, #44]	; 0x2c
  hltdc->Instance->BCCR |= (tmp1 | tmp | hltdc->Init.Backcolor.Blue);
 8004e9e:	6ad8      	ldr	r0, [r3, #44]	; 0x2c
 8004ea0:	f894 2034 	ldrb.w	r2, [r4, #52]	; 0x34
 8004ea4:	4302      	orrs	r2, r0
  return HAL_OK;
 8004ea6:	4608      	mov	r0, r1
  hltdc->Instance->BCCR |= (tmp1 | tmp | hltdc->Init.Backcolor.Blue);
 8004ea8:	ea42 2207 	orr.w	r2, r2, r7, lsl #8
 8004eac:	ea42 4206 	orr.w	r2, r2, r6, lsl #16
 8004eb0:	62da      	str	r2, [r3, #44]	; 0x2c
  __HAL_LTDC_ENABLE_IT(hltdc, LTDC_IT_TE | LTDC_IT_FU);
 8004eb2:	6b5a      	ldr	r2, [r3, #52]	; 0x34
 8004eb4:	f042 0206 	orr.w	r2, r2, #6
 8004eb8:	635a      	str	r2, [r3, #52]	; 0x34
  __HAL_LTDC_ENABLE(hltdc);
 8004eba:	699a      	ldr	r2, [r3, #24]
 8004ebc:	432a      	orrs	r2, r5
 8004ebe:	619a      	str	r2, [r3, #24]
  hltdc->ErrorCode = HAL_LTDC_ERROR_NONE;
 8004ec0:	f8c4 10a4 	str.w	r1, [r4, #164]	; 0xa4
  hltdc->State = HAL_LTDC_STATE_READY;
 8004ec4:	f884 50a1 	strb.w	r5, [r4, #161]	; 0xa1
}
 8004ec8:	bdf8      	pop	{r3, r4, r5, r6, r7, pc}
    hltdc->Lock = HAL_UNLOCKED;
 8004eca:	f880 20a0 	strb.w	r2, [r0, #160]	; 0xa0
    HAL_LTDC_MspInit(hltdc);
 8004ece:	f7ff ff8f 	bl	8004df0 <HAL_LTDC_MspInit>
 8004ed2:	e799      	b.n	8004e08 <HAL_LTDC_Init+0x14>
    return HAL_ERROR;
 8004ed4:	2001      	movs	r0, #1
}
 8004ed6:	4770      	bx	lr
 8004ed8:	f000f800 	.word	0xf000f800

08004edc <HAL_LTDC_ErrorCallback>:
 8004edc:	4770      	bx	lr
 8004ede:	bf00      	nop

08004ee0 <HAL_LTDC_LineEventCallback>:
 8004ee0:	4770      	bx	lr
 8004ee2:	bf00      	nop

08004ee4 <HAL_LTDC_ReloadEventCallback>:
 8004ee4:	4770      	bx	lr
 8004ee6:	bf00      	nop

08004ee8 <HAL_LTDC_IRQHandler>:
{
 8004ee8:	b5f8      	push	{r3, r4, r5, r6, r7, lr}
  uint32_t isrflags  = READ_REG(hltdc->Instance->ISR);
 8004eea:	6803      	ldr	r3, [r0, #0]
{
 8004eec:	4604      	mov	r4, r0
  uint32_t isrflags  = READ_REG(hltdc->Instance->ISR);
 8004eee:	6b9d      	ldr	r5, [r3, #56]	; 0x38
  uint32_t itsources = READ_REG(hltdc->Instance->IER);
 8004ef0:	6b5e      	ldr	r6, [r3, #52]	; 0x34
  if (((isrflags & LTDC_ISR_TERRIF) != 0U) && ((itsources & LTDC_IER_TERRIE) != 0U))
 8004ef2:	0769      	lsls	r1, r5, #29
 8004ef4:	d501      	bpl.n	8004efa <HAL_LTDC_IRQHandler+0x12>
 8004ef6:	0772      	lsls	r2, r6, #29
 8004ef8:	d41d      	bmi.n	8004f36 <HAL_LTDC_IRQHandler+0x4e>
  if (((isrflags & LTDC_ISR_FUIF) != 0U) && ((itsources & LTDC_IER_FUIE) != 0U))
 8004efa:	07ab      	lsls	r3, r5, #30
 8004efc:	d501      	bpl.n	8004f02 <HAL_LTDC_IRQHandler+0x1a>
 8004efe:	07b7      	lsls	r7, r6, #30
 8004f00:	d42d      	bmi.n	8004f5e <HAL_LTDC_IRQHandler+0x76>
  if (((isrflags & LTDC_ISR_LIF) != 0U) && ((itsources & LTDC_IER_LIE) != 0U))
 8004f02:	07e8      	lsls	r0, r5, #31
 8004f04:	d501      	bpl.n	8004f0a <HAL_LTDC_IRQHandler+0x22>
 8004f06:	07f1      	lsls	r1, r6, #31
 8004f08:	d440      	bmi.n	8004f8c <HAL_LTDC_IRQHandler+0xa4>
  if (((isrflags & LTDC_ISR_RRIF) != 0U) && ((itsources & LTDC_IER_RRIE) != 0U))
 8004f0a:	072a      	lsls	r2, r5, #28
 8004f0c:	d501      	bpl.n	8004f12 <HAL_LTDC_IRQHandler+0x2a>
 8004f0e:	0733      	lsls	r3, r6, #28
 8004f10:	d400      	bmi.n	8004f14 <HAL_LTDC_IRQHandler+0x2c>
}
 8004f12:	bdf8      	pop	{r3, r4, r5, r6, r7, pc}
    __HAL_LTDC_DISABLE_IT(hltdc, LTDC_IT_RR);
 8004f14:	6823      	ldr	r3, [r4, #0]
    __HAL_LTDC_CLEAR_FLAG(hltdc, LTDC_FLAG_RR);
 8004f16:	2608      	movs	r6, #8
    hltdc->State = HAL_LTDC_STATE_READY;
 8004f18:	2501      	movs	r5, #1
    __HAL_UNLOCK(hltdc);
 8004f1a:	2100      	movs	r1, #0
    __HAL_LTDC_DISABLE_IT(hltdc, LTDC_IT_RR);
 8004f1c:	6b5a      	ldr	r2, [r3, #52]	; 0x34
    HAL_LTDC_ReloadEventCallback(hltdc);
 8004f1e:	4620      	mov	r0, r4
    __HAL_LTDC_DISABLE_IT(hltdc, LTDC_IT_RR);
 8004f20:	f022 0208 	bic.w	r2, r2, #8
 8004f24:	635a      	str	r2, [r3, #52]	; 0x34
    __HAL_LTDC_CLEAR_FLAG(hltdc, LTDC_FLAG_RR);
 8004f26:	63de      	str	r6, [r3, #60]	; 0x3c
    hltdc->State = HAL_LTDC_STATE_READY;
 8004f28:	f884 50a1 	strb.w	r5, [r4, #161]	; 0xa1
    __HAL_UNLOCK(hltdc);
 8004f2c:	f884 10a0 	strb.w	r1, [r4, #160]	; 0xa0
    HAL_LTDC_ReloadEventCallback(hltdc);
 8004f30:	f7ff ffd8 	bl	8004ee4 <HAL_LTDC_ReloadEventCallback>
}
 8004f34:	bdf8      	pop	{r3, r4, r5, r6, r7, pc}
    __HAL_LTDC_DISABLE_IT(hltdc, LTDC_IT_TE);
 8004f36:	6b5a      	ldr	r2, [r3, #52]	; 0x34
    __HAL_LTDC_CLEAR_FLAG(hltdc, LTDC_FLAG_TE);
 8004f38:	2104      	movs	r1, #4
    __HAL_UNLOCK(hltdc);
 8004f3a:	2700      	movs	r7, #0
    __HAL_LTDC_DISABLE_IT(hltdc, LTDC_IT_TE);
 8004f3c:	f022 0204 	bic.w	r2, r2, #4
 8004f40:	635a      	str	r2, [r3, #52]	; 0x34
    __HAL_LTDC_CLEAR_FLAG(hltdc, LTDC_FLAG_TE);
 8004f42:	63d9      	str	r1, [r3, #60]	; 0x3c
    hltdc->ErrorCode |= HAL_LTDC_ERROR_TE;
 8004f44:	f8d0 30a4 	ldr.w	r3, [r0, #164]	; 0xa4
    __HAL_UNLOCK(hltdc);
 8004f48:	f880 70a0 	strb.w	r7, [r0, #160]	; 0xa0
    hltdc->ErrorCode |= HAL_LTDC_ERROR_TE;
 8004f4c:	f043 0301 	orr.w	r3, r3, #1
 8004f50:	f8c0 30a4 	str.w	r3, [r0, #164]	; 0xa4
    hltdc->State = HAL_LTDC_STATE_ERROR;
 8004f54:	f880 10a1 	strb.w	r1, [r0, #161]	; 0xa1
    HAL_LTDC_ErrorCallback(hltdc);
 8004f58:	f7ff ffc0 	bl	8004edc <HAL_LTDC_ErrorCallback>
 8004f5c:	e7cd      	b.n	8004efa <HAL_LTDC_IRQHandler+0x12>
    __HAL_LTDC_DISABLE_IT(hltdc, LTDC_IT_FU);
 8004f5e:	6823      	ldr	r3, [r4, #0]
    __HAL_LTDC_CLEAR_FLAG(hltdc, LTDC_FLAG_FU);
 8004f60:	2002      	movs	r0, #2
    hltdc->State = HAL_LTDC_STATE_ERROR;
 8004f62:	2104      	movs	r1, #4
    __HAL_LTDC_DISABLE_IT(hltdc, LTDC_IT_FU);
 8004f64:	6b5a      	ldr	r2, [r3, #52]	; 0x34
 8004f66:	f022 0202 	bic.w	r2, r2, #2
 8004f6a:	635a      	str	r2, [r3, #52]	; 0x34
    __HAL_UNLOCK(hltdc);
 8004f6c:	2200      	movs	r2, #0
    __HAL_LTDC_CLEAR_FLAG(hltdc, LTDC_FLAG_FU);
 8004f6e:	63d8      	str	r0, [r3, #60]	; 0x3c
    HAL_LTDC_ErrorCallback(hltdc);
 8004f70:	4620      	mov	r0, r4
    hltdc->ErrorCode |= HAL_LTDC_ERROR_FU;
 8004f72:	f8d4 30a4 	ldr.w	r3, [r4, #164]	; 0xa4
    __HAL_UNLOCK(hltdc);
 8004f76:	f884 20a0 	strb.w	r2, [r4, #160]	; 0xa0
    hltdc->ErrorCode |= HAL_LTDC_ERROR_FU;
 8004f7a:	f043 0302 	orr.w	r3, r3, #2
 8004f7e:	f8c4 30a4 	str.w	r3, [r4, #164]	; 0xa4
    hltdc->State = HAL_LTDC_STATE_ERROR;
 8004f82:	f884 10a1 	strb.w	r1, [r4, #161]	; 0xa1
    HAL_LTDC_ErrorCallback(hltdc);
 8004f86:	f7ff ffa9 	bl	8004edc <HAL_LTDC_ErrorCallback>
 8004f8a:	e7ba      	b.n	8004f02 <HAL_LTDC_IRQHandler+0x1a>
    __HAL_LTDC_DISABLE_IT(hltdc, LTDC_IT_LI);
 8004f8c:	6823      	ldr	r3, [r4, #0]
    __HAL_LTDC_CLEAR_FLAG(hltdc, LTDC_FLAG_LI);
 8004f8e:	2101      	movs	r1, #1
    __HAL_UNLOCK(hltdc);
 8004f90:	2700      	movs	r7, #0
    HAL_LTDC_LineEventCallback(hltdc);
 8004f92:	4620      	mov	r0, r4
    __HAL_LTDC_DISABLE_IT(hltdc, LTDC_IT_LI);
 8004f94:	6b5a      	ldr	r2, [r3, #52]	; 0x34
 8004f96:	f022 0201 	bic.w	r2, r2, #1
 8004f9a:	635a      	str	r2, [r3, #52]	; 0x34
    __HAL_LTDC_CLEAR_FLAG(hltdc, LTDC_FLAG_LI);
 8004f9c:	63d9      	str	r1, [r3, #60]	; 0x3c
    hltdc->State = HAL_LTDC_STATE_READY;
 8004f9e:	f884 10a1 	strb.w	r1, [r4, #161]	; 0xa1
    __HAL_UNLOCK(hltdc);
 8004fa2:	f884 70a0 	strb.w	r7, [r4, #160]	; 0xa0
    HAL_LTDC_LineEventCallback(hltdc);
 8004fa6:	f7ff ff9b 	bl	8004ee0 <HAL_LTDC_LineEventCallback>
 8004faa:	e7ae      	b.n	8004f0a <HAL_LTDC_IRQHandler+0x22>

08004fac <HAL_LTDC_ConfigLayer>:
  __HAL_LOCK(hltdc);
 8004fac:	f890 30a0 	ldrb.w	r3, [r0, #160]	; 0xa0
 8004fb0:	2b01      	cmp	r3, #1
 8004fb2:	d028      	beq.n	8005006 <HAL_LTDC_ConfigLayer+0x5a>
  hltdc->State = HAL_LTDC_STATE_BUSY;
 8004fb4:	2302      	movs	r3, #2
 8004fb6:	4694      	mov	ip, r2
{
 8004fb8:	e92d 41f0 	stmdb	sp!, {r4, r5, r6, r7, r8, lr}
  hltdc->LayerCfg[LayerIdx] = *pLayerCfg;
 8004fbc:	2434      	movs	r4, #52	; 0x34
  __HAL_LOCK(hltdc);
 8004fbe:	f04f 0801 	mov.w	r8, #1
  hltdc->LayerCfg[LayerIdx] = *pLayerCfg;
 8004fc2:	460d      	mov	r5, r1
  hltdc->State = HAL_LTDC_STATE_BUSY;
 8004fc4:	f880 30a1 	strb.w	r3, [r0, #161]	; 0xa1
  hltdc->LayerCfg[LayerIdx] = *pLayerCfg;
 8004fc8:	fb04 0402 	mla	r4, r4, r2, r0
 8004fcc:	4606      	mov	r6, r0
  __HAL_LOCK(hltdc);
 8004fce:	f880 80a0 	strb.w	r8, [r0, #160]	; 0xa0
  hltdc->LayerCfg[LayerIdx] = *pLayerCfg;
 8004fd2:	460f      	mov	r7, r1
 8004fd4:	3438      	adds	r4, #56	; 0x38
 8004fd6:	cd0f      	ldmia	r5!, {r0, r1, r2, r3}
 8004fd8:	c40f      	stmia	r4!, {r0, r1, r2, r3}
 8004fda:	cd0f      	ldmia	r5!, {r0, r1, r2, r3}
 8004fdc:	c40f      	stmia	r4!, {r0, r1, r2, r3}
 8004fde:	cd0f      	ldmia	r5!, {r0, r1, r2, r3}
 8004fe0:	c40f      	stmia	r4!, {r0, r1, r2, r3}
 8004fe2:	682b      	ldr	r3, [r5, #0]
  LTDC_SetConfig(hltdc, pLayerCfg, LayerIdx);
 8004fe4:	4662      	mov	r2, ip
 8004fe6:	4630      	mov	r0, r6
 8004fe8:	4639      	mov	r1, r7
  hltdc->LayerCfg[LayerIdx] = *pLayerCfg;
 8004fea:	6023      	str	r3, [r4, #0]
  LTDC_SetConfig(hltdc, pLayerCfg, LayerIdx);
 8004fec:	f7ff fe68 	bl	8004cc0 <LTDC_SetConfig>
  __HAL_UNLOCK(hltdc);
 8004ff0:	2300      	movs	r3, #0
  hltdc->Instance->SRCR = LTDC_SRCR_IMR;
 8004ff2:	6832      	ldr	r2, [r6, #0]
  return HAL_OK;
 8004ff4:	4618      	mov	r0, r3
  hltdc->Instance->SRCR = LTDC_SRCR_IMR;
 8004ff6:	f8c2 8024 	str.w	r8, [r2, #36]	; 0x24
  hltdc->State  = HAL_LTDC_STATE_READY;
 8004ffa:	f886 80a1 	strb.w	r8, [r6, #161]	; 0xa1
  __HAL_UNLOCK(hltdc);
 8004ffe:	f886 30a0 	strb.w	r3, [r6, #160]	; 0xa0
}
 8005002:	e8bd 81f0 	ldmia.w	sp!, {r4, r5, r6, r7, r8, pc}
  __HAL_LOCK(hltdc);
 8005006:	2002      	movs	r0, #2
}
 8005008:	4770      	bx	lr
 800500a:	bf00      	nop

0800500c <HAL_MDMA_Init>:
  * @param  hmdma: Pointer to a MDMA_HandleTypeDef structure that contains
  *               the configuration information for the specified MDMA Channel.
  * @retval HAL status
  */
HAL_StatusTypeDef HAL_MDMA_Init(MDMA_HandleTypeDef *hmdma)
{
 800500c:	b538      	push	{r3, r4, r5, lr}
 800500e:	4604      	mov	r4, r0
  uint32_t tickstart = HAL_GetTick();
 8005010:	f7fe ff10 	bl	8003e34 <HAL_GetTick>

  /* Check the MDMA peripheral handle */
  if(hmdma == NULL)
 8005014:	2c00      	cmp	r4, #0
 8005016:	d05a      	beq.n	80050ce <HAL_MDMA_Init+0xc2>

  /* Allocate lock resource */
  __HAL_UNLOCK(hmdma);

  /* Change MDMA peripheral state */
  hmdma->State = HAL_MDMA_STATE_BUSY;
 8005018:	2202      	movs	r2, #2

  /* Disable the MDMA channel */
  __HAL_MDMA_DISABLE(hmdma);
 800501a:	6823      	ldr	r3, [r4, #0]
  __HAL_UNLOCK(hmdma);
 800501c:	2100      	movs	r1, #0
 800501e:	4605      	mov	r5, r0
  hmdma->State = HAL_MDMA_STATE_BUSY;
 8005020:	f884 203d 	strb.w	r2, [r4, #61]	; 0x3d
  __HAL_UNLOCK(hmdma);
 8005024:	f884 103c 	strb.w	r1, [r4, #60]	; 0x3c
  __HAL_MDMA_DISABLE(hmdma);
 8005028:	68da      	ldr	r2, [r3, #12]
 800502a:	f022 0201 	bic.w	r2, r2, #1
 800502e:	60da      	str	r2, [r3, #12]

  /* Check if the MDMA channel is effectively disabled */
  while((hmdma->Instance->CCR & MDMA_CCR_EN) != 0U)
 8005030:	e005      	b.n	800503e <HAL_MDMA_Init+0x32>
  {
    /* Check for the Timeout */
    if((HAL_GetTick() - tickstart ) > HAL_TIMEOUT_MDMA_ABORT)
 8005032:	f7fe feff 	bl	8003e34 <HAL_GetTick>
 8005036:	1b43      	subs	r3, r0, r5
 8005038:	2b05      	cmp	r3, #5
 800503a:	d841      	bhi.n	80050c0 <HAL_MDMA_Init+0xb4>
 800503c:	6823      	ldr	r3, [r4, #0]
  while((hmdma->Instance->CCR & MDMA_CCR_EN) != 0U)
 800503e:	68da      	ldr	r2, [r3, #12]
 8005040:	07d2      	lsls	r2, r2, #31
 8005042:	d4f6      	bmi.n	8005032 <HAL_MDMA_Init+0x26>
  /* Write new CTCR Register value */
  hmdma->Instance->CTCR =  hmdma->Init.SourceInc      | hmdma->Init.DestinationInc | \
                           hmdma->Init.SourceDataSize | hmdma->Init.DestDataSize   | \
                           hmdma->Init.DataAlignment  | hmdma->Init.SourceBurst    | \
                           hmdma->Init.DestBurst                                   | \
                           ((hmdma->Init.BufferTransferLength - 1U) << MDMA_CTCR_TLEN_Pos) | \
 8005044:	e9d4 2005 	ldrd	r2, r0, [r4, #20]
 8005048:	69e1      	ldr	r1, [r4, #28]
 800504a:	4302      	orrs	r2, r0
 800504c:	e9d4 5008 	ldrd	r5, r0, [r4, #32]
 8005050:	430a      	orrs	r2, r1
 8005052:	6ae1      	ldr	r1, [r4, #44]	; 0x2c
 8005054:	432a      	orrs	r2, r5
 8005056:	6b25      	ldr	r5, [r4, #48]	; 0x30
 8005058:	4302      	orrs	r2, r0
 800505a:	68a0      	ldr	r0, [r4, #8]
 800505c:	430a      	orrs	r2, r1
 800505e:	6aa1      	ldr	r1, [r4, #40]	; 0x28
 8005060:	432a      	orrs	r2, r5
 8005062:	1e4d      	subs	r5, r1, #1
  hmdma->Instance->CCR = hmdma->Init.Priority  | hmdma->Init.Endianness;
 8005064:	68e1      	ldr	r1, [r4, #12]
                           ((hmdma->Init.BufferTransferLength - 1U) << MDMA_CTCR_TLEN_Pos) | \
 8005066:	4302      	orrs	r2, r0
  hmdma->Instance->CCR = hmdma->Init.Priority  | hmdma->Init.Endianness;
 8005068:	6920      	ldr	r0, [r4, #16]
 800506a:	4308      	orrs	r0, r1
                           hmdma->Init.TransferTriggerMode;

  /* If SW request set the CTCR register to SW Request Mode */
  if(hmdma->Init.Request == MDMA_REQUEST_SW)
 800506c:	6861      	ldr	r1, [r4, #4]
                           ((hmdma->Init.BufferTransferLength - 1U) << MDMA_CTCR_TLEN_Pos) | \
 800506e:	ea42 4285 	orr.w	r2, r2, r5, lsl #18
  if(hmdma->Init.Request == MDMA_REQUEST_SW)
 8005072:	f1b1 4f80 	cmp.w	r1, #1073741824	; 0x40000000
  hmdma->Instance->CCR = hmdma->Init.Priority  | hmdma->Init.Endianness;
 8005076:	60d8      	str	r0, [r3, #12]
  hmdma->Instance->CTCR =  hmdma->Init.SourceInc      | hmdma->Init.DestinationInc | \
 8005078:	611a      	str	r2, [r3, #16]
  if(hmdma->Init.Request == MDMA_REQUEST_SW)
 800507a:	d103      	bne.n	8005084 <HAL_MDMA_Init+0x78>
    -If the request is done by SW : BWM could be set to 1 or 0.
    -If the request is done by a peripheral :
    If mask address not set (0) => BWM must be set to 0
    If mask address set (different than 0) => BWM could be set to 1 or 0
    */
    hmdma->Instance->CTCR |= (MDMA_CTCR_SWRM | MDMA_CTCR_BWM);
 800507c:	691a      	ldr	r2, [r3, #16]
 800507e:	f042 4240 	orr.w	r2, r2, #3221225472	; 0xc0000000
 8005082:	611a      	str	r2, [r3, #16]
  }

  /* Reset CBNDTR Register */
  hmdma->Instance->CBNDTR = 0;
 8005084:	2000      	movs	r0, #0

  /* if block source address offset is negative set the Block Repeat Source address Update Mode to decrement */
  if(hmdma->Init.SourceBlockAddressOffset < 0)
 8005086:	6b62      	ldr	r2, [r4, #52]	; 0x34
 8005088:	4282      	cmp	r2, r0
  hmdma->Instance->CBNDTR = 0;
 800508a:	6158      	str	r0, [r3, #20]
  if(hmdma->Init.SourceBlockAddressOffset < 0)
 800508c:	db30      	blt.n	80050f0 <HAL_MDMA_Init+0xe4>
    hmdma->Instance->CBRUR = (blockoffset & 0x0000FFFFU);
  }
  else
  {
    /* Write new CBRUR Register value : source repeat block offset */
    hmdma->Instance->CBRUR = (((uint32_t)hmdma->Init.SourceBlockAddressOffset) & 0x0000FFFFU);
 800508e:	b292      	uxth	r2, r2
 8005090:	621a      	str	r2, [r3, #32]
  }

  /* If block destination address offset is negative set the Block Repeat destination address Update Mode to decrement */
  if(hmdma->Init.DestBlockAddressOffset < 0)
 8005092:	6ba2      	ldr	r2, [r4, #56]	; 0x38
 8005094:	2a00      	cmp	r2, #0
 8005096:	db1c      	blt.n	80050d2 <HAL_MDMA_Init+0xc6>
    hmdma->Instance->CBRUR |= ((blockoffset & 0x0000FFFFU) << MDMA_CBRUR_DUV_Pos);
  }
  else
  {
    /*write new CBRUR Register value : destination repeat block offset */
    hmdma->Instance->CBRUR |= ((((uint32_t)hmdma->Init.DestBlockAddressOffset) & 0x0000FFFFU) << MDMA_CBRUR_DUV_Pos);
 8005098:	6a18      	ldr	r0, [r3, #32]
  }

  /* if HW request set the HW request and the requet CleraMask and ClearData MaskData, */
  if(hmdma->Init.Request != MDMA_REQUEST_SW)
 800509a:	f1b1 4f80 	cmp.w	r1, #1073741824	; 0x40000000
    hmdma->Instance->CBRUR |= ((((uint32_t)hmdma->Init.DestBlockAddressOffset) & 0x0000FFFFU) << MDMA_CBRUR_DUV_Pos);
 800509e:	ea40 4202 	orr.w	r2, r0, r2, lsl #16
 80050a2:	621a      	str	r2, [r3, #32]
  if(hmdma->Init.Request != MDMA_REQUEST_SW)
 80050a4:	d021      	beq.n	80050ea <HAL_MDMA_Init+0xde>
  {
    /* Set the HW request in CTRB register  */
    hmdma->Instance->CTBR = hmdma->Init.Request & MDMA_CTBR_TSEL;
 80050a6:	b2c9      	uxtb	r1, r1
 80050a8:	6299      	str	r1, [r3, #40]	; 0x28
  {
    hmdma->Instance->CTBR = 0;
  }

  /* Write Link Address Register */
  hmdma->Instance->CLAR =  0;
 80050aa:	2200      	movs	r2, #0
  hmdma->State = HAL_MDMA_STATE_READY;
 80050ac:	2101      	movs	r1, #1
  hmdma->Instance->CLAR =  0;
 80050ae:	625a      	str	r2, [r3, #36]	; 0x24
  return HAL_OK;
 80050b0:	4610      	mov	r0, r2
  hmdma->ErrorCode = HAL_MDMA_ERROR_NONE;
 80050b2:	66a2      	str	r2, [r4, #104]	; 0x68
  hmdma->LinkedListNodeCounter  = 0;
 80050b4:	6662      	str	r2, [r4, #100]	; 0x64
  hmdma->State = HAL_MDMA_STATE_READY;
 80050b6:	f884 103d 	strb.w	r1, [r4, #61]	; 0x3d
  hmdma->LastLinkedListNodeAddress   = 0;
 80050ba:	e9c4 2217 	strd	r2, r2, [r4, #92]	; 0x5c
}
 80050be:	bd38      	pop	{r3, r4, r5, pc}
      hmdma->ErrorCode = HAL_MDMA_ERROR_TIMEOUT;
 80050c0:	2240      	movs	r2, #64	; 0x40
      hmdma->State = HAL_MDMA_STATE_ERROR;
 80050c2:	2303      	movs	r3, #3
      return HAL_ERROR;
 80050c4:	2001      	movs	r0, #1
      hmdma->ErrorCode = HAL_MDMA_ERROR_TIMEOUT;
 80050c6:	66a2      	str	r2, [r4, #104]	; 0x68
      hmdma->State = HAL_MDMA_STATE_ERROR;
 80050c8:	f884 303d 	strb.w	r3, [r4, #61]	; 0x3d
}
 80050cc:	bd38      	pop	{r3, r4, r5, pc}
    return HAL_ERROR;
 80050ce:	2001      	movs	r0, #1
}
 80050d0:	bd38      	pop	{r3, r4, r5, pc}
    hmdma->Instance->CBNDTR |= MDMA_CBNDTR_BRDUM;
 80050d2:	6958      	ldr	r0, [r3, #20]
    blockoffset = (uint32_t)(- hmdma->Init.DestBlockAddressOffset);
 80050d4:	4252      	negs	r2, r2
  if(hmdma->Init.Request != MDMA_REQUEST_SW)
 80050d6:	f1b1 4f80 	cmp.w	r1, #1073741824	; 0x40000000
    hmdma->Instance->CBNDTR |= MDMA_CBNDTR_BRDUM;
 80050da:	f440 2000 	orr.w	r0, r0, #524288	; 0x80000
 80050de:	6158      	str	r0, [r3, #20]
    hmdma->Instance->CBRUR |= ((blockoffset & 0x0000FFFFU) << MDMA_CBRUR_DUV_Pos);
 80050e0:	6a18      	ldr	r0, [r3, #32]
 80050e2:	ea40 4202 	orr.w	r2, r0, r2, lsl #16
 80050e6:	621a      	str	r2, [r3, #32]
  if(hmdma->Init.Request != MDMA_REQUEST_SW)
 80050e8:	d1dd      	bne.n	80050a6 <HAL_MDMA_Init+0x9a>
    hmdma->Instance->CTBR = 0;
 80050ea:	2200      	movs	r2, #0
 80050ec:	629a      	str	r2, [r3, #40]	; 0x28
 80050ee:	e7dc      	b.n	80050aa <HAL_MDMA_Init+0x9e>
    hmdma->Instance->CBNDTR |= MDMA_CBNDTR_BRSUM;
 80050f0:	6958      	ldr	r0, [r3, #20]
    blockoffset = (uint32_t)(- hmdma->Init.SourceBlockAddressOffset);
 80050f2:	4252      	negs	r2, r2
    hmdma->Instance->CBNDTR |= MDMA_CBNDTR_BRSUM;
 80050f4:	f440 2080 	orr.w	r0, r0, #262144	; 0x40000
    hmdma->Instance->CBRUR = (blockoffset & 0x0000FFFFU);
 80050f8:	b292      	uxth	r2, r2
    hmdma->Instance->CBNDTR |= MDMA_CBNDTR_BRSUM;
 80050fa:	6158      	str	r0, [r3, #20]
    hmdma->Instance->CBRUR = (blockoffset & 0x0000FFFFU);
 80050fc:	621a      	str	r2, [r3, #32]
 80050fe:	e7c8      	b.n	8005092 <HAL_MDMA_Init+0x86>

08005100 <HAL_MDMA_DeInit>:
  if(hmdma == NULL)
 8005100:	b1f0      	cbz	r0, 8005140 <HAL_MDMA_DeInit+0x40>
  __HAL_MDMA_DISABLE(hmdma);
 8005102:	6802      	ldr	r2, [r0, #0]
  hmdma->Instance->CCR  = 0;
 8005104:	2300      	movs	r3, #0
 8005106:	4601      	mov	r1, r0
  return HAL_OK;
 8005108:	4618      	mov	r0, r3
{
 800510a:	b430      	push	{r4, r5}
  __HAL_MDMA_DISABLE(hmdma);
 800510c:	68d4      	ldr	r4, [r2, #12]
  __HAL_MDMA_CLEAR_FLAG(hmdma,(MDMA_FLAG_TE | MDMA_FLAG_CTC | MDMA_FLAG_BRT | MDMA_FLAG_BT | MDMA_FLAG_BFTC));
 800510e:	251f      	movs	r5, #31
  __HAL_MDMA_DISABLE(hmdma);
 8005110:	f024 0401 	bic.w	r4, r4, #1
 8005114:	60d4      	str	r4, [r2, #12]
  hmdma->Instance->CCR  = 0;
 8005116:	60d3      	str	r3, [r2, #12]
  hmdma->Instance->CTCR = 0;
 8005118:	6113      	str	r3, [r2, #16]
  hmdma->Instance->CBNDTR = 0;
 800511a:	6153      	str	r3, [r2, #20]
  hmdma->Instance->CSAR = 0;
 800511c:	6193      	str	r3, [r2, #24]
  hmdma->Instance->CDAR = 0;
 800511e:	61d3      	str	r3, [r2, #28]
  hmdma->Instance->CBRUR = 0;
 8005120:	6213      	str	r3, [r2, #32]
  hmdma->Instance->CLAR = 0;
 8005122:	6253      	str	r3, [r2, #36]	; 0x24
  hmdma->Instance->CTBR = 0;
 8005124:	6293      	str	r3, [r2, #40]	; 0x28
  hmdma->Instance->CMAR = 0;
 8005126:	6313      	str	r3, [r2, #48]	; 0x30
  hmdma->Instance->CMDR = 0;
 8005128:	6353      	str	r3, [r2, #52]	; 0x34
  __HAL_MDMA_CLEAR_FLAG(hmdma,(MDMA_FLAG_TE | MDMA_FLAG_CTC | MDMA_FLAG_BRT | MDMA_FLAG_BT | MDMA_FLAG_BFTC));
 800512a:	6055      	str	r5, [r2, #4]
  hmdma->ErrorCode = HAL_MDMA_ERROR_NONE;
 800512c:	668b      	str	r3, [r1, #104]	; 0x68
  __HAL_UNLOCK(hmdma);
 800512e:	f881 303c 	strb.w	r3, [r1, #60]	; 0x3c
  hmdma->State = HAL_MDMA_STATE_RESET;
 8005132:	f881 303d 	strb.w	r3, [r1, #61]	; 0x3d
  hmdma->LinkedListNodeCounter  = 0;
 8005136:	664b      	str	r3, [r1, #100]	; 0x64
}
 8005138:	bc30      	pop	{r4, r5}
  hmdma->LastLinkedListNodeAddress   = 0;
 800513a:	e9c1 3317 	strd	r3, r3, [r1, #92]	; 0x5c
}
 800513e:	4770      	bx	lr
    return HAL_ERROR;
 8005140:	2001      	movs	r0, #1
}
 8005142:	4770      	bx	lr

08005144 <HAL_PWREx_ConfigSupply>:

  /* Check if supply source was configured */
#if defined (PWR_FLAG_SCUEN)
  if (__HAL_PWR_GET_FLAG (PWR_FLAG_SCUEN) == 0U)
#else
  if ((PWR->CR3 & (PWR_CR3_SMPSEN | PWR_CR3_LDOEN | PWR_CR3_BYPASS)) != (PWR_CR3_SMPSEN | PWR_CR3_LDOEN))
 8005144:	4a1c      	ldr	r2, [pc, #112]	; (80051b8 <HAL_PWREx_ConfigSupply+0x74>)
 8005146:	68d3      	ldr	r3, [r2, #12]
 8005148:	f003 0307 	and.w	r3, r3, #7
 800514c:	2b06      	cmp	r3, #6
#endif /* defined (PWR_FLAG_SCUEN) */
  {
    /* Check supply configuration */
    if ((PWR->CR3 & PWR_SUPPLY_CONFIG_MASK) != SupplySource)
 800514e:	68d3      	ldr	r3, [r2, #12]
{
 8005150:	b570      	push	{r4, r5, r6, lr}
 8005152:	4604      	mov	r4, r0
  if ((PWR->CR3 & (PWR_CR3_SMPSEN | PWR_CR3_LDOEN | PWR_CR3_BYPASS)) != (PWR_CR3_SMPSEN | PWR_CR3_LDOEN))
 8005154:	d005      	beq.n	8005162 <HAL_PWREx_ConfigSupply+0x1e>
    if ((PWR->CR3 & PWR_SUPPLY_CONFIG_MASK) != SupplySource)
 8005156:	f003 033f 	and.w	r3, r3, #63	; 0x3f
    {
      /* Supply configuration update locked, can't apply a new supply config */
      return HAL_ERROR;
 800515a:	1a18      	subs	r0, r3, r0
 800515c:	bf18      	it	ne
 800515e:	2001      	movne	r0, #1
    }
  }
#endif /* defined (SMPS) */

  return HAL_OK;
}
 8005160:	bd70      	pop	{r4, r5, r6, pc}
  MODIFY_REG (PWR->CR3, PWR_SUPPLY_CONFIG_MASK, SupplySource);
 8005162:	f023 033f 	bic.w	r3, r3, #63	; 0x3f
  while (__HAL_PWR_GET_FLAG (PWR_FLAG_ACTVOSRDY) == 0U)
 8005166:	4616      	mov	r6, r2
  MODIFY_REG (PWR->CR3, PWR_SUPPLY_CONFIG_MASK, SupplySource);
 8005168:	4303      	orrs	r3, r0
 800516a:	60d3      	str	r3, [r2, #12]
  tickstart = HAL_GetTick ();
 800516c:	f7fe fe62 	bl	8003e34 <HAL_GetTick>
 8005170:	4605      	mov	r5, r0
  while (__HAL_PWR_GET_FLAG (PWR_FLAG_ACTVOSRDY) == 0U)
 8005172:	e005      	b.n	8005180 <HAL_PWREx_ConfigSupply+0x3c>
    if ((HAL_GetTick () - tickstart) > PWR_FLAG_SETTING_DELAY)
 8005174:	f7fe fe5e 	bl	8003e34 <HAL_GetTick>
 8005178:	1b43      	subs	r3, r0, r5
 800517a:	f5b3 7f7a 	cmp.w	r3, #1000	; 0x3e8
 800517e:	d819      	bhi.n	80051b4 <HAL_PWREx_ConfigSupply+0x70>
  while (__HAL_PWR_GET_FLAG (PWR_FLAG_ACTVOSRDY) == 0U)
 8005180:	6873      	ldr	r3, [r6, #4]
 8005182:	049a      	lsls	r2, r3, #18
 8005184:	d5f6      	bpl.n	8005174 <HAL_PWREx_ConfigSupply+0x30>
      (SupplySource == PWR_SMPS_1V8_SUPPLIES_EXT)         ||
 8005186:	f1a4 031d 	sub.w	r3, r4, #29
 800518a:	2b01      	cmp	r3, #1
 800518c:	d905      	bls.n	800519a <HAL_PWREx_ConfigSupply+0x56>
      (SupplySource == PWR_SMPS_2V5_SUPPLIES_EXT))
 800518e:	f1a4 002d 	sub.w	r0, r4, #45	; 0x2d
      (SupplySource == PWR_SMPS_1V8_SUPPLIES_EXT)         ||
 8005192:	2801      	cmp	r0, #1
 8005194:	d901      	bls.n	800519a <HAL_PWREx_ConfigSupply+0x56>
  return HAL_OK;
 8005196:	2000      	movs	r0, #0
}
 8005198:	bd70      	pop	{r4, r5, r6, pc}
    tickstart = HAL_GetTick ();
 800519a:	f7fe fe4b 	bl	8003e34 <HAL_GetTick>
    while (__HAL_PWR_GET_FLAG (PWR_FLAG_SMPSEXTRDY) == 0U)
 800519e:	4d06      	ldr	r5, [pc, #24]	; (80051b8 <HAL_PWREx_ConfigSupply+0x74>)
    tickstart = HAL_GetTick ();
 80051a0:	4604      	mov	r4, r0
    while (__HAL_PWR_GET_FLAG (PWR_FLAG_SMPSEXTRDY) == 0U)
 80051a2:	68eb      	ldr	r3, [r5, #12]
 80051a4:	03db      	lsls	r3, r3, #15
 80051a6:	d4f6      	bmi.n	8005196 <HAL_PWREx_ConfigSupply+0x52>
      if ((HAL_GetTick () - tickstart) > PWR_FLAG_SETTING_DELAY)
 80051a8:	f7fe fe44 	bl	8003e34 <HAL_GetTick>
 80051ac:	1b00      	subs	r0, r0, r4
 80051ae:	f5b0 7f7a 	cmp.w	r0, #1000	; 0x3e8
 80051b2:	d9f6      	bls.n	80051a2 <HAL_PWREx_ConfigSupply+0x5e>
      return HAL_ERROR;
 80051b4:	2001      	movs	r0, #1
}
 80051b6:	bd70      	pop	{r4, r5, r6, pc}
 80051b8:	58024800 	.word	0x58024800

080051bc <HAL_RCC_OscConfig>:
{
  uint32_t tickstart;
  uint32_t temp1_pllckcfg, temp2_pllckcfg;

    /* Check Null pointer */
  if(RCC_OscInitStruct == NULL)
 80051bc:	2800      	cmp	r0, #0
 80051be:	f000 81f7 	beq.w	80055b0 <HAL_RCC_OscConfig+0x3f4>
{
 80051c2:	b5f8      	push	{r3, r4, r5, r6, r7, lr}
  }

  /* Check the parameters */
  assert_param(IS_RCC_OSCILLATORTYPE(RCC_OscInitStruct->OscillatorType));
  /*------------------------------- HSE Configuration ------------------------*/
  if(((RCC_OscInitStruct->OscillatorType) & RCC_OSCILLATORTYPE_HSE) == RCC_OSCILLATORTYPE_HSE)
 80051c4:	6803      	ldr	r3, [r0, #0]
 80051c6:	4604      	mov	r4, r0
 80051c8:	07d9      	lsls	r1, r3, #31
 80051ca:	d52e      	bpl.n	800522a <HAL_RCC_OscConfig+0x6e>
  {
    /* Check the parameters */
    assert_param(IS_RCC_HSE(RCC_OscInitStruct->HSEState));

    const uint32_t temp_sysclksrc = __HAL_RCC_GET_SYSCLK_SOURCE();
 80051cc:	49b4      	ldr	r1, [pc, #720]	; (80054a0 <HAL_RCC_OscConfig+0x2e4>)
 80051ce:	690a      	ldr	r2, [r1, #16]
    const uint32_t temp_pllckselr = RCC->PLLCKSELR;
 80051d0:	6a89      	ldr	r1, [r1, #40]	; 0x28
    const uint32_t temp_sysclksrc = __HAL_RCC_GET_SYSCLK_SOURCE();
 80051d2:	f002 0238 	and.w	r2, r2, #56	; 0x38
    /* When the HSE is used as system clock or clock source for PLL in these cases HSE will not disabled */
    if((temp_sysclksrc == RCC_CFGR_SWS_HSE) || ((temp_sysclksrc == RCC_CFGR_SWS_PLL1) && ((temp_pllckselr & RCC_PLLCKSELR_PLLSRC) == RCC_PLLCKSELR_PLLSRC_HSE)))
 80051d6:	2a10      	cmp	r2, #16
 80051d8:	f000 812c 	beq.w	8005434 <HAL_RCC_OscConfig+0x278>
 80051dc:	2a18      	cmp	r2, #24
 80051de:	f000 8124 	beq.w	800542a <HAL_RCC_OscConfig+0x26e>
      }
    }
    else
    {
      /* Set the new HSE configuration ---------------------------------------*/
      __HAL_RCC_HSE_CONFIG(RCC_OscInitStruct->HSEState);
 80051e2:	6863      	ldr	r3, [r4, #4]
 80051e4:	f5b3 3f80 	cmp.w	r3, #65536	; 0x10000
 80051e8:	f000 8167 	beq.w	80054ba <HAL_RCC_OscConfig+0x2fe>
 80051ec:	2b00      	cmp	r3, #0
 80051ee:	f000 817f 	beq.w	80054f0 <HAL_RCC_OscConfig+0x334>
 80051f2:	f5b3 2fa0 	cmp.w	r3, #327680	; 0x50000
 80051f6:	4baa      	ldr	r3, [pc, #680]	; (80054a0 <HAL_RCC_OscConfig+0x2e4>)
 80051f8:	681a      	ldr	r2, [r3, #0]
 80051fa:	f000 8278 	beq.w	80056ee <HAL_RCC_OscConfig+0x532>
 80051fe:	f422 3280 	bic.w	r2, r2, #65536	; 0x10000
 8005202:	601a      	str	r2, [r3, #0]
 8005204:	681a      	ldr	r2, [r3, #0]
 8005206:	f422 2280 	bic.w	r2, r2, #262144	; 0x40000
 800520a:	601a      	str	r2, [r3, #0]

      /* Check the HSE State */
      if(RCC_OscInitStruct->HSEState != RCC_HSE_OFF)
      {
        /* Get Start Tick*/
        tickstart = HAL_GetTick();
 800520c:	f7fe fe12 	bl	8003e34 <HAL_GetTick>

        /* Wait till HSE is ready */
        while(__HAL_RCC_GET_FLAG(RCC_FLAG_HSERDY) == 0U)
 8005210:	4ea3      	ldr	r6, [pc, #652]	; (80054a0 <HAL_RCC_OscConfig+0x2e4>)
        tickstart = HAL_GetTick();
 8005212:	4605      	mov	r5, r0
        while(__HAL_RCC_GET_FLAG(RCC_FLAG_HSERDY) == 0U)
 8005214:	e005      	b.n	8005222 <HAL_RCC_OscConfig+0x66>
        {
          if((uint32_t) (HAL_GetTick() - tickstart ) > HSE_TIMEOUT_VALUE)
 8005216:	f7fe fe0d 	bl	8003e34 <HAL_GetTick>
 800521a:	1b40      	subs	r0, r0, r5
 800521c:	2864      	cmp	r0, #100	; 0x64
 800521e:	f200 8165 	bhi.w	80054ec <HAL_RCC_OscConfig+0x330>
        while(__HAL_RCC_GET_FLAG(RCC_FLAG_HSERDY) == 0U)
 8005222:	6833      	ldr	r3, [r6, #0]
 8005224:	039f      	lsls	r7, r3, #14
 8005226:	d5f6      	bpl.n	8005216 <HAL_RCC_OscConfig+0x5a>
 8005228:	6823      	ldr	r3, [r4, #0]
        }
      }
    }
  }
  /*----------------------------- HSI Configuration --------------------------*/
  if(((RCC_OscInitStruct->OscillatorType) & RCC_OSCILLATORTYPE_HSI) == RCC_OSCILLATORTYPE_HSI)
 800522a:	0799      	lsls	r1, r3, #30
 800522c:	d521      	bpl.n	8005272 <HAL_RCC_OscConfig+0xb6>
    /* Check the parameters */
    assert_param(IS_RCC_HSI(RCC_OscInitStruct->HSIState));
    assert_param(IS_RCC_HSICALIBRATION_VALUE(RCC_OscInitStruct->HSICalibrationValue));

    /* When the HSI is used as system clock it will not be disabled */
    const uint32_t temp_sysclksrc = __HAL_RCC_GET_SYSCLK_SOURCE();
 800522e:	4a9c      	ldr	r2, [pc, #624]	; (80054a0 <HAL_RCC_OscConfig+0x2e4>)
 8005230:	6913      	ldr	r3, [r2, #16]
    const uint32_t temp_pllckselr = RCC->PLLCKSELR;
 8005232:	6a92      	ldr	r2, [r2, #40]	; 0x28
    if((temp_sysclksrc == RCC_CFGR_SWS_HSI) || ((temp_sysclksrc == RCC_CFGR_SWS_PLL1) && ((temp_pllckselr & RCC_PLLCKSELR_PLLSRC) == RCC_PLLCKSELR_PLLSRC_HSI)))
 8005234:	f013 0338 	ands.w	r3, r3, #56	; 0x38
 8005238:	f040 80a8 	bne.w	800538c <HAL_RCC_OscConfig+0x1d0>
    {
      /* When HSI is used as system clock it will not be disabled */
      if((__HAL_RCC_GET_FLAG(RCC_FLAG_HSIRDY) != 0U) && (RCC_OscInitStruct->HSIState == RCC_HSI_OFF))
 800523c:	4b98      	ldr	r3, [pc, #608]	; (80054a0 <HAL_RCC_OscConfig+0x2e4>)
 800523e:	681b      	ldr	r3, [r3, #0]
 8005240:	075b      	lsls	r3, r3, #29
 8005242:	d503      	bpl.n	800524c <HAL_RCC_OscConfig+0x90>
 8005244:	68e3      	ldr	r3, [r4, #12]
 8005246:	2b00      	cmp	r3, #0
 8005248:	f000 80ed 	beq.w	8005426 <HAL_RCC_OscConfig+0x26a>
      }
      /* Otherwise, just the calibration is allowed */
      else
      {
        /* Adjusts the Internal High Speed oscillator (HSI) calibration value.*/
        __HAL_RCC_HSI_CALIBRATIONVALUE_ADJUST(RCC_OscInitStruct->HSICalibrationValue);
 800524c:	f7fe fe0a 	bl	8003e64 <HAL_GetREVID>
 8005250:	f241 0303 	movw	r3, #4099	; 0x1003
 8005254:	4298      	cmp	r0, r3
 8005256:	f200 8189 	bhi.w	800556c <HAL_RCC_OscConfig+0x3b0>
 800525a:	6922      	ldr	r2, [r4, #16]
 800525c:	2a40      	cmp	r2, #64	; 0x40
 800525e:	f000 824e 	beq.w	80056fe <HAL_RCC_OscConfig+0x542>
 8005262:	498f      	ldr	r1, [pc, #572]	; (80054a0 <HAL_RCC_OscConfig+0x2e4>)
 8005264:	684b      	ldr	r3, [r1, #4]
 8005266:	f423 337c 	bic.w	r3, r3, #258048	; 0x3f000
 800526a:	ea43 3302 	orr.w	r3, r3, r2, lsl #12
 800526e:	604b      	str	r3, [r1, #4]
 8005270:	6823      	ldr	r3, [r4, #0]
        }
      }
    }
  }
  /*----------------------------- CSI Configuration --------------------------*/
  if(((RCC_OscInitStruct->OscillatorType) & RCC_OSCILLATORTYPE_CSI) == RCC_OSCILLATORTYPE_CSI)
 8005272:	06d9      	lsls	r1, r3, #27
 8005274:	d456      	bmi.n	8005324 <HAL_RCC_OscConfig+0x168>
        }
      }
    }
  }
  /*------------------------------ LSI Configuration -------------------------*/
  if(((RCC_OscInitStruct->OscillatorType) & RCC_OSCILLATORTYPE_LSI) == RCC_OSCILLATORTYPE_LSI)
 8005276:	071d      	lsls	r5, r3, #28
 8005278:	d517      	bpl.n	80052aa <HAL_RCC_OscConfig+0xee>
  {
    /* Check the parameters */
    assert_param(IS_RCC_LSI(RCC_OscInitStruct->LSIState));

    /* Check the LSI State */
    if((RCC_OscInitStruct->LSIState)!= RCC_LSI_OFF)
 800527a:	6963      	ldr	r3, [r4, #20]
 800527c:	2b00      	cmp	r3, #0
 800527e:	f000 80b4 	beq.w	80053ea <HAL_RCC_OscConfig+0x22e>
    {
      /* Enable the Internal Low Speed oscillator (LSI). */
      __HAL_RCC_LSI_ENABLE();
 8005282:	4b87      	ldr	r3, [pc, #540]	; (80054a0 <HAL_RCC_OscConfig+0x2e4>)
 8005284:	6f5a      	ldr	r2, [r3, #116]	; 0x74

      /* Get Start Tick*/
      tickstart = HAL_GetTick();

      /* Wait till LSI is ready */
      while(__HAL_RCC_GET_FLAG(RCC_FLAG_LSIRDY) == 0U)
 8005286:	461e      	mov	r6, r3
      __HAL_RCC_LSI_ENABLE();
 8005288:	f042 0201 	orr.w	r2, r2, #1
 800528c:	675a      	str	r2, [r3, #116]	; 0x74
      tickstart = HAL_GetTick();
 800528e:	f7fe fdd1 	bl	8003e34 <HAL_GetTick>
 8005292:	4605      	mov	r5, r0
      while(__HAL_RCC_GET_FLAG(RCC_FLAG_LSIRDY) == 0U)
 8005294:	e005      	b.n	80052a2 <HAL_RCC_OscConfig+0xe6>
      {
        if((HAL_GetTick() - tickstart ) > LSI_TIMEOUT_VALUE)
 8005296:	f7fe fdcd 	bl	8003e34 <HAL_GetTick>
 800529a:	1b40      	subs	r0, r0, r5
 800529c:	2802      	cmp	r0, #2
 800529e:	f200 8125 	bhi.w	80054ec <HAL_RCC_OscConfig+0x330>
      while(__HAL_RCC_GET_FLAG(RCC_FLAG_LSIRDY) == 0U)
 80052a2:	6f73      	ldr	r3, [r6, #116]	; 0x74
 80052a4:	0798      	lsls	r0, r3, #30
 80052a6:	d5f6      	bpl.n	8005296 <HAL_RCC_OscConfig+0xda>
 80052a8:	6823      	ldr	r3, [r4, #0]
      }
    }
  }

  /*------------------------------ HSI48 Configuration -------------------------*/
  if(((RCC_OscInitStruct->OscillatorType) & RCC_OSCILLATORTYPE_HSI48) == RCC_OSCILLATORTYPE_HSI48)
 80052aa:	069a      	lsls	r2, r3, #26
 80052ac:	d517      	bpl.n	80052de <HAL_RCC_OscConfig+0x122>
  {
    /* Check the parameters */
    assert_param(IS_RCC_HSI48(RCC_OscInitStruct->HSI48State));

    /* Check the HSI48 State */
    if((RCC_OscInitStruct->HSI48State)!= RCC_HSI48_OFF)
 80052ae:	69a3      	ldr	r3, [r4, #24]
 80052b0:	2b00      	cmp	r3, #0
 80052b2:	f000 8134 	beq.w	800551e <HAL_RCC_OscConfig+0x362>
    {
      /* Enable the Internal Low Speed oscillator (HSI48). */
      __HAL_RCC_HSI48_ENABLE();
 80052b6:	4b7a      	ldr	r3, [pc, #488]	; (80054a0 <HAL_RCC_OscConfig+0x2e4>)
 80052b8:	681a      	ldr	r2, [r3, #0]

      /* Get time-out */
      tickstart = HAL_GetTick();

      /* Wait till HSI48 is ready */
      while(__HAL_RCC_GET_FLAG(RCC_FLAG_HSI48RDY) == 0U)
 80052ba:	461e      	mov	r6, r3
      __HAL_RCC_HSI48_ENABLE();
 80052bc:	f442 5280 	orr.w	r2, r2, #4096	; 0x1000
 80052c0:	601a      	str	r2, [r3, #0]
      tickstart = HAL_GetTick();
 80052c2:	f7fe fdb7 	bl	8003e34 <HAL_GetTick>
 80052c6:	4605      	mov	r5, r0
      while(__HAL_RCC_GET_FLAG(RCC_FLAG_HSI48RDY) == 0U)
 80052c8:	e005      	b.n	80052d6 <HAL_RCC_OscConfig+0x11a>
      {
        if((HAL_GetTick() - tickstart ) > HSI48_TIMEOUT_VALUE)
 80052ca:	f7fe fdb3 	bl	8003e34 <HAL_GetTick>
 80052ce:	1b40      	subs	r0, r0, r5
 80052d0:	2802      	cmp	r0, #2
 80052d2:	f200 810b 	bhi.w	80054ec <HAL_RCC_OscConfig+0x330>
      while(__HAL_RCC_GET_FLAG(RCC_FLAG_HSI48RDY) == 0U)
 80052d6:	6833      	ldr	r3, [r6, #0]
 80052d8:	049f      	lsls	r7, r3, #18
 80052da:	d5f6      	bpl.n	80052ca <HAL_RCC_OscConfig+0x10e>
 80052dc:	6823      	ldr	r3, [r4, #0]
        }
      }
    }
  }
  /*------------------------------ LSE Configuration -------------------------*/
  if(((RCC_OscInitStruct->OscillatorType) & RCC_OSCILLATORTYPE_LSE) == RCC_OSCILLATORTYPE_LSE)
 80052de:	0759      	lsls	r1, r3, #29
 80052e0:	f100 80b2 	bmi.w	8005448 <HAL_RCC_OscConfig+0x28c>
    }
  }
  /*-------------------------------- PLL Configuration -----------------------*/
  /* Check the parameters */
  assert_param(IS_RCC_PLL(RCC_OscInitStruct->PLL.PLLState));
  if ((RCC_OscInitStruct->PLL.PLLState) != RCC_PLL_NONE)
 80052e4:	6a60      	ldr	r0, [r4, #36]	; 0x24
 80052e6:	b1d8      	cbz	r0, 8005320 <HAL_RCC_OscConfig+0x164>
  {
    /* Check if the PLL is used as system clock or not */
    if(__HAL_RCC_GET_SYSCLK_SOURCE() != RCC_CFGR_SWS_PLL1)
 80052e8:	4b6d      	ldr	r3, [pc, #436]	; (80054a0 <HAL_RCC_OscConfig+0x2e4>)
 80052ea:	691a      	ldr	r2, [r3, #16]
 80052ec:	f002 0238 	and.w	r2, r2, #56	; 0x38
 80052f0:	2a18      	cmp	r2, #24
 80052f2:	f000 81ce 	beq.w	8005692 <HAL_RCC_OscConfig+0x4d6>
        assert_param(IS_RCC_PLLQ_VALUE(RCC_OscInitStruct->PLL.PLLQ));
        assert_param(IS_RCC_PLLR_VALUE(RCC_OscInitStruct->PLL.PLLR));
        assert_param(IS_RCC_PLLFRACN_VALUE(RCC_OscInitStruct->PLL.PLLFRACN));

        /* Disable the main PLL. */
        __HAL_RCC_PLL_DISABLE();
 80052f6:	681a      	ldr	r2, [r3, #0]
      if((RCC_OscInitStruct->PLL.PLLState) == RCC_PLL_ON)
 80052f8:	2802      	cmp	r0, #2

        /* Get Start Tick*/
        tickstart = HAL_GetTick();

        /* Wait till PLL is disabled */
        while(__HAL_RCC_GET_FLAG(RCC_FLAG_PLLRDY) != 0U)
 80052fa:	461d      	mov	r5, r3
        __HAL_RCC_PLL_DISABLE();
 80052fc:	f022 7280 	bic.w	r2, r2, #16777216	; 0x1000000
 8005300:	601a      	str	r2, [r3, #0]
      if((RCC_OscInitStruct->PLL.PLLState) == RCC_PLL_ON)
 8005302:	f000 8161 	beq.w	80055c8 <HAL_RCC_OscConfig+0x40c>
      {
        /* Disable the main PLL. */
        __HAL_RCC_PLL_DISABLE();

        /* Get Start Tick*/
        tickstart = HAL_GetTick();
 8005306:	f7fe fd95 	bl	8003e34 <HAL_GetTick>
 800530a:	4604      	mov	r4, r0

        /* Wait till PLL is disabled */
        while(__HAL_RCC_GET_FLAG(RCC_FLAG_PLLRDY) != 0U)
 800530c:	e005      	b.n	800531a <HAL_RCC_OscConfig+0x15e>
        {
          if((HAL_GetTick() - tickstart ) > PLL_TIMEOUT_VALUE)
 800530e:	f7fe fd91 	bl	8003e34 <HAL_GetTick>
 8005312:	1b00      	subs	r0, r0, r4
 8005314:	2802      	cmp	r0, #2
 8005316:	f200 80e9 	bhi.w	80054ec <HAL_RCC_OscConfig+0x330>
        while(__HAL_RCC_GET_FLAG(RCC_FLAG_PLLRDY) != 0U)
 800531a:	682b      	ldr	r3, [r5, #0]
 800531c:	019b      	lsls	r3, r3, #6
 800531e:	d4f6      	bmi.n	800530e <HAL_RCC_OscConfig+0x152>
      {
        return HAL_ERROR;
      }
    }
  }
  return HAL_OK;
 8005320:	2000      	movs	r0, #0
}
 8005322:	bdf8      	pop	{r3, r4, r5, r6, r7, pc}
    const uint32_t temp_sysclksrc = __HAL_RCC_GET_SYSCLK_SOURCE();
 8005324:	4a5e      	ldr	r2, [pc, #376]	; (80054a0 <HAL_RCC_OscConfig+0x2e4>)
 8005326:	6913      	ldr	r3, [r2, #16]
    const uint32_t temp_pllckselr = RCC->PLLCKSELR;
 8005328:	6a92      	ldr	r2, [r2, #40]	; 0x28
    const uint32_t temp_sysclksrc = __HAL_RCC_GET_SYSCLK_SOURCE();
 800532a:	f003 0338 	and.w	r3, r3, #56	; 0x38
    if((temp_sysclksrc == RCC_CFGR_SWS_CSI) || ((temp_sysclksrc == RCC_CFGR_SWS_PLL1) && ((temp_pllckselr & RCC_PLLCKSELR_PLLSRC) == RCC_PLLCKSELR_PLLSRC_CSI)))
 800532e:	2b08      	cmp	r3, #8
 8005330:	d072      	beq.n	8005418 <HAL_RCC_OscConfig+0x25c>
 8005332:	2b18      	cmp	r3, #24
 8005334:	d06c      	beq.n	8005410 <HAL_RCC_OscConfig+0x254>
      if((RCC_OscInitStruct->CSIState)!= RCC_CSI_OFF)
 8005336:	69e3      	ldr	r3, [r4, #28]
 8005338:	2b00      	cmp	r3, #0
 800533a:	f000 8103 	beq.w	8005544 <HAL_RCC_OscConfig+0x388>
        __HAL_RCC_CSI_ENABLE();
 800533e:	4b58      	ldr	r3, [pc, #352]	; (80054a0 <HAL_RCC_OscConfig+0x2e4>)
 8005340:	681a      	ldr	r2, [r3, #0]
        while(__HAL_RCC_GET_FLAG(RCC_FLAG_CSIRDY) == 0U)
 8005342:	461e      	mov	r6, r3
        __HAL_RCC_CSI_ENABLE();
 8005344:	f042 0280 	orr.w	r2, r2, #128	; 0x80
 8005348:	601a      	str	r2, [r3, #0]
        tickstart = HAL_GetTick();
 800534a:	f7fe fd73 	bl	8003e34 <HAL_GetTick>
 800534e:	4605      	mov	r5, r0
        while(__HAL_RCC_GET_FLAG(RCC_FLAG_CSIRDY) == 0U)
 8005350:	e005      	b.n	800535e <HAL_RCC_OscConfig+0x1a2>
          if((HAL_GetTick() - tickstart ) > CSI_TIMEOUT_VALUE)
 8005352:	f7fe fd6f 	bl	8003e34 <HAL_GetTick>
 8005356:	1b40      	subs	r0, r0, r5
 8005358:	2802      	cmp	r0, #2
 800535a:	f200 80c7 	bhi.w	80054ec <HAL_RCC_OscConfig+0x330>
        while(__HAL_RCC_GET_FLAG(RCC_FLAG_CSIRDY) == 0U)
 800535e:	6833      	ldr	r3, [r6, #0]
 8005360:	05db      	lsls	r3, r3, #23
 8005362:	d5f6      	bpl.n	8005352 <HAL_RCC_OscConfig+0x196>
        __HAL_RCC_CSI_CALIBRATIONVALUE_ADJUST(RCC_OscInitStruct->CSICalibrationValue);
 8005364:	f7fe fd7e 	bl	8003e64 <HAL_GetREVID>
 8005368:	f241 0303 	movw	r3, #4099	; 0x1003
 800536c:	4298      	cmp	r0, r3
 800536e:	f200 81e9 	bhi.w	8005744 <HAL_RCC_OscConfig+0x588>
 8005372:	6a22      	ldr	r2, [r4, #32]
 8005374:	6873      	ldr	r3, [r6, #4]
 8005376:	2a20      	cmp	r2, #32
 8005378:	f023 43f8 	bic.w	r3, r3, #2080374784	; 0x7c000000
 800537c:	bf0c      	ite	eq
 800537e:	f043 4380 	orreq.w	r3, r3, #1073741824	; 0x40000000
 8005382:	ea43 6382 	orrne.w	r3, r3, r2, lsl #26
 8005386:	6073      	str	r3, [r6, #4]
 8005388:	6823      	ldr	r3, [r4, #0]
 800538a:	e774      	b.n	8005276 <HAL_RCC_OscConfig+0xba>
    if((temp_sysclksrc == RCC_CFGR_SWS_HSI) || ((temp_sysclksrc == RCC_CFGR_SWS_PLL1) && ((temp_pllckselr & RCC_PLLCKSELR_PLLSRC) == RCC_PLLCKSELR_PLLSRC_HSI)))
 800538c:	2b18      	cmp	r3, #24
 800538e:	f000 810b 	beq.w	80055a8 <HAL_RCC_OscConfig+0x3ec>
      if((RCC_OscInitStruct->HSIState)!= RCC_HSI_OFF)
 8005392:	68e2      	ldr	r2, [r4, #12]
 8005394:	2a00      	cmp	r2, #0
 8005396:	f000 80f3 	beq.w	8005580 <HAL_RCC_OscConfig+0x3c4>
        __HAL_RCC_HSI_CONFIG(RCC_OscInitStruct->HSIState);
 800539a:	4941      	ldr	r1, [pc, #260]	; (80054a0 <HAL_RCC_OscConfig+0x2e4>)
 800539c:	680b      	ldr	r3, [r1, #0]
        while(__HAL_RCC_GET_FLAG(RCC_FLAG_HSIRDY) == 0U)
 800539e:	460e      	mov	r6, r1
        __HAL_RCC_HSI_CONFIG(RCC_OscInitStruct->HSIState);
 80053a0:	f023 0319 	bic.w	r3, r3, #25
 80053a4:	4313      	orrs	r3, r2
 80053a6:	600b      	str	r3, [r1, #0]
        tickstart = HAL_GetTick();
 80053a8:	f7fe fd44 	bl	8003e34 <HAL_GetTick>
 80053ac:	4605      	mov	r5, r0
        while(__HAL_RCC_GET_FLAG(RCC_FLAG_HSIRDY) == 0U)
 80053ae:	e005      	b.n	80053bc <HAL_RCC_OscConfig+0x200>
          if((HAL_GetTick() - tickstart ) > HSI_TIMEOUT_VALUE)
 80053b0:	f7fe fd40 	bl	8003e34 <HAL_GetTick>
 80053b4:	1b40      	subs	r0, r0, r5
 80053b6:	2802      	cmp	r0, #2
 80053b8:	f200 8098 	bhi.w	80054ec <HAL_RCC_OscConfig+0x330>
        while(__HAL_RCC_GET_FLAG(RCC_FLAG_HSIRDY) == 0U)
 80053bc:	6833      	ldr	r3, [r6, #0]
 80053be:	075f      	lsls	r7, r3, #29
 80053c0:	d5f6      	bpl.n	80053b0 <HAL_RCC_OscConfig+0x1f4>
        __HAL_RCC_HSI_CALIBRATIONVALUE_ADJUST(RCC_OscInitStruct->HSICalibrationValue);
 80053c2:	f7fe fd4f 	bl	8003e64 <HAL_GetREVID>
 80053c6:	f241 0303 	movw	r3, #4099	; 0x1003
 80053ca:	4298      	cmp	r0, r3
 80053cc:	f200 81c3 	bhi.w	8005756 <HAL_RCC_OscConfig+0x59a>
 80053d0:	6922      	ldr	r2, [r4, #16]
 80053d2:	6873      	ldr	r3, [r6, #4]
 80053d4:	2a40      	cmp	r2, #64	; 0x40
 80053d6:	f423 337c 	bic.w	r3, r3, #258048	; 0x3f000
 80053da:	bf0c      	ite	eq
 80053dc:	f443 3300 	orreq.w	r3, r3, #131072	; 0x20000
 80053e0:	ea43 3302 	orrne.w	r3, r3, r2, lsl #12
 80053e4:	6073      	str	r3, [r6, #4]
 80053e6:	6823      	ldr	r3, [r4, #0]
 80053e8:	e743      	b.n	8005272 <HAL_RCC_OscConfig+0xb6>
      __HAL_RCC_LSI_DISABLE();
 80053ea:	4b2d      	ldr	r3, [pc, #180]	; (80054a0 <HAL_RCC_OscConfig+0x2e4>)
 80053ec:	6f5a      	ldr	r2, [r3, #116]	; 0x74
      while(__HAL_RCC_GET_FLAG(RCC_FLAG_LSIRDY) != 0U)
 80053ee:	461e      	mov	r6, r3
      __HAL_RCC_LSI_DISABLE();
 80053f0:	f022 0201 	bic.w	r2, r2, #1
 80053f4:	675a      	str	r2, [r3, #116]	; 0x74
      tickstart = HAL_GetTick();
 80053f6:	f7fe fd1d 	bl	8003e34 <HAL_GetTick>
 80053fa:	4605      	mov	r5, r0
      while(__HAL_RCC_GET_FLAG(RCC_FLAG_LSIRDY) != 0U)
 80053fc:	e004      	b.n	8005408 <HAL_RCC_OscConfig+0x24c>
        if((HAL_GetTick() - tickstart ) > LSI_TIMEOUT_VALUE)
 80053fe:	f7fe fd19 	bl	8003e34 <HAL_GetTick>
 8005402:	1b40      	subs	r0, r0, r5
 8005404:	2802      	cmp	r0, #2
 8005406:	d871      	bhi.n	80054ec <HAL_RCC_OscConfig+0x330>
      while(__HAL_RCC_GET_FLAG(RCC_FLAG_LSIRDY) != 0U)
 8005408:	6f73      	ldr	r3, [r6, #116]	; 0x74
 800540a:	0799      	lsls	r1, r3, #30
 800540c:	d4f7      	bmi.n	80053fe <HAL_RCC_OscConfig+0x242>
 800540e:	e74b      	b.n	80052a8 <HAL_RCC_OscConfig+0xec>
    if((temp_sysclksrc == RCC_CFGR_SWS_CSI) || ((temp_sysclksrc == RCC_CFGR_SWS_PLL1) && ((temp_pllckselr & RCC_PLLCKSELR_PLLSRC) == RCC_PLLCKSELR_PLLSRC_CSI)))
 8005410:	f002 0203 	and.w	r2, r2, #3
 8005414:	2a01      	cmp	r2, #1
 8005416:	d18e      	bne.n	8005336 <HAL_RCC_OscConfig+0x17a>
      if((__HAL_RCC_GET_FLAG(RCC_FLAG_CSIRDY) != 0U) && (RCC_OscInitStruct->CSIState != RCC_CSI_ON))
 8005418:	4b21      	ldr	r3, [pc, #132]	; (80054a0 <HAL_RCC_OscConfig+0x2e4>)
 800541a:	681b      	ldr	r3, [r3, #0]
 800541c:	05da      	lsls	r2, r3, #23
 800541e:	d552      	bpl.n	80054c6 <HAL_RCC_OscConfig+0x30a>
 8005420:	69e3      	ldr	r3, [r4, #28]
 8005422:	2b80      	cmp	r3, #128	; 0x80
 8005424:	d04f      	beq.n	80054c6 <HAL_RCC_OscConfig+0x30a>
        return HAL_ERROR;
 8005426:	2001      	movs	r0, #1
}
 8005428:	bdf8      	pop	{r3, r4, r5, r6, r7, pc}
    if((temp_sysclksrc == RCC_CFGR_SWS_HSE) || ((temp_sysclksrc == RCC_CFGR_SWS_PLL1) && ((temp_pllckselr & RCC_PLLCKSELR_PLLSRC) == RCC_PLLCKSELR_PLLSRC_HSE)))
 800542a:	f001 0103 	and.w	r1, r1, #3
 800542e:	2902      	cmp	r1, #2
 8005430:	f47f aed7 	bne.w	80051e2 <HAL_RCC_OscConfig+0x26>
      if((__HAL_RCC_GET_FLAG(RCC_FLAG_HSERDY) != 0U) && (RCC_OscInitStruct->HSEState == RCC_HSE_OFF))
 8005434:	4a1a      	ldr	r2, [pc, #104]	; (80054a0 <HAL_RCC_OscConfig+0x2e4>)
 8005436:	6812      	ldr	r2, [r2, #0]
 8005438:	0392      	lsls	r2, r2, #14
 800543a:	f57f aef6 	bpl.w	800522a <HAL_RCC_OscConfig+0x6e>
 800543e:	6862      	ldr	r2, [r4, #4]
 8005440:	2a00      	cmp	r2, #0
 8005442:	f47f aef2 	bne.w	800522a <HAL_RCC_OscConfig+0x6e>
 8005446:	e7ee      	b.n	8005426 <HAL_RCC_OscConfig+0x26a>
    PWR->CR1 |= PWR_CR1_DBP;
 8005448:	4b16      	ldr	r3, [pc, #88]	; (80054a4 <HAL_RCC_OscConfig+0x2e8>)
 800544a:	681a      	ldr	r2, [r3, #0]
    while((PWR->CR1 & PWR_CR1_DBP) == 0U)
 800544c:	461e      	mov	r6, r3
    PWR->CR1 |= PWR_CR1_DBP;
 800544e:	f442 7280 	orr.w	r2, r2, #256	; 0x100
 8005452:	601a      	str	r2, [r3, #0]
    tickstart = HAL_GetTick();
 8005454:	f7fe fcee 	bl	8003e34 <HAL_GetTick>
 8005458:	4605      	mov	r5, r0
    while((PWR->CR1 & PWR_CR1_DBP) == 0U)
 800545a:	e004      	b.n	8005466 <HAL_RCC_OscConfig+0x2aa>
      if((HAL_GetTick() - tickstart ) > RCC_DBP_TIMEOUT_VALUE)
 800545c:	f7fe fcea 	bl	8003e34 <HAL_GetTick>
 8005460:	1b40      	subs	r0, r0, r5
 8005462:	2864      	cmp	r0, #100	; 0x64
 8005464:	d842      	bhi.n	80054ec <HAL_RCC_OscConfig+0x330>
    while((PWR->CR1 & PWR_CR1_DBP) == 0U)
 8005466:	6833      	ldr	r3, [r6, #0]
 8005468:	05da      	lsls	r2, r3, #23
 800546a:	d5f7      	bpl.n	800545c <HAL_RCC_OscConfig+0x2a0>
    __HAL_RCC_LSE_CONFIG(RCC_OscInitStruct->LSEState);
 800546c:	68a3      	ldr	r3, [r4, #8]
 800546e:	2b01      	cmp	r3, #1
 8005470:	f000 817a 	beq.w	8005768 <HAL_RCC_OscConfig+0x5ac>
 8005474:	2b00      	cmp	r3, #0
 8005476:	f000 814b 	beq.w	8005710 <HAL_RCC_OscConfig+0x554>
 800547a:	2b05      	cmp	r3, #5
 800547c:	4b08      	ldr	r3, [pc, #32]	; (80054a0 <HAL_RCC_OscConfig+0x2e4>)
 800547e:	6f1a      	ldr	r2, [r3, #112]	; 0x70
 8005480:	f000 8187 	beq.w	8005792 <HAL_RCC_OscConfig+0x5d6>
 8005484:	f022 0201 	bic.w	r2, r2, #1
 8005488:	671a      	str	r2, [r3, #112]	; 0x70
 800548a:	6f1a      	ldr	r2, [r3, #112]	; 0x70
 800548c:	f022 0204 	bic.w	r2, r2, #4
 8005490:	671a      	str	r2, [r3, #112]	; 0x70
      tickstart = HAL_GetTick();
 8005492:	f7fe fccf 	bl	8003e34 <HAL_GetTick>
      while(__HAL_RCC_GET_FLAG(RCC_FLAG_LSERDY) == 0U)
 8005496:	4e02      	ldr	r6, [pc, #8]	; (80054a0 <HAL_RCC_OscConfig+0x2e4>)
        if((HAL_GetTick() - tickstart ) > RCC_LSE_TIMEOUT_VALUE)
 8005498:	f241 3788 	movw	r7, #5000	; 0x1388
      tickstart = HAL_GetTick();
 800549c:	4605      	mov	r5, r0
      while(__HAL_RCC_GET_FLAG(RCC_FLAG_LSERDY) == 0U)
 800549e:	e008      	b.n	80054b2 <HAL_RCC_OscConfig+0x2f6>
 80054a0:	58024400 	.word	0x58024400
 80054a4:	58024800 	.word	0x58024800
        if((HAL_GetTick() - tickstart ) > RCC_LSE_TIMEOUT_VALUE)
 80054a8:	f7fe fcc4 	bl	8003e34 <HAL_GetTick>
 80054ac:	1b40      	subs	r0, r0, r5
 80054ae:	42b8      	cmp	r0, r7
 80054b0:	d81c      	bhi.n	80054ec <HAL_RCC_OscConfig+0x330>
      while(__HAL_RCC_GET_FLAG(RCC_FLAG_LSERDY) == 0U)
 80054b2:	6f33      	ldr	r3, [r6, #112]	; 0x70
 80054b4:	079b      	lsls	r3, r3, #30
 80054b6:	d5f7      	bpl.n	80054a8 <HAL_RCC_OscConfig+0x2ec>
 80054b8:	e714      	b.n	80052e4 <HAL_RCC_OscConfig+0x128>
      __HAL_RCC_HSE_CONFIG(RCC_OscInitStruct->HSEState);
 80054ba:	4aae      	ldr	r2, [pc, #696]	; (8005774 <HAL_RCC_OscConfig+0x5b8>)
 80054bc:	6813      	ldr	r3, [r2, #0]
 80054be:	f443 3380 	orr.w	r3, r3, #65536	; 0x10000
 80054c2:	6013      	str	r3, [r2, #0]
      if(RCC_OscInitStruct->HSEState != RCC_HSE_OFF)
 80054c4:	e6a2      	b.n	800520c <HAL_RCC_OscConfig+0x50>
        __HAL_RCC_CSI_CALIBRATIONVALUE_ADJUST(RCC_OscInitStruct->CSICalibrationValue);
 80054c6:	f7fe fccd 	bl	8003e64 <HAL_GetREVID>
 80054ca:	f241 0303 	movw	r3, #4099	; 0x1003
 80054ce:	4298      	cmp	r0, r3
 80054d0:	d870      	bhi.n	80055b4 <HAL_RCC_OscConfig+0x3f8>
 80054d2:	6a22      	ldr	r2, [r4, #32]
 80054d4:	2a20      	cmp	r2, #32
 80054d6:	f000 8153 	beq.w	8005780 <HAL_RCC_OscConfig+0x5c4>
 80054da:	49a6      	ldr	r1, [pc, #664]	; (8005774 <HAL_RCC_OscConfig+0x5b8>)
 80054dc:	684b      	ldr	r3, [r1, #4]
 80054de:	f023 43f8 	bic.w	r3, r3, #2080374784	; 0x7c000000
 80054e2:	ea43 6382 	orr.w	r3, r3, r2, lsl #26
 80054e6:	604b      	str	r3, [r1, #4]
 80054e8:	6823      	ldr	r3, [r4, #0]
 80054ea:	e6c4      	b.n	8005276 <HAL_RCC_OscConfig+0xba>
            return HAL_TIMEOUT;
 80054ec:	2003      	movs	r0, #3
}
 80054ee:	bdf8      	pop	{r3, r4, r5, r6, r7, pc}
      __HAL_RCC_HSE_CONFIG(RCC_OscInitStruct->HSEState);
 80054f0:	4ba0      	ldr	r3, [pc, #640]	; (8005774 <HAL_RCC_OscConfig+0x5b8>)
 80054f2:	681a      	ldr	r2, [r3, #0]
        while(__HAL_RCC_GET_FLAG(RCC_FLAG_HSERDY) != 0U)
 80054f4:	461e      	mov	r6, r3
      __HAL_RCC_HSE_CONFIG(RCC_OscInitStruct->HSEState);
 80054f6:	f422 3280 	bic.w	r2, r2, #65536	; 0x10000
 80054fa:	601a      	str	r2, [r3, #0]
 80054fc:	681a      	ldr	r2, [r3, #0]
 80054fe:	f422 2280 	bic.w	r2, r2, #262144	; 0x40000
 8005502:	601a      	str	r2, [r3, #0]
        tickstart = HAL_GetTick();
 8005504:	f7fe fc96 	bl	8003e34 <HAL_GetTick>
 8005508:	4605      	mov	r5, r0
        while(__HAL_RCC_GET_FLAG(RCC_FLAG_HSERDY) != 0U)
 800550a:	e004      	b.n	8005516 <HAL_RCC_OscConfig+0x35a>
          if((uint32_t) (HAL_GetTick() - tickstart ) > HSE_TIMEOUT_VALUE)
 800550c:	f7fe fc92 	bl	8003e34 <HAL_GetTick>
 8005510:	1b40      	subs	r0, r0, r5
 8005512:	2864      	cmp	r0, #100	; 0x64
 8005514:	d8ea      	bhi.n	80054ec <HAL_RCC_OscConfig+0x330>
        while(__HAL_RCC_GET_FLAG(RCC_FLAG_HSERDY) != 0U)
 8005516:	6833      	ldr	r3, [r6, #0]
 8005518:	0398      	lsls	r0, r3, #14
 800551a:	d4f7      	bmi.n	800550c <HAL_RCC_OscConfig+0x350>
 800551c:	e684      	b.n	8005228 <HAL_RCC_OscConfig+0x6c>
      __HAL_RCC_HSI48_DISABLE();
 800551e:	4b95      	ldr	r3, [pc, #596]	; (8005774 <HAL_RCC_OscConfig+0x5b8>)
 8005520:	681a      	ldr	r2, [r3, #0]
      while(__HAL_RCC_GET_FLAG(RCC_FLAG_HSI48RDY) != 0U)
 8005522:	461e      	mov	r6, r3
      __HAL_RCC_HSI48_DISABLE();
 8005524:	f422 5280 	bic.w	r2, r2, #4096	; 0x1000
 8005528:	601a      	str	r2, [r3, #0]
      tickstart = HAL_GetTick();
 800552a:	f7fe fc83 	bl	8003e34 <HAL_GetTick>
 800552e:	4605      	mov	r5, r0
      while(__HAL_RCC_GET_FLAG(RCC_FLAG_HSI48RDY) != 0U)
 8005530:	e004      	b.n	800553c <HAL_RCC_OscConfig+0x380>
        if((HAL_GetTick() - tickstart ) > HSI48_TIMEOUT_VALUE)
 8005532:	f7fe fc7f 	bl	8003e34 <HAL_GetTick>
 8005536:	1b40      	subs	r0, r0, r5
 8005538:	2802      	cmp	r0, #2
 800553a:	d8d7      	bhi.n	80054ec <HAL_RCC_OscConfig+0x330>
      while(__HAL_RCC_GET_FLAG(RCC_FLAG_HSI48RDY) != 0U)
 800553c:	6833      	ldr	r3, [r6, #0]
 800553e:	0498      	lsls	r0, r3, #18
 8005540:	d4f7      	bmi.n	8005532 <HAL_RCC_OscConfig+0x376>
 8005542:	e6cb      	b.n	80052dc <HAL_RCC_OscConfig+0x120>
        __HAL_RCC_CSI_DISABLE();
 8005544:	4b8b      	ldr	r3, [pc, #556]	; (8005774 <HAL_RCC_OscConfig+0x5b8>)
 8005546:	681a      	ldr	r2, [r3, #0]
        while(__HAL_RCC_GET_FLAG(RCC_FLAG_CSIRDY) != 0U)
 8005548:	461e      	mov	r6, r3
        __HAL_RCC_CSI_DISABLE();
 800554a:	f022 0280 	bic.w	r2, r2, #128	; 0x80
 800554e:	601a      	str	r2, [r3, #0]
        tickstart = HAL_GetTick();
 8005550:	f7fe fc70 	bl	8003e34 <HAL_GetTick>
 8005554:	4605      	mov	r5, r0
        while(__HAL_RCC_GET_FLAG(RCC_FLAG_CSIRDY) != 0U)
 8005556:	e004      	b.n	8005562 <HAL_RCC_OscConfig+0x3a6>
          if((HAL_GetTick() - tickstart ) > CSI_TIMEOUT_VALUE)
 8005558:	f7fe fc6c 	bl	8003e34 <HAL_GetTick>
 800555c:	1b40      	subs	r0, r0, r5
 800555e:	2802      	cmp	r0, #2
 8005560:	d8c4      	bhi.n	80054ec <HAL_RCC_OscConfig+0x330>
        while(__HAL_RCC_GET_FLAG(RCC_FLAG_CSIRDY) != 0U)
 8005562:	6833      	ldr	r3, [r6, #0]
 8005564:	05df      	lsls	r7, r3, #23
 8005566:	d4f7      	bmi.n	8005558 <HAL_RCC_OscConfig+0x39c>
 8005568:	6823      	ldr	r3, [r4, #0]
 800556a:	e684      	b.n	8005276 <HAL_RCC_OscConfig+0xba>
        __HAL_RCC_HSI_CALIBRATIONVALUE_ADJUST(RCC_OscInitStruct->HSICalibrationValue);
 800556c:	4a81      	ldr	r2, [pc, #516]	; (8005774 <HAL_RCC_OscConfig+0x5b8>)
 800556e:	6921      	ldr	r1, [r4, #16]
 8005570:	6853      	ldr	r3, [r2, #4]
 8005572:	f023 43fe 	bic.w	r3, r3, #2130706432	; 0x7f000000
 8005576:	ea43 6301 	orr.w	r3, r3, r1, lsl #24
 800557a:	6053      	str	r3, [r2, #4]
 800557c:	6823      	ldr	r3, [r4, #0]
 800557e:	e678      	b.n	8005272 <HAL_RCC_OscConfig+0xb6>
        __HAL_RCC_HSI_DISABLE();
 8005580:	4b7c      	ldr	r3, [pc, #496]	; (8005774 <HAL_RCC_OscConfig+0x5b8>)
 8005582:	681a      	ldr	r2, [r3, #0]
        while(__HAL_RCC_GET_FLAG(RCC_FLAG_HSIRDY) != 0U)
 8005584:	461e      	mov	r6, r3
        __HAL_RCC_HSI_DISABLE();
 8005586:	f022 0201 	bic.w	r2, r2, #1
 800558a:	601a      	str	r2, [r3, #0]
        tickstart = HAL_GetTick();
 800558c:	f7fe fc52 	bl	8003e34 <HAL_GetTick>
 8005590:	4605      	mov	r5, r0
        while(__HAL_RCC_GET_FLAG(RCC_FLAG_HSIRDY) != 0U)
 8005592:	e004      	b.n	800559e <HAL_RCC_OscConfig+0x3e2>
          if((HAL_GetTick() - tickstart ) > HSI_TIMEOUT_VALUE)
 8005594:	f7fe fc4e 	bl	8003e34 <HAL_GetTick>
 8005598:	1b40      	subs	r0, r0, r5
 800559a:	2802      	cmp	r0, #2
 800559c:	d8a6      	bhi.n	80054ec <HAL_RCC_OscConfig+0x330>
        while(__HAL_RCC_GET_FLAG(RCC_FLAG_HSIRDY) != 0U)
 800559e:	6833      	ldr	r3, [r6, #0]
 80055a0:	0758      	lsls	r0, r3, #29
 80055a2:	d4f7      	bmi.n	8005594 <HAL_RCC_OscConfig+0x3d8>
 80055a4:	6823      	ldr	r3, [r4, #0]
 80055a6:	e664      	b.n	8005272 <HAL_RCC_OscConfig+0xb6>
    if((temp_sysclksrc == RCC_CFGR_SWS_HSI) || ((temp_sysclksrc == RCC_CFGR_SWS_PLL1) && ((temp_pllckselr & RCC_PLLCKSELR_PLLSRC) == RCC_PLLCKSELR_PLLSRC_HSI)))
 80055a8:	0792      	lsls	r2, r2, #30
 80055aa:	f47f aef2 	bne.w	8005392 <HAL_RCC_OscConfig+0x1d6>
 80055ae:	e645      	b.n	800523c <HAL_RCC_OscConfig+0x80>
    return HAL_ERROR;
 80055b0:	2001      	movs	r0, #1
}
 80055b2:	4770      	bx	lr
        __HAL_RCC_CSI_CALIBRATIONVALUE_ADJUST(RCC_OscInitStruct->CSICalibrationValue);
 80055b4:	4a6f      	ldr	r2, [pc, #444]	; (8005774 <HAL_RCC_OscConfig+0x5b8>)
 80055b6:	6a21      	ldr	r1, [r4, #32]
 80055b8:	68d3      	ldr	r3, [r2, #12]
 80055ba:	f023 537c 	bic.w	r3, r3, #1056964608	; 0x3f000000
 80055be:	ea43 6301 	orr.w	r3, r3, r1, lsl #24
 80055c2:	60d3      	str	r3, [r2, #12]
 80055c4:	6823      	ldr	r3, [r4, #0]
 80055c6:	e656      	b.n	8005276 <HAL_RCC_OscConfig+0xba>
        tickstart = HAL_GetTick();
 80055c8:	f7fe fc34 	bl	8003e34 <HAL_GetTick>
 80055cc:	4606      	mov	r6, r0
        while(__HAL_RCC_GET_FLAG(RCC_FLAG_PLLRDY) != 0U)
 80055ce:	e004      	b.n	80055da <HAL_RCC_OscConfig+0x41e>
          if((HAL_GetTick() - tickstart ) > PLL_TIMEOUT_VALUE)
 80055d0:	f7fe fc30 	bl	8003e34 <HAL_GetTick>
 80055d4:	1b80      	subs	r0, r0, r6
 80055d6:	2802      	cmp	r0, #2
 80055d8:	d888      	bhi.n	80054ec <HAL_RCC_OscConfig+0x330>
        while(__HAL_RCC_GET_FLAG(RCC_FLAG_PLLRDY) != 0U)
 80055da:	682b      	ldr	r3, [r5, #0]
 80055dc:	0199      	lsls	r1, r3, #6
 80055de:	d4f7      	bmi.n	80055d0 <HAL_RCC_OscConfig+0x414>
        __HAL_RCC_PLL_CONFIG(RCC_OscInitStruct->PLL.PLLSource,
 80055e0:	6aaa      	ldr	r2, [r5, #40]	; 0x28
 80055e2:	4b65      	ldr	r3, [pc, #404]	; (8005778 <HAL_RCC_OscConfig+0x5bc>)
 80055e4:	6aa0      	ldr	r0, [r4, #40]	; 0x28
 80055e6:	4013      	ands	r3, r2
 80055e8:	6ae2      	ldr	r2, [r4, #44]	; 0x2c
         __HAL_RCC_PLLFRACN_CONFIG(RCC_OscInitStruct->PLL.PLLFRACN);
 80055ea:	4964      	ldr	r1, [pc, #400]	; (800577c <HAL_RCC_OscConfig+0x5c0>)
        __HAL_RCC_PLL_CONFIG(RCC_OscInitStruct->PLL.PLLSource,
 80055ec:	4303      	orrs	r3, r0
        while(__HAL_RCC_GET_FLAG(RCC_FLAG_PLLRDY) == 0U)
 80055ee:	4e61      	ldr	r6, [pc, #388]	; (8005774 <HAL_RCC_OscConfig+0x5b8>)
        __HAL_RCC_PLL_CONFIG(RCC_OscInitStruct->PLL.PLLSource,
 80055f0:	ea43 1302 	orr.w	r3, r3, r2, lsl #4
 80055f4:	62ab      	str	r3, [r5, #40]	; 0x28
 80055f6:	6b27      	ldr	r7, [r4, #48]	; 0x30
 80055f8:	e9d4 320d 	ldrd	r3, r2, [r4, #52]	; 0x34
 80055fc:	3f01      	subs	r7, #1
 80055fe:	1e50      	subs	r0, r2, #1
 8005600:	3b01      	subs	r3, #1
 8005602:	6be2      	ldr	r2, [r4, #60]	; 0x3c
 8005604:	f3c7 0708 	ubfx	r7, r7, #0, #9
 8005608:	025b      	lsls	r3, r3, #9
 800560a:	0400      	lsls	r0, r0, #16
 800560c:	3a01      	subs	r2, #1
 800560e:	b29b      	uxth	r3, r3
 8005610:	f400 00fe 	and.w	r0, r0, #8323072	; 0x7f0000
 8005614:	0612      	lsls	r2, r2, #24
 8005616:	4303      	orrs	r3, r0
 8005618:	f002 42fe 	and.w	r2, r2, #2130706432	; 0x7f000000
 800561c:	433b      	orrs	r3, r7
 800561e:	4313      	orrs	r3, r2
 8005620:	632b      	str	r3, [r5, #48]	; 0x30
         __HAL_RCC_PLLFRACN_DISABLE();
 8005622:	6aeb      	ldr	r3, [r5, #44]	; 0x2c
 8005624:	f023 0301 	bic.w	r3, r3, #1
 8005628:	62eb      	str	r3, [r5, #44]	; 0x2c
         __HAL_RCC_PLLFRACN_CONFIG(RCC_OscInitStruct->PLL.PLLFRACN);
 800562a:	6b6a      	ldr	r2, [r5, #52]	; 0x34
 800562c:	6ca3      	ldr	r3, [r4, #72]	; 0x48
 800562e:	4011      	ands	r1, r2
 8005630:	ea41 01c3 	orr.w	r1, r1, r3, lsl #3
 8005634:	6369      	str	r1, [r5, #52]	; 0x34
        __HAL_RCC_PLL_VCIRANGE(RCC_OscInitStruct->PLL.PLLRGE) ;
 8005636:	6aeb      	ldr	r3, [r5, #44]	; 0x2c
 8005638:	6c22      	ldr	r2, [r4, #64]	; 0x40
 800563a:	f023 030c 	bic.w	r3, r3, #12
 800563e:	4313      	orrs	r3, r2
 8005640:	62eb      	str	r3, [r5, #44]	; 0x2c
        __HAL_RCC_PLL_VCORANGE(RCC_OscInitStruct->PLL.PLLVCOSEL) ;
 8005642:	6aeb      	ldr	r3, [r5, #44]	; 0x2c
 8005644:	6c62      	ldr	r2, [r4, #68]	; 0x44
 8005646:	f023 0302 	bic.w	r3, r3, #2
 800564a:	4313      	orrs	r3, r2
 800564c:	62eb      	str	r3, [r5, #44]	; 0x2c
         __HAL_RCC_PLLCLKOUT_ENABLE(RCC_PLL1_DIVP);
 800564e:	6aeb      	ldr	r3, [r5, #44]	; 0x2c
 8005650:	f443 3380 	orr.w	r3, r3, #65536	; 0x10000
 8005654:	62eb      	str	r3, [r5, #44]	; 0x2c
         __HAL_RCC_PLLCLKOUT_ENABLE(RCC_PLL1_DIVQ);
 8005656:	6aeb      	ldr	r3, [r5, #44]	; 0x2c
 8005658:	f443 3300 	orr.w	r3, r3, #131072	; 0x20000
 800565c:	62eb      	str	r3, [r5, #44]	; 0x2c
         __HAL_RCC_PLLCLKOUT_ENABLE(RCC_PLL1_DIVR);
 800565e:	6aeb      	ldr	r3, [r5, #44]	; 0x2c
 8005660:	f443 2380 	orr.w	r3, r3, #262144	; 0x40000
 8005664:	62eb      	str	r3, [r5, #44]	; 0x2c
         __HAL_RCC_PLLFRACN_ENABLE();
 8005666:	6aeb      	ldr	r3, [r5, #44]	; 0x2c
 8005668:	f043 0301 	orr.w	r3, r3, #1
 800566c:	62eb      	str	r3, [r5, #44]	; 0x2c
        __HAL_RCC_PLL_ENABLE();
 800566e:	682b      	ldr	r3, [r5, #0]
 8005670:	f043 7380 	orr.w	r3, r3, #16777216	; 0x1000000
 8005674:	602b      	str	r3, [r5, #0]
        tickstart = HAL_GetTick();
 8005676:	f7fe fbdd 	bl	8003e34 <HAL_GetTick>
 800567a:	4604      	mov	r4, r0
        while(__HAL_RCC_GET_FLAG(RCC_FLAG_PLLRDY) == 0U)
 800567c:	e005      	b.n	800568a <HAL_RCC_OscConfig+0x4ce>
          if((HAL_GetTick() - tickstart ) > PLL_TIMEOUT_VALUE)
 800567e:	f7fe fbd9 	bl	8003e34 <HAL_GetTick>
 8005682:	1b00      	subs	r0, r0, r4
 8005684:	2802      	cmp	r0, #2
 8005686:	f63f af31 	bhi.w	80054ec <HAL_RCC_OscConfig+0x330>
        while(__HAL_RCC_GET_FLAG(RCC_FLAG_PLLRDY) == 0U)
 800568a:	6833      	ldr	r3, [r6, #0]
 800568c:	019a      	lsls	r2, r3, #6
 800568e:	d5f6      	bpl.n	800567e <HAL_RCC_OscConfig+0x4c2>
 8005690:	e646      	b.n	8005320 <HAL_RCC_OscConfig+0x164>
      if(((RCC_OscInitStruct->PLL.PLLState) == RCC_PLL_OFF) ||
 8005692:	2801      	cmp	r0, #1
      temp1_pllckcfg = RCC->PLLCKSELR;
 8005694:	6a9a      	ldr	r2, [r3, #40]	; 0x28
      temp2_pllckcfg = RCC->PLL1DIVR;
 8005696:	6b1d      	ldr	r5, [r3, #48]	; 0x30
      if(((RCC_OscInitStruct->PLL.PLLState) == RCC_PLL_OFF) ||
 8005698:	f43f ae43 	beq.w	8005322 <HAL_RCC_OscConfig+0x166>
	 (READ_BIT(temp1_pllckcfg, RCC_PLLCKSELR_PLLSRC) != RCC_OscInitStruct->PLL.PLLSource) ||
 800569c:	f002 0303 	and.w	r3, r2, #3
      if(((RCC_OscInitStruct->PLL.PLLState) == RCC_PLL_OFF) ||
 80056a0:	6aa1      	ldr	r1, [r4, #40]	; 0x28
 80056a2:	428b      	cmp	r3, r1
 80056a4:	f47f aebf 	bne.w	8005426 <HAL_RCC_OscConfig+0x26a>
         ((READ_BIT(temp1_pllckcfg, RCC_PLLCKSELR_DIVM1) >> RCC_PLLCKSELR_DIVM1_Pos) != RCC_OscInitStruct->PLL.PLLM) ||
 80056a8:	f3c2 1205 	ubfx	r2, r2, #4, #6
	 (READ_BIT(temp1_pllckcfg, RCC_PLLCKSELR_PLLSRC) != RCC_OscInitStruct->PLL.PLLSource) ||
 80056ac:	6ae3      	ldr	r3, [r4, #44]	; 0x2c
 80056ae:	429a      	cmp	r2, r3
 80056b0:	f47f aeb9 	bne.w	8005426 <HAL_RCC_OscConfig+0x26a>
         (READ_BIT(temp2_pllckcfg, RCC_PLL1DIVR_N1) != (RCC_OscInitStruct->PLL.PLLN - 1U)) ||
 80056b4:	6b23      	ldr	r3, [r4, #48]	; 0x30
 80056b6:	f3c5 0208 	ubfx	r2, r5, #0, #9
 80056ba:	3b01      	subs	r3, #1
         ((READ_BIT(temp1_pllckcfg, RCC_PLLCKSELR_DIVM1) >> RCC_PLLCKSELR_DIVM1_Pos) != RCC_OscInitStruct->PLL.PLLM) ||
 80056bc:	429a      	cmp	r2, r3
 80056be:	f47f aeb2 	bne.w	8005426 <HAL_RCC_OscConfig+0x26a>
         ((READ_BIT(temp2_pllckcfg, RCC_PLL1DIVR_P1) >> RCC_PLL1DIVR_P1_Pos) != (RCC_OscInitStruct->PLL.PLLP - 1U)) ||
 80056c2:	6b63      	ldr	r3, [r4, #52]	; 0x34
 80056c4:	f3c5 2246 	ubfx	r2, r5, #9, #7
 80056c8:	3b01      	subs	r3, #1
         (READ_BIT(temp2_pllckcfg, RCC_PLL1DIVR_N1) != (RCC_OscInitStruct->PLL.PLLN - 1U)) ||
 80056ca:	429a      	cmp	r2, r3
 80056cc:	f47f aeab 	bne.w	8005426 <HAL_RCC_OscConfig+0x26a>
         ((READ_BIT(temp2_pllckcfg, RCC_PLL1DIVR_Q1) >> RCC_PLL1DIVR_Q1_Pos) != (RCC_OscInitStruct->PLL.PLLQ - 1U)) ||
 80056d0:	6ba3      	ldr	r3, [r4, #56]	; 0x38
 80056d2:	f3c5 4206 	ubfx	r2, r5, #16, #7
 80056d6:	3b01      	subs	r3, #1
         ((READ_BIT(temp2_pllckcfg, RCC_PLL1DIVR_P1) >> RCC_PLL1DIVR_P1_Pos) != (RCC_OscInitStruct->PLL.PLLP - 1U)) ||
 80056d8:	429a      	cmp	r2, r3
 80056da:	f47f aea4 	bne.w	8005426 <HAL_RCC_OscConfig+0x26a>
         ((READ_BIT(temp2_pllckcfg, RCC_PLL1DIVR_R1) >> RCC_PLL1DIVR_R1_Pos) != (RCC_OscInitStruct->PLL.PLLR - 1U)))
 80056de:	6be0      	ldr	r0, [r4, #60]	; 0x3c
 80056e0:	f3c5 6506 	ubfx	r5, r5, #24, #7
 80056e4:	3801      	subs	r0, #1
  return HAL_OK;
 80056e6:	1a28      	subs	r0, r5, r0
 80056e8:	bf18      	it	ne
 80056ea:	2001      	movne	r0, #1
}
 80056ec:	bdf8      	pop	{r3, r4, r5, r6, r7, pc}
      __HAL_RCC_HSE_CONFIG(RCC_OscInitStruct->HSEState);
 80056ee:	f442 2280 	orr.w	r2, r2, #262144	; 0x40000
 80056f2:	601a      	str	r2, [r3, #0]
 80056f4:	681a      	ldr	r2, [r3, #0]
 80056f6:	f442 3280 	orr.w	r2, r2, #65536	; 0x10000
 80056fa:	601a      	str	r2, [r3, #0]
 80056fc:	e586      	b.n	800520c <HAL_RCC_OscConfig+0x50>
        __HAL_RCC_HSI_CALIBRATIONVALUE_ADJUST(RCC_OscInitStruct->HSICalibrationValue);
 80056fe:	4a1d      	ldr	r2, [pc, #116]	; (8005774 <HAL_RCC_OscConfig+0x5b8>)
 8005700:	6853      	ldr	r3, [r2, #4]
 8005702:	f423 337c 	bic.w	r3, r3, #258048	; 0x3f000
 8005706:	f443 3300 	orr.w	r3, r3, #131072	; 0x20000
 800570a:	6053      	str	r3, [r2, #4]
 800570c:	6823      	ldr	r3, [r4, #0]
 800570e:	e5b0      	b.n	8005272 <HAL_RCC_OscConfig+0xb6>
    __HAL_RCC_LSE_CONFIG(RCC_OscInitStruct->LSEState);
 8005710:	4b18      	ldr	r3, [pc, #96]	; (8005774 <HAL_RCC_OscConfig+0x5b8>)
        if((HAL_GetTick() - tickstart ) > RCC_LSE_TIMEOUT_VALUE)
 8005712:	f241 3788 	movw	r7, #5000	; 0x1388
    __HAL_RCC_LSE_CONFIG(RCC_OscInitStruct->LSEState);
 8005716:	6f1a      	ldr	r2, [r3, #112]	; 0x70
      while(__HAL_RCC_GET_FLAG(RCC_FLAG_LSERDY) != 0U)
 8005718:	461e      	mov	r6, r3
    __HAL_RCC_LSE_CONFIG(RCC_OscInitStruct->LSEState);
 800571a:	f022 0201 	bic.w	r2, r2, #1
 800571e:	671a      	str	r2, [r3, #112]	; 0x70
 8005720:	6f1a      	ldr	r2, [r3, #112]	; 0x70
 8005722:	f022 0204 	bic.w	r2, r2, #4
 8005726:	671a      	str	r2, [r3, #112]	; 0x70
      tickstart = HAL_GetTick();
 8005728:	f7fe fb84 	bl	8003e34 <HAL_GetTick>
 800572c:	4605      	mov	r5, r0
      while(__HAL_RCC_GET_FLAG(RCC_FLAG_LSERDY) != 0U)
 800572e:	e005      	b.n	800573c <HAL_RCC_OscConfig+0x580>
        if((HAL_GetTick() - tickstart ) > RCC_LSE_TIMEOUT_VALUE)
 8005730:	f7fe fb80 	bl	8003e34 <HAL_GetTick>
 8005734:	1b40      	subs	r0, r0, r5
 8005736:	42b8      	cmp	r0, r7
 8005738:	f63f aed8 	bhi.w	80054ec <HAL_RCC_OscConfig+0x330>
      while(__HAL_RCC_GET_FLAG(RCC_FLAG_LSERDY) != 0U)
 800573c:	6f33      	ldr	r3, [r6, #112]	; 0x70
 800573e:	0798      	lsls	r0, r3, #30
 8005740:	d4f6      	bmi.n	8005730 <HAL_RCC_OscConfig+0x574>
 8005742:	e5cf      	b.n	80052e4 <HAL_RCC_OscConfig+0x128>
        __HAL_RCC_CSI_CALIBRATIONVALUE_ADJUST(RCC_OscInitStruct->CSICalibrationValue);
 8005744:	68f3      	ldr	r3, [r6, #12]
 8005746:	6a22      	ldr	r2, [r4, #32]
 8005748:	f023 537c 	bic.w	r3, r3, #1056964608	; 0x3f000000
 800574c:	ea43 6302 	orr.w	r3, r3, r2, lsl #24
 8005750:	60f3      	str	r3, [r6, #12]
 8005752:	6823      	ldr	r3, [r4, #0]
 8005754:	e58f      	b.n	8005276 <HAL_RCC_OscConfig+0xba>
        __HAL_RCC_HSI_CALIBRATIONVALUE_ADJUST(RCC_OscInitStruct->HSICalibrationValue);
 8005756:	6873      	ldr	r3, [r6, #4]
 8005758:	6922      	ldr	r2, [r4, #16]
 800575a:	f023 43fe 	bic.w	r3, r3, #2130706432	; 0x7f000000
 800575e:	ea43 6302 	orr.w	r3, r3, r2, lsl #24
 8005762:	6073      	str	r3, [r6, #4]
 8005764:	6823      	ldr	r3, [r4, #0]
 8005766:	e584      	b.n	8005272 <HAL_RCC_OscConfig+0xb6>
    __HAL_RCC_LSE_CONFIG(RCC_OscInitStruct->LSEState);
 8005768:	4a02      	ldr	r2, [pc, #8]	; (8005774 <HAL_RCC_OscConfig+0x5b8>)
 800576a:	6f13      	ldr	r3, [r2, #112]	; 0x70
 800576c:	f043 0301 	orr.w	r3, r3, #1
 8005770:	6713      	str	r3, [r2, #112]	; 0x70
    if((RCC_OscInitStruct->LSEState) != RCC_LSE_OFF)
 8005772:	e68e      	b.n	8005492 <HAL_RCC_OscConfig+0x2d6>
 8005774:	58024400 	.word	0x58024400
 8005778:	fffffc0c 	.word	0xfffffc0c
 800577c:	ffff0007 	.word	0xffff0007
        __HAL_RCC_CSI_CALIBRATIONVALUE_ADJUST(RCC_OscInitStruct->CSICalibrationValue);
 8005780:	4a08      	ldr	r2, [pc, #32]	; (80057a4 <HAL_RCC_OscConfig+0x5e8>)
 8005782:	6853      	ldr	r3, [r2, #4]
 8005784:	f023 43f8 	bic.w	r3, r3, #2080374784	; 0x7c000000
 8005788:	f043 4380 	orr.w	r3, r3, #1073741824	; 0x40000000
 800578c:	6053      	str	r3, [r2, #4]
 800578e:	6823      	ldr	r3, [r4, #0]
 8005790:	e571      	b.n	8005276 <HAL_RCC_OscConfig+0xba>
    __HAL_RCC_LSE_CONFIG(RCC_OscInitStruct->LSEState);
 8005792:	f042 0204 	orr.w	r2, r2, #4
 8005796:	671a      	str	r2, [r3, #112]	; 0x70
 8005798:	6f1a      	ldr	r2, [r3, #112]	; 0x70
 800579a:	f042 0201 	orr.w	r2, r2, #1
 800579e:	671a      	str	r2, [r3, #112]	; 0x70
 80057a0:	e677      	b.n	8005492 <HAL_RCC_OscConfig+0x2d6>
 80057a2:	bf00      	nop
 80057a4:	58024400 	.word	0x58024400

080057a8 <HAL_RCC_GetSysClockFreq>:
  float_t fracn1, pllvco;
  uint32_t sysclockfreq;

  /* Get SYSCLK source -------------------------------------------------------*/

  switch (RCC->CFGR & RCC_CFGR_SWS)
 80057a8:	4a47      	ldr	r2, [pc, #284]	; (80058c8 <HAL_RCC_GetSysClockFreq+0x120>)
 80057aa:	6913      	ldr	r3, [r2, #16]
 80057ac:	f003 0338 	and.w	r3, r3, #56	; 0x38
 80057b0:	2b10      	cmp	r3, #16
 80057b2:	d004      	beq.n	80057be <HAL_RCC_GetSysClockFreq+0x16>
 80057b4:	2b18      	cmp	r3, #24
 80057b6:	d00d      	beq.n	80057d4 <HAL_RCC_GetSysClockFreq+0x2c>
 80057b8:	b11b      	cbz	r3, 80057c2 <HAL_RCC_GetSysClockFreq+0x1a>
      }

    break;

  case RCC_CFGR_SWS_CSI:  /* CSI used as system clock  source */
    sysclockfreq = CSI_VALUE;
 80057ba:	4844      	ldr	r0, [pc, #272]	; (80058cc <HAL_RCC_GetSysClockFreq+0x124>)
 80057bc:	4770      	bx	lr
  switch (RCC->CFGR & RCC_CFGR_SWS)
 80057be:	4844      	ldr	r0, [pc, #272]	; (80058d0 <HAL_RCC_GetSysClockFreq+0x128>)
 80057c0:	4770      	bx	lr
   if (__HAL_RCC_GET_FLAG(RCC_FLAG_HSIDIV) != 0U)
 80057c2:	6813      	ldr	r3, [r2, #0]
 80057c4:	0699      	lsls	r1, r3, #26
 80057c6:	d54a      	bpl.n	800585e <HAL_RCC_GetSysClockFreq+0xb6>
        sysclockfreq = (uint32_t) (HSI_VALUE >> (__HAL_RCC_GET_HSI_DIVIDER()>> 3));
 80057c8:	6813      	ldr	r3, [r2, #0]
 80057ca:	4842      	ldr	r0, [pc, #264]	; (80058d4 <HAL_RCC_GetSysClockFreq+0x12c>)
 80057cc:	f3c3 03c1 	ubfx	r3, r3, #3, #2
 80057d0:	40d8      	lsrs	r0, r3
 80057d2:	4770      	bx	lr
  case RCC_CFGR_SWS_PLL1:  /* PLL1 used as system clock  source */

    /* PLL_VCO = (HSE_VALUE or HSI_VALUE or CSI_VALUE/ PLLM) * PLLN
    SYSCLK = PLL_VCO / PLLR
    */
    pllsource = (RCC->PLLCKSELR & RCC_PLLCKSELR_PLLSRC);
 80057d4:	6a93      	ldr	r3, [r2, #40]	; 0x28
{
 80057d6:	b430      	push	{r4, r5}
    pllm = ((RCC->PLLCKSELR & RCC_PLLCKSELR_DIVM1)>> 4)  ;
 80057d8:	6a94      	ldr	r4, [r2, #40]	; 0x28
    pllfracen = ((RCC-> PLLCFGR & RCC_PLLCFGR_PLL1FRACEN)>>RCC_PLLCFGR_PLL1FRACEN_Pos);
 80057da:	6ad1      	ldr	r1, [r2, #44]	; 0x2c
    fracn1 = (float_t)(uint32_t)(pllfracen* ((RCC->PLL1FRACR & RCC_PLL1FRACR_FRACN1)>> 3));

    if (pllm != 0U)
 80057dc:	f414 7f7c 	tst.w	r4, #1008	; 0x3f0
    pllm = ((RCC->PLLCKSELR & RCC_PLLCKSELR_DIVM1)>> 4)  ;
 80057e0:	f3c4 1005 	ubfx	r0, r4, #4, #6
    fracn1 = (float_t)(uint32_t)(pllfracen* ((RCC->PLL1FRACR & RCC_PLL1FRACR_FRACN1)>> 3));
 80057e4:	6b55      	ldr	r5, [r2, #52]	; 0x34
    if (pllm != 0U)
 80057e6:	d038      	beq.n	800585a <HAL_RCC_GetSysClockFreq+0xb2>
    fracn1 = (float_t)(uint32_t)(pllfracen* ((RCC->PLL1FRACR & RCC_PLL1FRACR_FRACN1)>> 3));
 80057e8:	f3c5 05cc 	ubfx	r5, r5, #3, #13
    pllfracen = ((RCC-> PLLCFGR & RCC_PLLCFGR_PLL1FRACEN)>>RCC_PLLCFGR_PLL1FRACEN_Pos);
 80057ec:	f001 0101 	and.w	r1, r1, #1
    pllsource = (RCC->PLLCKSELR & RCC_PLLCKSELR_PLLSRC);
 80057f0:	f003 0303 	and.w	r3, r3, #3
    fracn1 = (float_t)(uint32_t)(pllfracen* ((RCC->PLL1FRACR & RCC_PLL1FRACR_FRACN1)>> 3));
 80057f4:	fb01 f105 	mul.w	r1, r1, r5
 80057f8:	2b01      	cmp	r3, #1
 80057fa:	ee07 1a90 	vmov	s15, r1
 80057fe:	eeb8 7ae7 	vcvt.f32.s32	s14, s15
    {
      switch (pllsource)
 8005802:	d002      	beq.n	800580a <HAL_RCC_GetSysClockFreq+0x62>
 8005804:	2b02      	cmp	r3, #2
 8005806:	d02c      	beq.n	8005862 <HAL_RCC_GetSysClockFreq+0xba>
 8005808:	b393      	cbz	r3, 8005870 <HAL_RCC_GetSysClockFreq+0xc8>
      case RCC_PLLSOURCE_HSE:  /* HSE used as PLL clock source */
        pllvco = ((float_t)HSE_VALUE / (float_t)pllm) * ((float_t)(uint32_t)(RCC->PLL1DIVR & RCC_PLL1DIVR_N1) + (fracn1/(float_t)0x2000) +(float_t)1 );
        break;

      default:
        pllvco = ((float_t)CSI_VALUE / (float_t)pllm) * ((float_t)(uint32_t)(RCC->PLL1DIVR & RCC_PLL1DIVR_N1) + (fracn1/(float_t)0x2000) +(float_t)1 );
 800580a:	ee07 0a90 	vmov	s15, r0
 800580e:	ed9f 5a32 	vldr	s10, [pc, #200]	; 80058d8 <HAL_RCC_GetSysClockFreq+0x130>
 8005812:	eef8 7ae7 	vcvt.f32.s32	s15, s15
 8005816:	6b13      	ldr	r3, [r2, #48]	; 0x30
 8005818:	eec5 6a27 	vdiv.f32	s13, s10, s15
 800581c:	eddf 5a2f 	vldr	s11, [pc, #188]	; 80058dc <HAL_RCC_GetSysClockFreq+0x134>
 8005820:	f3c3 0308 	ubfx	r3, r3, #0, #9
 8005824:	ee07 3a90 	vmov	s15, r3
 8005828:	eeb7 6a00 	vmov.f32	s12, #112	; 0x3f800000  1.0
 800582c:	eef8 7ae7 	vcvt.f32.s32	s15, s15
 8005830:	eee7 7a25 	vfma.f32	s15, s14, s11
 8005834:	ee77 7a86 	vadd.f32	s15, s15, s12
 8005838:	ee66 6aa7 	vmul.f32	s13, s13, s15
        break;
      }
      pllp = (((RCC->PLL1DIVR & RCC_PLL1DIVR_P1) >>9) + 1U ) ;
 800583c:	4b22      	ldr	r3, [pc, #136]	; (80058c8 <HAL_RCC_GetSysClockFreq+0x120>)
 800583e:	6b1b      	ldr	r3, [r3, #48]	; 0x30
 8005840:	f3c3 2346 	ubfx	r3, r3, #9, #7
 8005844:	3301      	adds	r3, #1
      sysclockfreq =  (uint32_t)(float_t)(pllvco/(float_t)pllp);
 8005846:	ee07 3a90 	vmov	s15, r3
 800584a:	eeb8 7ae7 	vcvt.f32.s32	s14, s15
 800584e:	eec6 7a87 	vdiv.f32	s15, s13, s14
 8005852:	eefc 7ae7 	vcvt.u32.f32	s15, s15
 8005856:	ee17 0a90 	vmov	r0, s15
    sysclockfreq = CSI_VALUE;
    break;
  }

  return sysclockfreq;
}
 800585a:	bc30      	pop	{r4, r5}
 800585c:	4770      	bx	lr
        sysclockfreq = (uint32_t) HSI_VALUE;
 800585e:	481d      	ldr	r0, [pc, #116]	; (80058d4 <HAL_RCC_GetSysClockFreq+0x12c>)
}
 8005860:	4770      	bx	lr
        pllvco = ((float_t)HSE_VALUE / (float_t)pllm) * ((float_t)(uint32_t)(RCC->PLL1DIVR & RCC_PLL1DIVR_N1) + (fracn1/(float_t)0x2000) +(float_t)1 );
 8005862:	ee07 0a90 	vmov	s15, r0
 8005866:	ed9f 5a1e 	vldr	s10, [pc, #120]	; 80058e0 <HAL_RCC_GetSysClockFreq+0x138>
 800586a:	eef8 7ae7 	vcvt.f32.s32	s15, s15
 800586e:	e7d2      	b.n	8005816 <HAL_RCC_GetSysClockFreq+0x6e>
       if (__HAL_RCC_GET_FLAG(RCC_FLAG_HSIDIV) != 0U)
 8005870:	6813      	ldr	r3, [r2, #0]
 8005872:	069b      	lsls	r3, r3, #26
 8005874:	d520      	bpl.n	80058b8 <HAL_RCC_GetSysClockFreq+0x110>
          hsivalue= (HSI_VALUE >> (__HAL_RCC_GET_HSI_DIVIDER()>> 3));
 8005876:	6813      	ldr	r3, [r2, #0]
          pllvco = ( (float_t)hsivalue / (float_t)pllm) * ((float_t)(uint32_t)(RCC->PLL1DIVR & RCC_PLL1DIVR_N1) + (fracn1/(float_t)0x2000) +(float_t)1 );
 8005878:	ee07 0a90 	vmov	s15, r0
          hsivalue= (HSI_VALUE >> (__HAL_RCC_GET_HSI_DIVIDER()>> 3));
 800587c:	4915      	ldr	r1, [pc, #84]	; (80058d4 <HAL_RCC_GetSysClockFreq+0x12c>)
          pllvco = ( (float_t)hsivalue / (float_t)pllm) * ((float_t)(uint32_t)(RCC->PLL1DIVR & RCC_PLL1DIVR_N1) + (fracn1/(float_t)0x2000) +(float_t)1 );
 800587e:	eeb7 5a00 	vmov.f32	s10, #112	; 0x3f800000  1.0
          hsivalue= (HSI_VALUE >> (__HAL_RCC_GET_HSI_DIVIDER()>> 3));
 8005882:	f3c3 00c1 	ubfx	r0, r3, #3, #2
          pllvco = ( (float_t)hsivalue / (float_t)pllm) * ((float_t)(uint32_t)(RCC->PLL1DIVR & RCC_PLL1DIVR_N1) + (fracn1/(float_t)0x2000) +(float_t)1 );
 8005886:	eef8 7ae7 	vcvt.f32.s32	s15, s15
 800588a:	6b13      	ldr	r3, [r2, #48]	; 0x30
          hsivalue= (HSI_VALUE >> (__HAL_RCC_GET_HSI_DIVIDER()>> 3));
 800588c:	40c1      	lsrs	r1, r0
          pllvco = ( (float_t)hsivalue / (float_t)pllm) * ((float_t)(uint32_t)(RCC->PLL1DIVR & RCC_PLL1DIVR_N1) + (fracn1/(float_t)0x2000) +(float_t)1 );
 800588e:	eddf 4a13 	vldr	s9, [pc, #76]	; 80058dc <HAL_RCC_GetSysClockFreq+0x134>
 8005892:	f3c3 0308 	ubfx	r3, r3, #0, #9
 8005896:	ee06 1a10 	vmov	s12, r1
 800589a:	ee06 3a90 	vmov	s13, r3
 800589e:	eeb8 6ac6 	vcvt.f32.s32	s12, s12
 80058a2:	eef8 6ae6 	vcvt.f32.s32	s13, s13
 80058a6:	eec6 5a27 	vdiv.f32	s11, s12, s15
 80058aa:	eee7 6a24 	vfma.f32	s13, s14, s9
 80058ae:	ee76 6a85 	vadd.f32	s13, s13, s10
 80058b2:	ee66 6aa5 	vmul.f32	s13, s13, s11
 80058b6:	e7c1      	b.n	800583c <HAL_RCC_GetSysClockFreq+0x94>
          pllvco = ((float_t)HSI_VALUE / (float_t)pllm) * ((float_t)(uint32_t)(RCC->PLL1DIVR & RCC_PLL1DIVR_N1) + (fracn1/(float_t)0x2000) +(float_t)1 );
 80058b8:	ee07 0a90 	vmov	s15, r0
 80058bc:	ed9f 5a09 	vldr	s10, [pc, #36]	; 80058e4 <HAL_RCC_GetSysClockFreq+0x13c>
 80058c0:	eef8 7ae7 	vcvt.f32.s32	s15, s15
 80058c4:	e7a7      	b.n	8005816 <HAL_RCC_GetSysClockFreq+0x6e>
 80058c6:	bf00      	nop
 80058c8:	58024400 	.word	0x58024400
 80058cc:	003d0900 	.word	0x003d0900
 80058d0:	017d7840 	.word	0x017d7840
 80058d4:	03d09000 	.word	0x03d09000
 80058d8:	4a742400 	.word	0x4a742400
 80058dc:	39000000 	.word	0x39000000
 80058e0:	4bbebc20 	.word	0x4bbebc20
 80058e4:	4c742400 	.word	0x4c742400

080058e8 <HAL_RCC_ClockConfig>:
  if(RCC_ClkInitStruct == NULL)
 80058e8:	2800      	cmp	r0, #0
 80058ea:	f000 810e 	beq.w	8005b0a <HAL_RCC_ClockConfig+0x222>
  if(FLatency > __HAL_FLASH_GET_LATENCY())
 80058ee:	4a8d      	ldr	r2, [pc, #564]	; (8005b24 <HAL_RCC_ClockConfig+0x23c>)
 80058f0:	6813      	ldr	r3, [r2, #0]
 80058f2:	f003 030f 	and.w	r3, r3, #15
 80058f6:	428b      	cmp	r3, r1
{
 80058f8:	e92d 41f0 	stmdb	sp!, {r4, r5, r6, r7, r8, lr}
 80058fc:	4604      	mov	r4, r0
 80058fe:	460d      	mov	r5, r1
  if(FLatency > __HAL_FLASH_GET_LATENCY())
 8005900:	d20c      	bcs.n	800591c <HAL_RCC_ClockConfig+0x34>
    __HAL_FLASH_SET_LATENCY(FLatency);
 8005902:	6813      	ldr	r3, [r2, #0]
 8005904:	f023 030f 	bic.w	r3, r3, #15
 8005908:	430b      	orrs	r3, r1
 800590a:	6013      	str	r3, [r2, #0]
    if(__HAL_FLASH_GET_LATENCY() != FLatency)
 800590c:	6813      	ldr	r3, [r2, #0]
 800590e:	f003 030f 	and.w	r3, r3, #15
 8005912:	428b      	cmp	r3, r1
 8005914:	d002      	beq.n	800591c <HAL_RCC_ClockConfig+0x34>
    return HAL_ERROR;
 8005916:	2001      	movs	r0, #1
}
 8005918:	e8bd 81f0 	ldmia.w	sp!, {r4, r5, r6, r7, r8, pc}
  if(((RCC_ClkInitStruct->ClockType) & RCC_CLOCKTYPE_D1PCLK1) == RCC_CLOCKTYPE_D1PCLK1)
 800591c:	6823      	ldr	r3, [r4, #0]
 800591e:	075f      	lsls	r7, r3, #29
 8005920:	d50b      	bpl.n	800593a <HAL_RCC_ClockConfig+0x52>
    if((RCC_ClkInitStruct->APB3CLKDivider) > (RCC->D1CFGR & RCC_D1CFGR_D1PPRE))
 8005922:	4981      	ldr	r1, [pc, #516]	; (8005b28 <HAL_RCC_ClockConfig+0x240>)
 8005924:	6920      	ldr	r0, [r4, #16]
 8005926:	698a      	ldr	r2, [r1, #24]
 8005928:	f002 0270 	and.w	r2, r2, #112	; 0x70
 800592c:	4290      	cmp	r0, r2
 800592e:	d904      	bls.n	800593a <HAL_RCC_ClockConfig+0x52>
      MODIFY_REG(RCC->D1CFGR, RCC_D1CFGR_D1PPRE, RCC_ClkInitStruct->APB3CLKDivider);
 8005930:	698a      	ldr	r2, [r1, #24]
 8005932:	f022 0270 	bic.w	r2, r2, #112	; 0x70
 8005936:	4302      	orrs	r2, r0
 8005938:	618a      	str	r2, [r1, #24]
  if(((RCC_ClkInitStruct->ClockType) & RCC_CLOCKTYPE_PCLK1) == RCC_CLOCKTYPE_PCLK1)
 800593a:	071e      	lsls	r6, r3, #28
 800593c:	d50b      	bpl.n	8005956 <HAL_RCC_ClockConfig+0x6e>
    if((RCC_ClkInitStruct->APB1CLKDivider) > (RCC->D2CFGR & RCC_D2CFGR_D2PPRE1))
 800593e:	497a      	ldr	r1, [pc, #488]	; (8005b28 <HAL_RCC_ClockConfig+0x240>)
 8005940:	6960      	ldr	r0, [r4, #20]
 8005942:	69ca      	ldr	r2, [r1, #28]
 8005944:	f002 0270 	and.w	r2, r2, #112	; 0x70
 8005948:	4290      	cmp	r0, r2
 800594a:	d904      	bls.n	8005956 <HAL_RCC_ClockConfig+0x6e>
      MODIFY_REG(RCC->D2CFGR, RCC_D2CFGR_D2PPRE1, (RCC_ClkInitStruct->APB1CLKDivider));
 800594c:	69ca      	ldr	r2, [r1, #28]
 800594e:	f022 0270 	bic.w	r2, r2, #112	; 0x70
 8005952:	4302      	orrs	r2, r0
 8005954:	61ca      	str	r2, [r1, #28]
  if(((RCC_ClkInitStruct->ClockType) & RCC_CLOCKTYPE_PCLK2) == RCC_CLOCKTYPE_PCLK2)
 8005956:	06d8      	lsls	r0, r3, #27
 8005958:	d50b      	bpl.n	8005972 <HAL_RCC_ClockConfig+0x8a>
    if((RCC_ClkInitStruct->APB2CLKDivider) > (RCC->D2CFGR & RCC_D2CFGR_D2PPRE2))
 800595a:	4973      	ldr	r1, [pc, #460]	; (8005b28 <HAL_RCC_ClockConfig+0x240>)
 800595c:	69a0      	ldr	r0, [r4, #24]
 800595e:	69ca      	ldr	r2, [r1, #28]
 8005960:	f402 62e0 	and.w	r2, r2, #1792	; 0x700
 8005964:	4290      	cmp	r0, r2
 8005966:	d904      	bls.n	8005972 <HAL_RCC_ClockConfig+0x8a>
      MODIFY_REG(RCC->D2CFGR, RCC_D2CFGR_D2PPRE2, (RCC_ClkInitStruct->APB2CLKDivider));
 8005968:	69ca      	ldr	r2, [r1, #28]
 800596a:	f422 62e0 	bic.w	r2, r2, #1792	; 0x700
 800596e:	4302      	orrs	r2, r0
 8005970:	61ca      	str	r2, [r1, #28]
  if(((RCC_ClkInitStruct->ClockType) & RCC_CLOCKTYPE_D3PCLK1) == RCC_CLOCKTYPE_D3PCLK1)
 8005972:	0699      	lsls	r1, r3, #26
 8005974:	d50b      	bpl.n	800598e <HAL_RCC_ClockConfig+0xa6>
    if((RCC_ClkInitStruct->APB4CLKDivider) > (RCC->D3CFGR & RCC_D3CFGR_D3PPRE))
 8005976:	496c      	ldr	r1, [pc, #432]	; (8005b28 <HAL_RCC_ClockConfig+0x240>)
 8005978:	69e0      	ldr	r0, [r4, #28]
 800597a:	6a0a      	ldr	r2, [r1, #32]
 800597c:	f002 0270 	and.w	r2, r2, #112	; 0x70
 8005980:	4290      	cmp	r0, r2
 8005982:	d904      	bls.n	800598e <HAL_RCC_ClockConfig+0xa6>
      MODIFY_REG(RCC->D3CFGR, RCC_D3CFGR_D3PPRE, (RCC_ClkInitStruct->APB4CLKDivider) );
 8005984:	6a0a      	ldr	r2, [r1, #32]
 8005986:	f022 0270 	bic.w	r2, r2, #112	; 0x70
 800598a:	4302      	orrs	r2, r0
 800598c:	620a      	str	r2, [r1, #32]
  if(((RCC_ClkInitStruct->ClockType) & RCC_CLOCKTYPE_HCLK) == RCC_CLOCKTYPE_HCLK)
 800598e:	079a      	lsls	r2, r3, #30
 8005990:	f140 80ad 	bpl.w	8005aee <HAL_RCC_ClockConfig+0x206>
    if((RCC_ClkInitStruct->AHBCLKDivider) > (RCC->D1CFGR & RCC_D1CFGR_HPRE))
 8005994:	4864      	ldr	r0, [pc, #400]	; (8005b28 <HAL_RCC_ClockConfig+0x240>)
 8005996:	68e1      	ldr	r1, [r4, #12]
 8005998:	6982      	ldr	r2, [r0, #24]
 800599a:	f002 020f 	and.w	r2, r2, #15
 800599e:	4291      	cmp	r1, r2
 80059a0:	d904      	bls.n	80059ac <HAL_RCC_ClockConfig+0xc4>
      MODIFY_REG(RCC->D1CFGR, RCC_D1CFGR_HPRE, RCC_ClkInitStruct->AHBCLKDivider);
 80059a2:	6982      	ldr	r2, [r0, #24]
 80059a4:	f022 020f 	bic.w	r2, r2, #15
 80059a8:	430a      	orrs	r2, r1
 80059aa:	6182      	str	r2, [r0, #24]
    if(((RCC_ClkInitStruct->ClockType) & RCC_CLOCKTYPE_SYSCLK) == RCC_CLOCKTYPE_SYSCLK)
 80059ac:	07d8      	lsls	r0, r3, #31
 80059ae:	d531      	bpl.n	8005a14 <HAL_RCC_ClockConfig+0x12c>
      MODIFY_REG(RCC->D1CFGR, RCC_D1CFGR_D1CPRE, RCC_ClkInitStruct->SYSCLKDivider);
 80059b0:	4a5d      	ldr	r2, [pc, #372]	; (8005b28 <HAL_RCC_ClockConfig+0x240>)
 80059b2:	68a1      	ldr	r1, [r4, #8]
 80059b4:	6993      	ldr	r3, [r2, #24]
 80059b6:	f423 6370 	bic.w	r3, r3, #3840	; 0xf00
 80059ba:	430b      	orrs	r3, r1
 80059bc:	6193      	str	r3, [r2, #24]
      if(RCC_ClkInitStruct->SYSCLKSource == RCC_SYSCLKSOURCE_HSE)
 80059be:	6861      	ldr	r1, [r4, #4]
        if(__HAL_RCC_GET_FLAG(RCC_FLAG_HSERDY) == 0U)
 80059c0:	6813      	ldr	r3, [r2, #0]
      if(RCC_ClkInitStruct->SYSCLKSource == RCC_SYSCLKSOURCE_HSE)
 80059c2:	2902      	cmp	r1, #2
 80059c4:	f000 80a3 	beq.w	8005b0e <HAL_RCC_ClockConfig+0x226>
      else if(RCC_ClkInitStruct->SYSCLKSource == RCC_SYSCLKSOURCE_PLLCLK)
 80059c8:	2903      	cmp	r1, #3
 80059ca:	f000 809a 	beq.w	8005b02 <HAL_RCC_ClockConfig+0x21a>
      else if(RCC_ClkInitStruct->SYSCLKSource == RCC_SYSCLKSOURCE_CSI)
 80059ce:	2901      	cmp	r1, #1
 80059d0:	f000 80a3 	beq.w	8005b1a <HAL_RCC_ClockConfig+0x232>
        if(__HAL_RCC_GET_FLAG(RCC_FLAG_HSIRDY) == 0U)
 80059d4:	0758      	lsls	r0, r3, #29
 80059d6:	d59e      	bpl.n	8005916 <HAL_RCC_ClockConfig+0x2e>
      MODIFY_REG(RCC->CFGR, RCC_CFGR_SW, RCC_ClkInitStruct->SYSCLKSource);
 80059d8:	4a53      	ldr	r2, [pc, #332]	; (8005b28 <HAL_RCC_ClockConfig+0x240>)
          if((HAL_GetTick() - tickstart ) > CLOCKSWITCH_TIMEOUT_VALUE)
 80059da:	f241 3888 	movw	r8, #5000	; 0x1388
      MODIFY_REG(RCC->CFGR, RCC_CFGR_SW, RCC_ClkInitStruct->SYSCLKSource);
 80059de:	6913      	ldr	r3, [r2, #16]
        while (__HAL_RCC_GET_SYSCLK_SOURCE() !=  (RCC_ClkInitStruct->SYSCLKSource << RCC_CFGR_SWS_Pos))
 80059e0:	4617      	mov	r7, r2
      MODIFY_REG(RCC->CFGR, RCC_CFGR_SW, RCC_ClkInitStruct->SYSCLKSource);
 80059e2:	f023 0307 	bic.w	r3, r3, #7
 80059e6:	430b      	orrs	r3, r1
 80059e8:	6113      	str	r3, [r2, #16]
      tickstart = HAL_GetTick();
 80059ea:	f7fe fa23 	bl	8003e34 <HAL_GetTick>
 80059ee:	4606      	mov	r6, r0
        while (__HAL_RCC_GET_SYSCLK_SOURCE() !=  (RCC_ClkInitStruct->SYSCLKSource << RCC_CFGR_SWS_Pos))
 80059f0:	e005      	b.n	80059fe <HAL_RCC_ClockConfig+0x116>
          if((HAL_GetTick() - tickstart ) > CLOCKSWITCH_TIMEOUT_VALUE)
 80059f2:	f7fe fa1f 	bl	8003e34 <HAL_GetTick>
 80059f6:	1b80      	subs	r0, r0, r6
 80059f8:	4540      	cmp	r0, r8
 80059fa:	f200 808c 	bhi.w	8005b16 <HAL_RCC_ClockConfig+0x22e>
        while (__HAL_RCC_GET_SYSCLK_SOURCE() !=  (RCC_ClkInitStruct->SYSCLKSource << RCC_CFGR_SWS_Pos))
 80059fe:	693b      	ldr	r3, [r7, #16]
 8005a00:	6862      	ldr	r2, [r4, #4]
 8005a02:	f003 0338 	and.w	r3, r3, #56	; 0x38
 8005a06:	ebb3 0fc2 	cmp.w	r3, r2, lsl #3
 8005a0a:	d1f2      	bne.n	80059f2 <HAL_RCC_ClockConfig+0x10a>
  if(((RCC_ClkInitStruct->ClockType) & RCC_CLOCKTYPE_HCLK) == RCC_CLOCKTYPE_HCLK)
 8005a0c:	6823      	ldr	r3, [r4, #0]
 8005a0e:	0799      	lsls	r1, r3, #30
 8005a10:	d506      	bpl.n	8005a20 <HAL_RCC_ClockConfig+0x138>
 8005a12:	68e1      	ldr	r1, [r4, #12]
    if((RCC_ClkInitStruct->AHBCLKDivider) < (RCC->D1CFGR & RCC_D1CFGR_HPRE))
 8005a14:	4844      	ldr	r0, [pc, #272]	; (8005b28 <HAL_RCC_ClockConfig+0x240>)
 8005a16:	6982      	ldr	r2, [r0, #24]
 8005a18:	f002 020f 	and.w	r2, r2, #15
 8005a1c:	428a      	cmp	r2, r1
 8005a1e:	d86a      	bhi.n	8005af6 <HAL_RCC_ClockConfig+0x20e>
  if(FLatency < __HAL_FLASH_GET_LATENCY())
 8005a20:	4940      	ldr	r1, [pc, #256]	; (8005b24 <HAL_RCC_ClockConfig+0x23c>)
 8005a22:	680a      	ldr	r2, [r1, #0]
 8005a24:	f002 020f 	and.w	r2, r2, #15
 8005a28:	42aa      	cmp	r2, r5
 8005a2a:	d90a      	bls.n	8005a42 <HAL_RCC_ClockConfig+0x15a>
    __HAL_FLASH_SET_LATENCY(FLatency);
 8005a2c:	680a      	ldr	r2, [r1, #0]
 8005a2e:	f022 020f 	bic.w	r2, r2, #15
 8005a32:	432a      	orrs	r2, r5
 8005a34:	600a      	str	r2, [r1, #0]
    if(__HAL_FLASH_GET_LATENCY() != FLatency)
 8005a36:	680a      	ldr	r2, [r1, #0]
 8005a38:	f002 020f 	and.w	r2, r2, #15
 8005a3c:	42aa      	cmp	r2, r5
 8005a3e:	f47f af6a 	bne.w	8005916 <HAL_RCC_ClockConfig+0x2e>
 if(((RCC_ClkInitStruct->ClockType) & RCC_CLOCKTYPE_D1PCLK1) == RCC_CLOCKTYPE_D1PCLK1)
 8005a42:	075a      	lsls	r2, r3, #29
 8005a44:	d50b      	bpl.n	8005a5e <HAL_RCC_ClockConfig+0x176>
   if((RCC_ClkInitStruct->APB3CLKDivider) < (RCC->D1CFGR & RCC_D1CFGR_D1PPRE))
 8005a46:	4938      	ldr	r1, [pc, #224]	; (8005b28 <HAL_RCC_ClockConfig+0x240>)
 8005a48:	6920      	ldr	r0, [r4, #16]
 8005a4a:	698a      	ldr	r2, [r1, #24]
 8005a4c:	f002 0270 	and.w	r2, r2, #112	; 0x70
 8005a50:	4290      	cmp	r0, r2
 8005a52:	d204      	bcs.n	8005a5e <HAL_RCC_ClockConfig+0x176>
     MODIFY_REG(RCC->D1CFGR, RCC_D1CFGR_D1PPRE, RCC_ClkInitStruct->APB3CLKDivider);
 8005a54:	698a      	ldr	r2, [r1, #24]
 8005a56:	f022 0270 	bic.w	r2, r2, #112	; 0x70
 8005a5a:	4302      	orrs	r2, r0
 8005a5c:	618a      	str	r2, [r1, #24]
 if(((RCC_ClkInitStruct->ClockType) & RCC_CLOCKTYPE_PCLK1) == RCC_CLOCKTYPE_PCLK1)
 8005a5e:	071f      	lsls	r7, r3, #28
 8005a60:	d50b      	bpl.n	8005a7a <HAL_RCC_ClockConfig+0x192>
   if((RCC_ClkInitStruct->APB1CLKDivider) < (RCC->D2CFGR & RCC_D2CFGR_D2PPRE1))
 8005a62:	4931      	ldr	r1, [pc, #196]	; (8005b28 <HAL_RCC_ClockConfig+0x240>)
 8005a64:	6960      	ldr	r0, [r4, #20]
 8005a66:	69ca      	ldr	r2, [r1, #28]
 8005a68:	f002 0270 	and.w	r2, r2, #112	; 0x70
 8005a6c:	4290      	cmp	r0, r2
 8005a6e:	d204      	bcs.n	8005a7a <HAL_RCC_ClockConfig+0x192>
     MODIFY_REG(RCC->D2CFGR, RCC_D2CFGR_D2PPRE1, (RCC_ClkInitStruct->APB1CLKDivider));
 8005a70:	69ca      	ldr	r2, [r1, #28]
 8005a72:	f022 0270 	bic.w	r2, r2, #112	; 0x70
 8005a76:	4302      	orrs	r2, r0
 8005a78:	61ca      	str	r2, [r1, #28]
 if(((RCC_ClkInitStruct->ClockType) & RCC_CLOCKTYPE_PCLK2) == RCC_CLOCKTYPE_PCLK2)
 8005a7a:	06de      	lsls	r6, r3, #27
 8005a7c:	d50b      	bpl.n	8005a96 <HAL_RCC_ClockConfig+0x1ae>
   if((RCC_ClkInitStruct->APB2CLKDivider) < (RCC->D2CFGR & RCC_D2CFGR_D2PPRE2))
 8005a7e:	492a      	ldr	r1, [pc, #168]	; (8005b28 <HAL_RCC_ClockConfig+0x240>)
 8005a80:	69a0      	ldr	r0, [r4, #24]
 8005a82:	69ca      	ldr	r2, [r1, #28]
 8005a84:	f402 62e0 	and.w	r2, r2, #1792	; 0x700
 8005a88:	4290      	cmp	r0, r2
 8005a8a:	d204      	bcs.n	8005a96 <HAL_RCC_ClockConfig+0x1ae>
     MODIFY_REG(RCC->D2CFGR, RCC_D2CFGR_D2PPRE2, (RCC_ClkInitStruct->APB2CLKDivider));
 8005a8c:	69ca      	ldr	r2, [r1, #28]
 8005a8e:	f422 62e0 	bic.w	r2, r2, #1792	; 0x700
 8005a92:	4302      	orrs	r2, r0
 8005a94:	61ca      	str	r2, [r1, #28]
 if(((RCC_ClkInitStruct->ClockType) & RCC_CLOCKTYPE_D3PCLK1) == RCC_CLOCKTYPE_D3PCLK1)
 8005a96:	069d      	lsls	r5, r3, #26
 8005a98:	d50b      	bpl.n	8005ab2 <HAL_RCC_ClockConfig+0x1ca>
   if((RCC_ClkInitStruct->APB4CLKDivider) < (RCC->D3CFGR & RCC_D3CFGR_D3PPRE))
 8005a9a:	4a23      	ldr	r2, [pc, #140]	; (8005b28 <HAL_RCC_ClockConfig+0x240>)
 8005a9c:	69e1      	ldr	r1, [r4, #28]
 8005a9e:	6a13      	ldr	r3, [r2, #32]
 8005aa0:	f003 0370 	and.w	r3, r3, #112	; 0x70
 8005aa4:	4299      	cmp	r1, r3
 8005aa6:	d204      	bcs.n	8005ab2 <HAL_RCC_ClockConfig+0x1ca>
     MODIFY_REG(RCC->D3CFGR, RCC_D3CFGR_D3PPRE, (RCC_ClkInitStruct->APB4CLKDivider) );
 8005aa8:	6a13      	ldr	r3, [r2, #32]
 8005aaa:	f023 0370 	bic.w	r3, r3, #112	; 0x70
 8005aae:	430b      	orrs	r3, r1
 8005ab0:	6213      	str	r3, [r2, #32]
  common_system_clock = HAL_RCC_GetSysClockFreq() >> ((D1CorePrescTable[(RCC->D1CFGR & RCC_D1CFGR_D1CPRE)>> RCC_D1CFGR_D1CPRE_Pos]) & 0x1FU);
 8005ab2:	f7ff fe79 	bl	80057a8 <HAL_RCC_GetSysClockFreq>
 8005ab6:	4b1c      	ldr	r3, [pc, #112]	; (8005b28 <HAL_RCC_ClockConfig+0x240>)
 8005ab8:	4602      	mov	r2, r0
 8005aba:	481c      	ldr	r0, [pc, #112]	; (8005b2c <HAL_RCC_ClockConfig+0x244>)
 8005abc:	6999      	ldr	r1, [r3, #24]
  SystemD2Clock = (common_system_clock >> ((D1CorePrescTable[(RCC->D1CFGR & RCC_D1CFGR_HPRE)>> RCC_D1CFGR_HPRE_Pos]) & 0x1FU));
 8005abe:	699b      	ldr	r3, [r3, #24]
  common_system_clock = HAL_RCC_GetSysClockFreq() >> ((D1CorePrescTable[(RCC->D1CFGR & RCC_D1CFGR_D1CPRE)>> RCC_D1CFGR_D1CPRE_Pos]) & 0x1FU);
 8005ac0:	f3c1 2103 	ubfx	r1, r1, #8, #4
  halstatus = HAL_InitTick (uwTickPrio);
 8005ac4:	4d1a      	ldr	r5, [pc, #104]	; (8005b30 <HAL_RCC_ClockConfig+0x248>)
  SystemD2Clock = (common_system_clock >> ((D1CorePrescTable[(RCC->D1CFGR & RCC_D1CFGR_HPRE)>> RCC_D1CFGR_HPRE_Pos]) & 0x1FU));
 8005ac6:	f003 030f 	and.w	r3, r3, #15
 8005aca:	4c1a      	ldr	r4, [pc, #104]	; (8005b34 <HAL_RCC_ClockConfig+0x24c>)
  common_system_clock = HAL_RCC_GetSysClockFreq() >> ((D1CorePrescTable[(RCC->D1CFGR & RCC_D1CFGR_D1CPRE)>> RCC_D1CFGR_D1CPRE_Pos]) & 0x1FU);
 8005acc:	5c41      	ldrb	r1, [r0, r1]
  SystemD2Clock = (common_system_clock >> ((D1CorePrescTable[(RCC->D1CFGR & RCC_D1CFGR_HPRE)>> RCC_D1CFGR_HPRE_Pos]) & 0x1FU));
 8005ace:	5cc3      	ldrb	r3, [r0, r3]
  common_system_clock = HAL_RCC_GetSysClockFreq() >> ((D1CorePrescTable[(RCC->D1CFGR & RCC_D1CFGR_D1CPRE)>> RCC_D1CFGR_D1CPRE_Pos]) & 0x1FU);
 8005ad0:	f001 011f 	and.w	r1, r1, #31
  halstatus = HAL_InitTick (uwTickPrio);
 8005ad4:	6828      	ldr	r0, [r5, #0]
  SystemD2Clock = (common_system_clock >> ((D1CorePrescTable[(RCC->D1CFGR & RCC_D1CFGR_HPRE)>> RCC_D1CFGR_HPRE_Pos]) & 0x1FU));
 8005ad6:	f003 031f 	and.w	r3, r3, #31
  SystemCoreClock = common_system_clock;
 8005ada:	4d17      	ldr	r5, [pc, #92]	; (8005b38 <HAL_RCC_ClockConfig+0x250>)
  common_system_clock = HAL_RCC_GetSysClockFreq() >> ((D1CorePrescTable[(RCC->D1CFGR & RCC_D1CFGR_D1CPRE)>> RCC_D1CFGR_D1CPRE_Pos]) & 0x1FU);
 8005adc:	40ca      	lsrs	r2, r1
  SystemD2Clock = (common_system_clock >> ((D1CorePrescTable[(RCC->D1CFGR & RCC_D1CFGR_HPRE)>> RCC_D1CFGR_HPRE_Pos]) & 0x1FU));
 8005ade:	fa22 f303 	lsr.w	r3, r2, r3
  SystemCoreClock = common_system_clock;
 8005ae2:	602a      	str	r2, [r5, #0]
  SystemD2Clock = (common_system_clock >> ((D1CorePrescTable[(RCC->D1CFGR & RCC_D1CFGR_HPRE)>> RCC_D1CFGR_HPRE_Pos]) & 0x1FU));
 8005ae4:	6023      	str	r3, [r4, #0]
}
 8005ae6:	e8bd 41f0 	ldmia.w	sp!, {r4, r5, r6, r7, r8, lr}
  halstatus = HAL_InitTick (uwTickPrio);
 8005aea:	f7fe b941 	b.w	8003d70 <HAL_InitTick>
    if(((RCC_ClkInitStruct->ClockType) & RCC_CLOCKTYPE_SYSCLK) == RCC_CLOCKTYPE_SYSCLK)
 8005aee:	07da      	lsls	r2, r3, #31
 8005af0:	f53f af5e 	bmi.w	80059b0 <HAL_RCC_ClockConfig+0xc8>
 8005af4:	e794      	b.n	8005a20 <HAL_RCC_ClockConfig+0x138>
      MODIFY_REG(RCC->D1CFGR, RCC_D1CFGR_HPRE, RCC_ClkInitStruct->AHBCLKDivider);
 8005af6:	6982      	ldr	r2, [r0, #24]
 8005af8:	f022 020f 	bic.w	r2, r2, #15
 8005afc:	4311      	orrs	r1, r2
 8005afe:	6181      	str	r1, [r0, #24]
 8005b00:	e78e      	b.n	8005a20 <HAL_RCC_ClockConfig+0x138>
        if(__HAL_RCC_GET_FLAG(RCC_FLAG_PLLRDY) == 0U)
 8005b02:	019f      	lsls	r7, r3, #6
 8005b04:	f53f af68 	bmi.w	80059d8 <HAL_RCC_ClockConfig+0xf0>
 8005b08:	e705      	b.n	8005916 <HAL_RCC_ClockConfig+0x2e>
    return HAL_ERROR;
 8005b0a:	2001      	movs	r0, #1
}
 8005b0c:	4770      	bx	lr
        if(__HAL_RCC_GET_FLAG(RCC_FLAG_HSERDY) == 0U)
 8005b0e:	039b      	lsls	r3, r3, #14
 8005b10:	f53f af62 	bmi.w	80059d8 <HAL_RCC_ClockConfig+0xf0>
 8005b14:	e6ff      	b.n	8005916 <HAL_RCC_ClockConfig+0x2e>
            return HAL_TIMEOUT;
 8005b16:	2003      	movs	r0, #3
 8005b18:	e6fe      	b.n	8005918 <HAL_RCC_ClockConfig+0x30>
        if(__HAL_RCC_GET_FLAG(RCC_FLAG_CSIRDY) == 0U)
 8005b1a:	05de      	lsls	r6, r3, #23
 8005b1c:	f53f af5c 	bmi.w	80059d8 <HAL_RCC_ClockConfig+0xf0>
 8005b20:	e6f9      	b.n	8005916 <HAL_RCC_ClockConfig+0x2e>
 8005b22:	bf00      	nop
 8005b24:	52002000 	.word	0x52002000
 8005b28:	58024400 	.word	0x58024400
 8005b2c:	080076bc 	.word	0x080076bc
 8005b30:	24000858 	.word	0x24000858
 8005b34:	24000004 	.word	0x24000004
 8005b38:	24000000 	.word	0x24000000

08005b3c <RCCEx_PLL2_Config>:
  assert_param(IS_RCC_PLL2RGE_VALUE(pll2->PLL2RGE));
  assert_param(IS_RCC_PLL2VCO_VALUE(pll2->PLL2VCOSEL));
  assert_param(IS_RCC_PLLFRACN_VALUE(pll2->PLL2FRACN));

  /* Check that PLL2 OSC clock source is already set */
  if(__HAL_RCC_GET_PLL_OSCSOURCE() == RCC_PLLSOURCE_NONE)
 8005b3c:	4a3b      	ldr	r2, [pc, #236]	; (8005c2c <RCCEx_PLL2_Config+0xf0>)
{
 8005b3e:	b5f8      	push	{r3, r4, r5, r6, r7, lr}
  if(__HAL_RCC_GET_PLL_OSCSOURCE() == RCC_PLLSOURCE_NONE)
 8005b40:	6a93      	ldr	r3, [r2, #40]	; 0x28
 8005b42:	f003 0303 	and.w	r3, r3, #3
 8005b46:	2b03      	cmp	r3, #3
 8005b48:	d069      	beq.n	8005c1e <RCCEx_PLL2_Config+0xe2>


  else
  {
    /* Disable  PLL2. */
    __HAL_RCC_PLL2_DISABLE();
 8005b4a:	6813      	ldr	r3, [r2, #0]
 8005b4c:	4606      	mov	r6, r0
 8005b4e:	460f      	mov	r7, r1

    /* Get Start Tick*/
    tickstart = HAL_GetTick();

    /* Wait till PLL is disabled */
    while(__HAL_RCC_GET_FLAG(RCC_FLAG_PLL2RDY) != 0U)
 8005b50:	4614      	mov	r4, r2
    __HAL_RCC_PLL2_DISABLE();
 8005b52:	f023 6380 	bic.w	r3, r3, #67108864	; 0x4000000
 8005b56:	6013      	str	r3, [r2, #0]
    tickstart = HAL_GetTick();
 8005b58:	f7fe f96c 	bl	8003e34 <HAL_GetTick>
 8005b5c:	4605      	mov	r5, r0
    while(__HAL_RCC_GET_FLAG(RCC_FLAG_PLL2RDY) != 0U)
 8005b5e:	e004      	b.n	8005b6a <RCCEx_PLL2_Config+0x2e>
    {
      if( (HAL_GetTick() - tickstart ) > PLL2_TIMEOUT_VALUE)
 8005b60:	f7fe f968 	bl	8003e34 <HAL_GetTick>
 8005b64:	1b43      	subs	r3, r0, r5
 8005b66:	2b02      	cmp	r3, #2
 8005b68:	d857      	bhi.n	8005c1a <RCCEx_PLL2_Config+0xde>
    while(__HAL_RCC_GET_FLAG(RCC_FLAG_PLL2RDY) != 0U)
 8005b6a:	6823      	ldr	r3, [r4, #0]
 8005b6c:	011a      	lsls	r2, r3, #4
 8005b6e:	d4f7      	bmi.n	8005b60 <RCCEx_PLL2_Config+0x24>
        return HAL_TIMEOUT;
      }
    }

    /* Configure PLL2 multiplication and division factors. */
    __HAL_RCC_PLL2_CONFIG(pll2->PLL2M,
 8005b70:	6aa3      	ldr	r3, [r4, #40]	; 0x28
 8005b72:	6832      	ldr	r2, [r6, #0]
 8005b74:	f423 337c 	bic.w	r3, r3, #258048	; 0x3f000

    /* Disable PLL2FRACN . */
    __HAL_RCC_PLL2FRACN_DISABLE();

    /* Configures PLL2 clock Fractional Part Of The Multiplication Factor */
    __HAL_RCC_PLL2FRACN_CONFIG(pll2->PLL2FRACN);
 8005b78:	492d      	ldr	r1, [pc, #180]	; (8005c30 <RCCEx_PLL2_Config+0xf4>)
    __HAL_RCC_PLL2_CONFIG(pll2->PLL2M,
 8005b7a:	ea43 3302 	orr.w	r3, r3, r2, lsl #12
 8005b7e:	62a3      	str	r3, [r4, #40]	; 0x28
 8005b80:	6875      	ldr	r5, [r6, #4]
 8005b82:	e9d6 3202 	ldrd	r3, r2, [r6, #8]
 8005b86:	3d01      	subs	r5, #1
 8005b88:	1e50      	subs	r0, r2, #1
 8005b8a:	3b01      	subs	r3, #1
 8005b8c:	6932      	ldr	r2, [r6, #16]
 8005b8e:	f3c5 0508 	ubfx	r5, r5, #0, #9
 8005b92:	025b      	lsls	r3, r3, #9
 8005b94:	0400      	lsls	r0, r0, #16
 8005b96:	3a01      	subs	r2, #1
 8005b98:	b29b      	uxth	r3, r3
 8005b9a:	f400 00fe 	and.w	r0, r0, #8323072	; 0x7f0000
 8005b9e:	0612      	lsls	r2, r2, #24
 8005ba0:	4303      	orrs	r3, r0
 8005ba2:	f002 42fe 	and.w	r2, r2, #2130706432	; 0x7f000000
 8005ba6:	432b      	orrs	r3, r5
 8005ba8:	4313      	orrs	r3, r2
 8005baa:	63a3      	str	r3, [r4, #56]	; 0x38
    __HAL_RCC_PLL2_VCIRANGE(pll2->PLL2RGE) ;
 8005bac:	6ae3      	ldr	r3, [r4, #44]	; 0x2c
 8005bae:	6972      	ldr	r2, [r6, #20]
 8005bb0:	f023 03c0 	bic.w	r3, r3, #192	; 0xc0
 8005bb4:	4313      	orrs	r3, r2
 8005bb6:	62e3      	str	r3, [r4, #44]	; 0x2c
    __HAL_RCC_PLL2_VCORANGE(pll2->PLL2VCOSEL) ;
 8005bb8:	6ae3      	ldr	r3, [r4, #44]	; 0x2c
 8005bba:	69b2      	ldr	r2, [r6, #24]
 8005bbc:	f023 0320 	bic.w	r3, r3, #32
 8005bc0:	4313      	orrs	r3, r2
 8005bc2:	62e3      	str	r3, [r4, #44]	; 0x2c
    __HAL_RCC_PLL2FRACN_DISABLE();
 8005bc4:	6ae3      	ldr	r3, [r4, #44]	; 0x2c
 8005bc6:	f023 0310 	bic.w	r3, r3, #16
 8005bca:	62e3      	str	r3, [r4, #44]	; 0x2c
    __HAL_RCC_PLL2FRACN_CONFIG(pll2->PLL2FRACN);
 8005bcc:	6be2      	ldr	r2, [r4, #60]	; 0x3c
 8005bce:	69f3      	ldr	r3, [r6, #28]
 8005bd0:	4011      	ands	r1, r2
 8005bd2:	ea41 01c3 	orr.w	r1, r1, r3, lsl #3
 8005bd6:	63e1      	str	r1, [r4, #60]	; 0x3c

    /* Enable PLL2FRACN . */
    __HAL_RCC_PLL2FRACN_ENABLE();
 8005bd8:	6ae3      	ldr	r3, [r4, #44]	; 0x2c
 8005bda:	f043 0310 	orr.w	r3, r3, #16
 8005bde:	62e3      	str	r3, [r4, #44]	; 0x2c

    /* Enable the PLL2 clock output */
    if(Divider == DIVIDER_P_UPDATE)
    {
      __HAL_RCC_PLL2CLKOUT_ENABLE(RCC_PLL2_DIVP);
 8005be0:	6ae3      	ldr	r3, [r4, #44]	; 0x2c
    if(Divider == DIVIDER_P_UPDATE)
 8005be2:	b1f7      	cbz	r7, 8005c22 <RCCEx_PLL2_Config+0xe6>
    }
    else if(Divider == DIVIDER_Q_UPDATE)
 8005be4:	2f01      	cmp	r7, #1
    {
      __HAL_RCC_PLL2CLKOUT_ENABLE(RCC_PLL2_DIVQ);
 8005be6:	bf0c      	ite	eq
 8005be8:	f443 1380 	orreq.w	r3, r3, #1048576	; 0x100000
    }
    else
    {
      __HAL_RCC_PLL2CLKOUT_ENABLE(RCC_PLL2_DIVR);
 8005bec:	f443 1300 	orrne.w	r3, r3, #2097152	; 0x200000
 8005bf0:	62e3      	str	r3, [r4, #44]	; 0x2c
    }

    /* Enable  PLL2. */
    __HAL_RCC_PLL2_ENABLE();
 8005bf2:	4b0e      	ldr	r3, [pc, #56]	; (8005c2c <RCCEx_PLL2_Config+0xf0>)
 8005bf4:	681a      	ldr	r2, [r3, #0]

    /* Get Start Tick*/
    tickstart = HAL_GetTick();

    /* Wait till PLL2 is ready */
    while(__HAL_RCC_GET_FLAG(RCC_FLAG_PLL2RDY) == 0U)
 8005bf6:	461d      	mov	r5, r3
    __HAL_RCC_PLL2_ENABLE();
 8005bf8:	f042 6280 	orr.w	r2, r2, #67108864	; 0x4000000
 8005bfc:	601a      	str	r2, [r3, #0]
    tickstart = HAL_GetTick();
 8005bfe:	f7fe f919 	bl	8003e34 <HAL_GetTick>
 8005c02:	4604      	mov	r4, r0
    while(__HAL_RCC_GET_FLAG(RCC_FLAG_PLL2RDY) == 0U)
 8005c04:	e004      	b.n	8005c10 <RCCEx_PLL2_Config+0xd4>
    {
      if( (HAL_GetTick() - tickstart ) > PLL2_TIMEOUT_VALUE)
 8005c06:	f7fe f915 	bl	8003e34 <HAL_GetTick>
 8005c0a:	1b00      	subs	r0, r0, r4
 8005c0c:	2802      	cmp	r0, #2
 8005c0e:	d804      	bhi.n	8005c1a <RCCEx_PLL2_Config+0xde>
    while(__HAL_RCC_GET_FLAG(RCC_FLAG_PLL2RDY) == 0U)
 8005c10:	682b      	ldr	r3, [r5, #0]
 8005c12:	011b      	lsls	r3, r3, #4
 8005c14:	d5f7      	bpl.n	8005c06 <RCCEx_PLL2_Config+0xca>
    }

  }


  return status;
 8005c16:	2000      	movs	r0, #0
}
 8005c18:	bdf8      	pop	{r3, r4, r5, r6, r7, pc}
        return HAL_TIMEOUT;
 8005c1a:	2003      	movs	r0, #3
}
 8005c1c:	bdf8      	pop	{r3, r4, r5, r6, r7, pc}
    return HAL_ERROR;
 8005c1e:	2001      	movs	r0, #1
}
 8005c20:	bdf8      	pop	{r3, r4, r5, r6, r7, pc}
      __HAL_RCC_PLL2CLKOUT_ENABLE(RCC_PLL2_DIVP);
 8005c22:	f443 2300 	orr.w	r3, r3, #524288	; 0x80000
 8005c26:	62e3      	str	r3, [r4, #44]	; 0x2c
 8005c28:	e7e3      	b.n	8005bf2 <RCCEx_PLL2_Config+0xb6>
 8005c2a:	bf00      	nop
 8005c2c:	58024400 	.word	0x58024400
 8005c30:	ffff0007 	.word	0xffff0007

08005c34 <RCCEx_PLL3_Config>:
  assert_param(IS_RCC_PLL3RGE_VALUE(pll3->PLL3RGE));
  assert_param(IS_RCC_PLL3VCO_VALUE(pll3->PLL3VCOSEL));
  assert_param(IS_RCC_PLLFRACN_VALUE(pll3->PLL3FRACN));

  /* Check that PLL3 OSC clock source is already set */
  if(__HAL_RCC_GET_PLL_OSCSOURCE() == RCC_PLLSOURCE_NONE)
 8005c34:	4a3b      	ldr	r2, [pc, #236]	; (8005d24 <RCCEx_PLL3_Config+0xf0>)
{
 8005c36:	b5f8      	push	{r3, r4, r5, r6, r7, lr}
  if(__HAL_RCC_GET_PLL_OSCSOURCE() == RCC_PLLSOURCE_NONE)
 8005c38:	6a93      	ldr	r3, [r2, #40]	; 0x28
 8005c3a:	f003 0303 	and.w	r3, r3, #3
 8005c3e:	2b03      	cmp	r3, #3
 8005c40:	d069      	beq.n	8005d16 <RCCEx_PLL3_Config+0xe2>


  else
  {
    /* Disable  PLL3. */
    __HAL_RCC_PLL3_DISABLE();
 8005c42:	6813      	ldr	r3, [r2, #0]
 8005c44:	4606      	mov	r6, r0
 8005c46:	460f      	mov	r7, r1

    /* Get Start Tick*/
    tickstart = HAL_GetTick();
    /* Wait till PLL3 is ready */
    while(__HAL_RCC_GET_FLAG(RCC_FLAG_PLL3RDY) != 0U)
 8005c48:	4614      	mov	r4, r2
    __HAL_RCC_PLL3_DISABLE();
 8005c4a:	f023 5380 	bic.w	r3, r3, #268435456	; 0x10000000
 8005c4e:	6013      	str	r3, [r2, #0]
    tickstart = HAL_GetTick();
 8005c50:	f7fe f8f0 	bl	8003e34 <HAL_GetTick>
 8005c54:	4605      	mov	r5, r0
    while(__HAL_RCC_GET_FLAG(RCC_FLAG_PLL3RDY) != 0U)
 8005c56:	e004      	b.n	8005c62 <RCCEx_PLL3_Config+0x2e>
    {
      if( (HAL_GetTick() - tickstart ) > PLL3_TIMEOUT_VALUE)
 8005c58:	f7fe f8ec 	bl	8003e34 <HAL_GetTick>
 8005c5c:	1b43      	subs	r3, r0, r5
 8005c5e:	2b02      	cmp	r3, #2
 8005c60:	d857      	bhi.n	8005d12 <RCCEx_PLL3_Config+0xde>
    while(__HAL_RCC_GET_FLAG(RCC_FLAG_PLL3RDY) != 0U)
 8005c62:	6823      	ldr	r3, [r4, #0]
 8005c64:	009a      	lsls	r2, r3, #2
 8005c66:	d4f7      	bmi.n	8005c58 <RCCEx_PLL3_Config+0x24>
        return HAL_TIMEOUT;
      }
    }

    /* Configure the PLL3  multiplication and division factors. */
    __HAL_RCC_PLL3_CONFIG(pll3->PLL3M,
 8005c68:	6aa3      	ldr	r3, [r4, #40]	; 0x28
 8005c6a:	6832      	ldr	r2, [r6, #0]
 8005c6c:	f023 737c 	bic.w	r3, r3, #66060288	; 0x3f00000

    /* Disable PLL3FRACN . */
    __HAL_RCC_PLL3FRACN_DISABLE();

    /* Configures PLL3 clock Fractional Part Of The Multiplication Factor */
    __HAL_RCC_PLL3FRACN_CONFIG(pll3->PLL3FRACN);
 8005c70:	492d      	ldr	r1, [pc, #180]	; (8005d28 <RCCEx_PLL3_Config+0xf4>)
    __HAL_RCC_PLL3_CONFIG(pll3->PLL3M,
 8005c72:	ea43 5302 	orr.w	r3, r3, r2, lsl #20
 8005c76:	62a3      	str	r3, [r4, #40]	; 0x28
 8005c78:	6875      	ldr	r5, [r6, #4]
 8005c7a:	e9d6 3202 	ldrd	r3, r2, [r6, #8]
 8005c7e:	3d01      	subs	r5, #1
 8005c80:	1e50      	subs	r0, r2, #1
 8005c82:	3b01      	subs	r3, #1
 8005c84:	6932      	ldr	r2, [r6, #16]
 8005c86:	f3c5 0508 	ubfx	r5, r5, #0, #9
 8005c8a:	025b      	lsls	r3, r3, #9
 8005c8c:	0400      	lsls	r0, r0, #16
 8005c8e:	3a01      	subs	r2, #1
 8005c90:	b29b      	uxth	r3, r3
 8005c92:	f400 00fe 	and.w	r0, r0, #8323072	; 0x7f0000
 8005c96:	0612      	lsls	r2, r2, #24
 8005c98:	4303      	orrs	r3, r0
 8005c9a:	f002 42fe 	and.w	r2, r2, #2130706432	; 0x7f000000
 8005c9e:	432b      	orrs	r3, r5
 8005ca0:	4313      	orrs	r3, r2
 8005ca2:	6423      	str	r3, [r4, #64]	; 0x40
    __HAL_RCC_PLL3_VCIRANGE(pll3->PLL3RGE) ;
 8005ca4:	6ae3      	ldr	r3, [r4, #44]	; 0x2c
 8005ca6:	6972      	ldr	r2, [r6, #20]
 8005ca8:	f423 6340 	bic.w	r3, r3, #3072	; 0xc00
 8005cac:	4313      	orrs	r3, r2
 8005cae:	62e3      	str	r3, [r4, #44]	; 0x2c
    __HAL_RCC_PLL3_VCORANGE(pll3->PLL3VCOSEL) ;
 8005cb0:	6ae3      	ldr	r3, [r4, #44]	; 0x2c
 8005cb2:	69b2      	ldr	r2, [r6, #24]
 8005cb4:	f423 7300 	bic.w	r3, r3, #512	; 0x200
 8005cb8:	4313      	orrs	r3, r2
 8005cba:	62e3      	str	r3, [r4, #44]	; 0x2c
    __HAL_RCC_PLL3FRACN_DISABLE();
 8005cbc:	6ae3      	ldr	r3, [r4, #44]	; 0x2c
 8005cbe:	f423 7380 	bic.w	r3, r3, #256	; 0x100
 8005cc2:	62e3      	str	r3, [r4, #44]	; 0x2c
    __HAL_RCC_PLL3FRACN_CONFIG(pll3->PLL3FRACN);
 8005cc4:	6c62      	ldr	r2, [r4, #68]	; 0x44
 8005cc6:	69f3      	ldr	r3, [r6, #28]
 8005cc8:	4011      	ands	r1, r2
 8005cca:	ea41 01c3 	orr.w	r1, r1, r3, lsl #3
 8005cce:	6461      	str	r1, [r4, #68]	; 0x44

    /* Enable PLL3FRACN . */
    __HAL_RCC_PLL3FRACN_ENABLE();
 8005cd0:	6ae3      	ldr	r3, [r4, #44]	; 0x2c
 8005cd2:	f443 7380 	orr.w	r3, r3, #256	; 0x100
 8005cd6:	62e3      	str	r3, [r4, #44]	; 0x2c

    /* Enable the PLL3 clock output */
    if(Divider == DIVIDER_P_UPDATE)
    {
      __HAL_RCC_PLL3CLKOUT_ENABLE(RCC_PLL3_DIVP);
 8005cd8:	6ae3      	ldr	r3, [r4, #44]	; 0x2c
    if(Divider == DIVIDER_P_UPDATE)
 8005cda:	b1f7      	cbz	r7, 8005d1a <RCCEx_PLL3_Config+0xe6>
    }
    else if(Divider == DIVIDER_Q_UPDATE)
 8005cdc:	2f01      	cmp	r7, #1
    {
      __HAL_RCC_PLL3CLKOUT_ENABLE(RCC_PLL3_DIVQ);
 8005cde:	bf0c      	ite	eq
 8005ce0:	f443 0300 	orreq.w	r3, r3, #8388608	; 0x800000
    }
    else
    {
      __HAL_RCC_PLL3CLKOUT_ENABLE(RCC_PLL3_DIVR);
 8005ce4:	f043 7380 	orrne.w	r3, r3, #16777216	; 0x1000000
 8005ce8:	62e3      	str	r3, [r4, #44]	; 0x2c
    }

    /* Enable  PLL3. */
    __HAL_RCC_PLL3_ENABLE();
 8005cea:	4b0e      	ldr	r3, [pc, #56]	; (8005d24 <RCCEx_PLL3_Config+0xf0>)
 8005cec:	681a      	ldr	r2, [r3, #0]

    /* Get Start Tick*/
    tickstart = HAL_GetTick();

    /* Wait till PLL3 is ready */
    while(__HAL_RCC_GET_FLAG(RCC_FLAG_PLL3RDY) == 0U)
 8005cee:	461d      	mov	r5, r3
    __HAL_RCC_PLL3_ENABLE();
 8005cf0:	f042 5280 	orr.w	r2, r2, #268435456	; 0x10000000
 8005cf4:	601a      	str	r2, [r3, #0]
    tickstart = HAL_GetTick();
 8005cf6:	f7fe f89d 	bl	8003e34 <HAL_GetTick>
 8005cfa:	4604      	mov	r4, r0
    while(__HAL_RCC_GET_FLAG(RCC_FLAG_PLL3RDY) == 0U)
 8005cfc:	e004      	b.n	8005d08 <RCCEx_PLL3_Config+0xd4>
    {
      if( (HAL_GetTick() - tickstart ) > PLL3_TIMEOUT_VALUE)
 8005cfe:	f7fe f899 	bl	8003e34 <HAL_GetTick>
 8005d02:	1b00      	subs	r0, r0, r4
 8005d04:	2802      	cmp	r0, #2
 8005d06:	d804      	bhi.n	8005d12 <RCCEx_PLL3_Config+0xde>
    while(__HAL_RCC_GET_FLAG(RCC_FLAG_PLL3RDY) == 0U)
 8005d08:	682b      	ldr	r3, [r5, #0]
 8005d0a:	009b      	lsls	r3, r3, #2
 8005d0c:	d5f7      	bpl.n	8005cfe <RCCEx_PLL3_Config+0xca>
    }

  }


  return status;
 8005d0e:	2000      	movs	r0, #0
}
 8005d10:	bdf8      	pop	{r3, r4, r5, r6, r7, pc}
        return HAL_TIMEOUT;
 8005d12:	2003      	movs	r0, #3
}
 8005d14:	bdf8      	pop	{r3, r4, r5, r6, r7, pc}
    return HAL_ERROR;
 8005d16:	2001      	movs	r0, #1
}
 8005d18:	bdf8      	pop	{r3, r4, r5, r6, r7, pc}
      __HAL_RCC_PLL3CLKOUT_ENABLE(RCC_PLL3_DIVP);
 8005d1a:	f443 0380 	orr.w	r3, r3, #4194304	; 0x400000
 8005d1e:	62e3      	str	r3, [r4, #44]	; 0x2c
 8005d20:	e7e3      	b.n	8005cea <RCCEx_PLL3_Config+0xb6>
 8005d22:	bf00      	nop
 8005d24:	58024400 	.word	0x58024400
 8005d28:	ffff0007 	.word	0xffff0007

08005d2c <HAL_RCCEx_PeriphCLKConfig>:
{
 8005d2c:	e92d 43f8 	stmdb	sp!, {r3, r4, r5, r6, r7, r8, r9, lr}
  if(((PeriphClkInit->PeriphClockSelection) & RCC_PERIPHCLK_SPDIFRX) == RCC_PERIPHCLK_SPDIFRX)
 8005d30:	6803      	ldr	r3, [r0, #0]
{
 8005d32:	4604      	mov	r4, r0
  if(((PeriphClkInit->PeriphClockSelection) & RCC_PERIPHCLK_SPDIFRX) == RCC_PERIPHCLK_SPDIFRX)
 8005d34:	f013 6600 	ands.w	r6, r3, #134217728	; 0x8000000
 8005d38:	d01c      	beq.n	8005d74 <HAL_RCCEx_PeriphCLKConfig+0x48>
    switch(PeriphClkInit->SpdifrxClockSelection)
 8005d3a:	6e82      	ldr	r2, [r0, #104]	; 0x68
 8005d3c:	f5b2 1f00 	cmp.w	r2, #2097152	; 0x200000
 8005d40:	f000 84c7 	beq.w	80066d2 <HAL_RCCEx_PeriphCLKConfig+0x9a6>
 8005d44:	d823      	bhi.n	8005d8e <HAL_RCCEx_PeriphCLKConfig+0x62>
 8005d46:	2a00      	cmp	r2, #0
 8005d48:	f000 842c 	beq.w	80065a4 <HAL_RCCEx_PeriphCLKConfig+0x878>
 8005d4c:	f5b2 1f80 	cmp.w	r2, #1048576	; 0x100000
 8005d50:	d120      	bne.n	8005d94 <HAL_RCCEx_PeriphCLKConfig+0x68>
      ret = RCCEx_PLL2_Config(&(PeriphClkInit->PLL2),DIVIDER_R_UPDATE);
 8005d52:	2102      	movs	r1, #2
 8005d54:	3004      	adds	r0, #4
 8005d56:	f7ff fef1 	bl	8005b3c <RCCEx_PLL2_Config>
 8005d5a:	4606      	mov	r6, r0
    if(ret == HAL_OK)
 8005d5c:	2e00      	cmp	r6, #0
 8005d5e:	f040 84c0 	bne.w	80066e2 <HAL_RCCEx_PeriphCLKConfig+0x9b6>
 8005d62:	6ea2      	ldr	r2, [r4, #104]	; 0x68
 8005d64:	6823      	ldr	r3, [r4, #0]
      __HAL_RCC_SPDIFRX_CONFIG(PeriphClkInit->SpdifrxClockSelection);
 8005d66:	48b0      	ldr	r0, [pc, #704]	; (8006028 <HAL_RCCEx_PeriphCLKConfig+0x2fc>)
 8005d68:	2600      	movs	r6, #0
 8005d6a:	6d01      	ldr	r1, [r0, #80]	; 0x50
 8005d6c:	f421 1140 	bic.w	r1, r1, #3145728	; 0x300000
 8005d70:	430a      	orrs	r2, r1
 8005d72:	6502      	str	r2, [r0, #80]	; 0x50
  if(((PeriphClkInit->PeriphClockSelection) & RCC_PERIPHCLK_SAI1) == RCC_PERIPHCLK_SAI1)
 8005d74:	05da      	lsls	r2, r3, #23
 8005d76:	d511      	bpl.n	8005d9c <HAL_RCCEx_PeriphCLKConfig+0x70>
    switch(PeriphClkInit->Sai1ClockSelection)
 8005d78:	6da2      	ldr	r2, [r4, #88]	; 0x58
 8005d7a:	2a04      	cmp	r2, #4
 8005d7c:	f200 8580 	bhi.w	8006880 <HAL_RCCEx_PeriphCLKConfig+0xb54>
 8005d80:	e8df f012 	tbh	[pc, r2, lsl #1]
 8005d84:	04c104ba 	.word	0x04c104ba
 8005d88:	033b04b2 	.word	0x033b04b2
 8005d8c:	033b      	.short	0x033b
    switch(PeriphClkInit->SpdifrxClockSelection)
 8005d8e:	f5b2 1f40 	cmp.w	r2, #3145728	; 0x300000
 8005d92:	d0e8      	beq.n	8005d66 <HAL_RCCEx_PeriphCLKConfig+0x3a>
  if(((PeriphClkInit->PeriphClockSelection) & RCC_PERIPHCLK_SAI1) == RCC_PERIPHCLK_SAI1)
 8005d94:	05da      	lsls	r2, r3, #23
    switch(PeriphClkInit->SpdifrxClockSelection)
 8005d96:	f04f 0601 	mov.w	r6, #1
  if(((PeriphClkInit->PeriphClockSelection) & RCC_PERIPHCLK_SAI1) == RCC_PERIPHCLK_SAI1)
 8005d9a:	d4ed      	bmi.n	8005d78 <HAL_RCCEx_PeriphCLKConfig+0x4c>
    switch(PeriphClkInit->Sai1ClockSelection)
 8005d9c:	4635      	mov	r5, r6
  if(((PeriphClkInit->PeriphClockSelection) & RCC_PERIPHCLK_SAI23) == RCC_PERIPHCLK_SAI23)
 8005d9e:	059f      	lsls	r7, r3, #22
 8005da0:	d51b      	bpl.n	8005dda <HAL_RCCEx_PeriphCLKConfig+0xae>
    switch(PeriphClkInit->Sai23ClockSelection)
 8005da2:	6de2      	ldr	r2, [r4, #92]	; 0x5c
 8005da4:	2a80      	cmp	r2, #128	; 0x80
 8005da6:	f000 84b7 	beq.w	8006718 <HAL_RCCEx_PeriphCLKConfig+0x9ec>
 8005daa:	f200 8127 	bhi.w	8005ffc <HAL_RCCEx_PeriphCLKConfig+0x2d0>
 8005dae:	2a00      	cmp	r2, #0
 8005db0:	f000 83e6 	beq.w	8006580 <HAL_RCCEx_PeriphCLKConfig+0x854>
 8005db4:	2a40      	cmp	r2, #64	; 0x40
 8005db6:	f040 8128 	bne.w	800600a <HAL_RCCEx_PeriphCLKConfig+0x2de>
      ret = RCCEx_PLL2_Config(&(PeriphClkInit->PLL2),DIVIDER_P_UPDATE);
 8005dba:	2100      	movs	r1, #0
 8005dbc:	1d20      	adds	r0, r4, #4
 8005dbe:	f7ff febd 	bl	8005b3c <RCCEx_PLL2_Config>
 8005dc2:	6823      	ldr	r3, [r4, #0]
 8005dc4:	4605      	mov	r5, r0
    if(ret == HAL_OK)
 8005dc6:	2d00      	cmp	r5, #0
 8005dc8:	f040 83cc 	bne.w	8006564 <HAL_RCCEx_PeriphCLKConfig+0x838>
      __HAL_RCC_SAI23_CONFIG(PeriphClkInit->Sai23ClockSelection);
 8005dcc:	4996      	ldr	r1, [pc, #600]	; (8006028 <HAL_RCCEx_PeriphCLKConfig+0x2fc>)
 8005dce:	6de0      	ldr	r0, [r4, #92]	; 0x5c
 8005dd0:	6d0a      	ldr	r2, [r1, #80]	; 0x50
 8005dd2:	f422 72e0 	bic.w	r2, r2, #448	; 0x1c0
 8005dd6:	4302      	orrs	r2, r0
 8005dd8:	650a      	str	r2, [r1, #80]	; 0x50
  if(((PeriphClkInit->PeriphClockSelection) & RCC_PERIPHCLK_SAI4A) == RCC_PERIPHCLK_SAI4A)
 8005dda:	0558      	lsls	r0, r3, #21
 8005ddc:	d51f      	bpl.n	8005e1e <HAL_RCCEx_PeriphCLKConfig+0xf2>
    switch(PeriphClkInit->Sai4AClockSelection)
 8005dde:	f8d4 20a8 	ldr.w	r2, [r4, #168]	; 0xa8
 8005de2:	f5b2 0f80 	cmp.w	r2, #4194304	; 0x400000
 8005de6:	f000 8462 	beq.w	80066ae <HAL_RCCEx_PeriphCLKConfig+0x982>
 8005dea:	f200 8111 	bhi.w	8006010 <HAL_RCCEx_PeriphCLKConfig+0x2e4>
 8005dee:	2a00      	cmp	r2, #0
 8005df0:	f000 83c0 	beq.w	8006574 <HAL_RCCEx_PeriphCLKConfig+0x848>
 8005df4:	f5b2 1f00 	cmp.w	r2, #2097152	; 0x200000
 8005df8:	f040 8112 	bne.w	8006020 <HAL_RCCEx_PeriphCLKConfig+0x2f4>
      ret = RCCEx_PLL2_Config(&(PeriphClkInit->PLL2),DIVIDER_P_UPDATE);
 8005dfc:	2100      	movs	r1, #0
 8005dfe:	1d20      	adds	r0, r4, #4
 8005e00:	f7ff fe9c 	bl	8005b3c <RCCEx_PLL2_Config>
 8005e04:	6823      	ldr	r3, [r4, #0]
 8005e06:	4605      	mov	r5, r0
    if(ret == HAL_OK)
 8005e08:	2d00      	cmp	r5, #0
 8005e0a:	f040 83b1 	bne.w	8006570 <HAL_RCCEx_PeriphCLKConfig+0x844>
      __HAL_RCC_SAI4A_CONFIG(PeriphClkInit->Sai4AClockSelection);
 8005e0e:	4986      	ldr	r1, [pc, #536]	; (8006028 <HAL_RCCEx_PeriphCLKConfig+0x2fc>)
 8005e10:	f8d4 00a8 	ldr.w	r0, [r4, #168]	; 0xa8
 8005e14:	6d8a      	ldr	r2, [r1, #88]	; 0x58
 8005e16:	f422 0260 	bic.w	r2, r2, #14680064	; 0xe00000
 8005e1a:	4302      	orrs	r2, r0
 8005e1c:	658a      	str	r2, [r1, #88]	; 0x58
  if(((PeriphClkInit->PeriphClockSelection) & RCC_PERIPHCLK_SAI4B) == RCC_PERIPHCLK_SAI4B)
 8005e1e:	0519      	lsls	r1, r3, #20
 8005e20:	d51f      	bpl.n	8005e62 <HAL_RCCEx_PeriphCLKConfig+0x136>
    switch(PeriphClkInit->Sai4BClockSelection)
 8005e22:	f8d4 20ac 	ldr.w	r2, [r4, #172]	; 0xac
 8005e26:	f1b2 7f00 	cmp.w	r2, #33554432	; 0x2000000
 8005e2a:	f000 8437 	beq.w	800669c <HAL_RCCEx_PeriphCLKConfig+0x970>
 8005e2e:	f200 80fd 	bhi.w	800602c <HAL_RCCEx_PeriphCLKConfig+0x300>
 8005e32:	2a00      	cmp	r2, #0
 8005e34:	f000 83aa 	beq.w	800658c <HAL_RCCEx_PeriphCLKConfig+0x860>
 8005e38:	f1b2 7f80 	cmp.w	r2, #16777216	; 0x1000000
 8005e3c:	f040 80fe 	bne.w	800603c <HAL_RCCEx_PeriphCLKConfig+0x310>
      ret = RCCEx_PLL2_Config(&(PeriphClkInit->PLL2),DIVIDER_P_UPDATE);
 8005e40:	2100      	movs	r1, #0
 8005e42:	1d20      	adds	r0, r4, #4
 8005e44:	f7ff fe7a 	bl	8005b3c <RCCEx_PLL2_Config>
 8005e48:	6823      	ldr	r3, [r4, #0]
 8005e4a:	4605      	mov	r5, r0
    if(ret == HAL_OK)
 8005e4c:	2d00      	cmp	r5, #0
 8005e4e:	f040 8387 	bne.w	8006560 <HAL_RCCEx_PeriphCLKConfig+0x834>
      __HAL_RCC_SAI4B_CONFIG(PeriphClkInit->Sai4BClockSelection);
 8005e52:	4975      	ldr	r1, [pc, #468]	; (8006028 <HAL_RCCEx_PeriphCLKConfig+0x2fc>)
 8005e54:	f8d4 00ac 	ldr.w	r0, [r4, #172]	; 0xac
 8005e58:	6d8a      	ldr	r2, [r1, #88]	; 0x58
 8005e5a:	f022 62e0 	bic.w	r2, r2, #117440512	; 0x7000000
 8005e5e:	4302      	orrs	r2, r0
 8005e60:	658a      	str	r2, [r1, #88]	; 0x58
  if(((PeriphClkInit->PeriphClockSelection) & RCC_PERIPHCLK_QSPI) == RCC_PERIPHCLK_QSPI)
 8005e62:	019a      	lsls	r2, r3, #6
 8005e64:	d518      	bpl.n	8005e98 <HAL_RCCEx_PeriphCLKConfig+0x16c>
    switch(PeriphClkInit->QspiClockSelection)
 8005e66:	6ca2      	ldr	r2, [r4, #72]	; 0x48
 8005e68:	2a20      	cmp	r2, #32
 8005e6a:	f000 840d 	beq.w	8006688 <HAL_RCCEx_PeriphCLKConfig+0x95c>
 8005e6e:	f200 80e8 	bhi.w	8006042 <HAL_RCCEx_PeriphCLKConfig+0x316>
 8005e72:	b13a      	cbz	r2, 8005e84 <HAL_RCCEx_PeriphCLKConfig+0x158>
 8005e74:	2a10      	cmp	r2, #16
 8005e76:	f040 80e7 	bne.w	8006048 <HAL_RCCEx_PeriphCLKConfig+0x31c>
      __HAL_RCC_PLLCLKOUT_ENABLE(RCC_PLL1_DIVQ);
 8005e7a:	496b      	ldr	r1, [pc, #428]	; (8006028 <HAL_RCCEx_PeriphCLKConfig+0x2fc>)
 8005e7c:	6aca      	ldr	r2, [r1, #44]	; 0x2c
 8005e7e:	f442 3200 	orr.w	r2, r2, #131072	; 0x20000
 8005e82:	62ca      	str	r2, [r1, #44]	; 0x2c
    if(ret == HAL_OK)
 8005e84:	2d00      	cmp	r5, #0
 8005e86:	f040 83ba 	bne.w	80065fe <HAL_RCCEx_PeriphCLKConfig+0x8d2>
      __HAL_RCC_QSPI_CONFIG(PeriphClkInit->QspiClockSelection);
 8005e8a:	4967      	ldr	r1, [pc, #412]	; (8006028 <HAL_RCCEx_PeriphCLKConfig+0x2fc>)
 8005e8c:	6ca0      	ldr	r0, [r4, #72]	; 0x48
 8005e8e:	6cca      	ldr	r2, [r1, #76]	; 0x4c
 8005e90:	f022 0230 	bic.w	r2, r2, #48	; 0x30
 8005e94:	4302      	orrs	r2, r0
 8005e96:	64ca      	str	r2, [r1, #76]	; 0x4c
  if(((PeriphClkInit->PeriphClockSelection) & RCC_PERIPHCLK_SPI123) == RCC_PERIPHCLK_SPI123)
 8005e98:	04df      	lsls	r7, r3, #19
 8005e9a:	d51d      	bpl.n	8005ed8 <HAL_RCCEx_PeriphCLKConfig+0x1ac>
    switch(PeriphClkInit->Spi123ClockSelection)
 8005e9c:	6e22      	ldr	r2, [r4, #96]	; 0x60
 8005e9e:	f5b2 5f00 	cmp.w	r2, #8192	; 0x2000
 8005ea2:	f000 840d 	beq.w	80066c0 <HAL_RCCEx_PeriphCLKConfig+0x994>
 8005ea6:	f200 80d2 	bhi.w	800604e <HAL_RCCEx_PeriphCLKConfig+0x322>
 8005eaa:	2a00      	cmp	r2, #0
 8005eac:	f000 8374 	beq.w	8006598 <HAL_RCCEx_PeriphCLKConfig+0x86c>
 8005eb0:	f5b2 5f80 	cmp.w	r2, #4096	; 0x1000
 8005eb4:	f040 80d3 	bne.w	800605e <HAL_RCCEx_PeriphCLKConfig+0x332>
      ret = RCCEx_PLL2_Config(&(PeriphClkInit->PLL2),DIVIDER_P_UPDATE);
 8005eb8:	2100      	movs	r1, #0
 8005eba:	1d20      	adds	r0, r4, #4
 8005ebc:	f7ff fe3e 	bl	8005b3c <RCCEx_PLL2_Config>
 8005ec0:	6823      	ldr	r3, [r4, #0]
 8005ec2:	4605      	mov	r5, r0
    if(ret == HAL_OK)
 8005ec4:	2d00      	cmp	r5, #0
 8005ec6:	f040 834f 	bne.w	8006568 <HAL_RCCEx_PeriphCLKConfig+0x83c>
      __HAL_RCC_SPI123_CONFIG(PeriphClkInit->Spi123ClockSelection);
 8005eca:	4957      	ldr	r1, [pc, #348]	; (8006028 <HAL_RCCEx_PeriphCLKConfig+0x2fc>)
 8005ecc:	6e20      	ldr	r0, [r4, #96]	; 0x60
 8005ece:	6d0a      	ldr	r2, [r1, #80]	; 0x50
 8005ed0:	f422 42e0 	bic.w	r2, r2, #28672	; 0x7000
 8005ed4:	4302      	orrs	r2, r0
 8005ed6:	650a      	str	r2, [r1, #80]	; 0x50
  if(((PeriphClkInit->PeriphClockSelection) & RCC_PERIPHCLK_SPI45) == RCC_PERIPHCLK_SPI45)
 8005ed8:	0498      	lsls	r0, r3, #18
 8005eda:	d51b      	bpl.n	8005f14 <HAL_RCCEx_PeriphCLKConfig+0x1e8>
    switch(PeriphClkInit->Spi45ClockSelection)
 8005edc:	6e62      	ldr	r2, [r4, #100]	; 0x64
 8005ede:	f5b2 3f00 	cmp.w	r2, #131072	; 0x20000
 8005ee2:	f000 83bd 	beq.w	8006660 <HAL_RCCEx_PeriphCLKConfig+0x934>
 8005ee6:	f200 80bd 	bhi.w	8006064 <HAL_RCCEx_PeriphCLKConfig+0x338>
 8005eea:	b14a      	cbz	r2, 8005f00 <HAL_RCCEx_PeriphCLKConfig+0x1d4>
 8005eec:	f5b2 3f80 	cmp.w	r2, #65536	; 0x10000
 8005ef0:	f040 80c2 	bne.w	8006078 <HAL_RCCEx_PeriphCLKConfig+0x34c>
      ret = RCCEx_PLL2_Config(&(PeriphClkInit->PLL2),DIVIDER_Q_UPDATE);
 8005ef4:	2101      	movs	r1, #1
 8005ef6:	1d20      	adds	r0, r4, #4
 8005ef8:	f7ff fe20 	bl	8005b3c <RCCEx_PLL2_Config>
 8005efc:	6823      	ldr	r3, [r4, #0]
 8005efe:	4605      	mov	r5, r0
    if(ret == HAL_OK)
 8005f00:	2d00      	cmp	r5, #0
 8005f02:	f040 837e 	bne.w	8006602 <HAL_RCCEx_PeriphCLKConfig+0x8d6>
      __HAL_RCC_SPI45_CONFIG(PeriphClkInit->Spi45ClockSelection);
 8005f06:	4948      	ldr	r1, [pc, #288]	; (8006028 <HAL_RCCEx_PeriphCLKConfig+0x2fc>)
 8005f08:	6e60      	ldr	r0, [r4, #100]	; 0x64
 8005f0a:	6d0a      	ldr	r2, [r1, #80]	; 0x50
 8005f0c:	f422 22e0 	bic.w	r2, r2, #458752	; 0x70000
 8005f10:	4302      	orrs	r2, r0
 8005f12:	650a      	str	r2, [r1, #80]	; 0x50
  if(((PeriphClkInit->PeriphClockSelection) & RCC_PERIPHCLK_SPI6) == RCC_PERIPHCLK_SPI6)
 8005f14:	0459      	lsls	r1, r3, #17
 8005f16:	d51d      	bpl.n	8005f54 <HAL_RCCEx_PeriphCLKConfig+0x228>
    switch(PeriphClkInit->Spi6ClockSelection)
 8005f18:	f8d4 20b0 	ldr.w	r2, [r4, #176]	; 0xb0
 8005f1c:	f1b2 5f00 	cmp.w	r2, #536870912	; 0x20000000
 8005f20:	f000 83a8 	beq.w	8006674 <HAL_RCCEx_PeriphCLKConfig+0x948>
 8005f24:	f200 80ab 	bhi.w	800607e <HAL_RCCEx_PeriphCLKConfig+0x352>
 8005f28:	b14a      	cbz	r2, 8005f3e <HAL_RCCEx_PeriphCLKConfig+0x212>
 8005f2a:	f1b2 5f80 	cmp.w	r2, #268435456	; 0x10000000
 8005f2e:	f040 80b0 	bne.w	8006092 <HAL_RCCEx_PeriphCLKConfig+0x366>
      ret = RCCEx_PLL2_Config(&(PeriphClkInit->PLL2),DIVIDER_Q_UPDATE);
 8005f32:	2101      	movs	r1, #1
 8005f34:	1d20      	adds	r0, r4, #4
 8005f36:	f7ff fe01 	bl	8005b3c <RCCEx_PLL2_Config>
 8005f3a:	6823      	ldr	r3, [r4, #0]
 8005f3c:	4605      	mov	r5, r0
    if(ret == HAL_OK)
 8005f3e:	2d00      	cmp	r5, #0
 8005f40:	f040 8363 	bne.w	800660a <HAL_RCCEx_PeriphCLKConfig+0x8de>
      __HAL_RCC_SPI6_CONFIG(PeriphClkInit->Spi6ClockSelection);
 8005f44:	4938      	ldr	r1, [pc, #224]	; (8006028 <HAL_RCCEx_PeriphCLKConfig+0x2fc>)
 8005f46:	f8d4 00b0 	ldr.w	r0, [r4, #176]	; 0xb0
 8005f4a:	6d8a      	ldr	r2, [r1, #88]	; 0x58
 8005f4c:	f022 42e0 	bic.w	r2, r2, #1879048192	; 0x70000000
 8005f50:	4302      	orrs	r2, r0
 8005f52:	658a      	str	r2, [r1, #88]	; 0x58
  if(((PeriphClkInit->PeriphClockSelection) & RCC_PERIPHCLK_DSI) == RCC_PERIPHCLK_DSI)
 8005f54:	015a      	lsls	r2, r3, #5
 8005f56:	d509      	bpl.n	8005f6c <HAL_RCCEx_PeriphCLKConfig+0x240>
    switch(PeriphClkInit->DsiClockSelection)
 8005f58:	6ce2      	ldr	r2, [r4, #76]	; 0x4c
 8005f5a:	2a00      	cmp	r2, #0
 8005f5c:	f000 8264 	beq.w	8006428 <HAL_RCCEx_PeriphCLKConfig+0x6fc>
 8005f60:	f5b2 7f80 	cmp.w	r2, #256	; 0x100
 8005f64:	f000 825a 	beq.w	800641c <HAL_RCCEx_PeriphCLKConfig+0x6f0>
 8005f68:	2601      	movs	r6, #1
 8005f6a:	4635      	mov	r5, r6
  if(((PeriphClkInit->PeriphClockSelection) & RCC_PERIPHCLK_FDCAN) == RCC_PERIPHCLK_FDCAN)
 8005f6c:	041f      	lsls	r7, r3, #16
 8005f6e:	d50d      	bpl.n	8005f8c <HAL_RCCEx_PeriphCLKConfig+0x260>
    switch(PeriphClkInit->FdcanClockSelection)
 8005f70:	6f22      	ldr	r2, [r4, #112]	; 0x70
 8005f72:	f1b2 5f80 	cmp.w	r2, #268435456	; 0x10000000
 8005f76:	f000 8420 	beq.w	80067ba <HAL_RCCEx_PeriphCLKConfig+0xa8e>
 8005f7a:	f1b2 5f00 	cmp.w	r2, #536870912	; 0x20000000
 8005f7e:	f000 82ce 	beq.w	800651e <HAL_RCCEx_PeriphCLKConfig+0x7f2>
 8005f82:	2a00      	cmp	r2, #0
 8005f84:	f000 82d1 	beq.w	800652a <HAL_RCCEx_PeriphCLKConfig+0x7fe>
 8005f88:	2601      	movs	r6, #1
 8005f8a:	4635      	mov	r5, r6
  if(((PeriphClkInit->PeriphClockSelection) & RCC_PERIPHCLK_FMC) == RCC_PERIPHCLK_FMC)
 8005f8c:	01d8      	lsls	r0, r3, #7
 8005f8e:	f100 81cf 	bmi.w	8006330 <HAL_RCCEx_PeriphCLKConfig+0x604>
  if(((PeriphClkInit->PeriphClockSelection) & RCC_PERIPHCLK_RTC) == RCC_PERIPHCLK_RTC)
 8005f92:	0259      	lsls	r1, r3, #9
 8005f94:	f100 81ef 	bmi.w	8006376 <HAL_RCCEx_PeriphCLKConfig+0x64a>
  if(((PeriphClkInit->PeriphClockSelection) & RCC_PERIPHCLK_USART16) == RCC_PERIPHCLK_USART16)
 8005f98:	07df      	lsls	r7, r3, #31
 8005f9a:	f140 8088 	bpl.w	80060ae <HAL_RCCEx_PeriphCLKConfig+0x382>
    switch(PeriphClkInit->Usart16ClockSelection)
 8005f9e:	6fe2      	ldr	r2, [r4, #124]	; 0x7c
 8005fa0:	2a28      	cmp	r2, #40	; 0x28
 8005fa2:	f200 81cf 	bhi.w	8006344 <HAL_RCCEx_PeriphCLKConfig+0x618>
 8005fa6:	e8df f012 	tbh	[pc, r2, lsl #1]
 8005faa:	007e      	.short	0x007e
 8005fac:	01cd01cd 	.word	0x01cd01cd
 8005fb0:	01cd01cd 	.word	0x01cd01cd
 8005fb4:	01cd01cd 	.word	0x01cd01cd
 8005fb8:	03d401cd 	.word	0x03d401cd
 8005fbc:	01cd01cd 	.word	0x01cd01cd
 8005fc0:	01cd01cd 	.word	0x01cd01cd
 8005fc4:	01cd01cd 	.word	0x01cd01cd
 8005fc8:	007701cd 	.word	0x007701cd
 8005fcc:	01cd01cd 	.word	0x01cd01cd
 8005fd0:	01cd01cd 	.word	0x01cd01cd
 8005fd4:	01cd01cd 	.word	0x01cd01cd
 8005fd8:	007e01cd 	.word	0x007e01cd
 8005fdc:	01cd01cd 	.word	0x01cd01cd
 8005fe0:	01cd01cd 	.word	0x01cd01cd
 8005fe4:	01cd01cd 	.word	0x01cd01cd
 8005fe8:	007e01cd 	.word	0x007e01cd
 8005fec:	01cd01cd 	.word	0x01cd01cd
 8005ff0:	01cd01cd 	.word	0x01cd01cd
 8005ff4:	01cd01cd 	.word	0x01cd01cd
 8005ff8:	007e01cd 	.word	0x007e01cd
    switch(PeriphClkInit->Sai23ClockSelection)
 8005ffc:	2ac0      	cmp	r2, #192	; 0xc0
 8005ffe:	f43f aee2 	beq.w	8005dc6 <HAL_RCCEx_PeriphCLKConfig+0x9a>
 8006002:	f5b2 7f80 	cmp.w	r2, #256	; 0x100
 8006006:	f43f aede 	beq.w	8005dc6 <HAL_RCCEx_PeriphCLKConfig+0x9a>
 800600a:	2601      	movs	r6, #1
 800600c:	4635      	mov	r5, r6
 800600e:	e6e4      	b.n	8005dda <HAL_RCCEx_PeriphCLKConfig+0xae>
    switch(PeriphClkInit->Sai4AClockSelection)
 8006010:	f5b2 0fc0 	cmp.w	r2, #6291456	; 0x600000
 8006014:	f43f aef8 	beq.w	8005e08 <HAL_RCCEx_PeriphCLKConfig+0xdc>
 8006018:	f5b2 0f00 	cmp.w	r2, #8388608	; 0x800000
 800601c:	f43f aef4 	beq.w	8005e08 <HAL_RCCEx_PeriphCLKConfig+0xdc>
 8006020:	2601      	movs	r6, #1
 8006022:	4635      	mov	r5, r6
 8006024:	e6fb      	b.n	8005e1e <HAL_RCCEx_PeriphCLKConfig+0xf2>
 8006026:	bf00      	nop
 8006028:	58024400 	.word	0x58024400
    switch(PeriphClkInit->Sai4BClockSelection)
 800602c:	f1b2 7f40 	cmp.w	r2, #50331648	; 0x3000000
 8006030:	f43f af0c 	beq.w	8005e4c <HAL_RCCEx_PeriphCLKConfig+0x120>
 8006034:	f1b2 6f80 	cmp.w	r2, #67108864	; 0x4000000
 8006038:	f43f af08 	beq.w	8005e4c <HAL_RCCEx_PeriphCLKConfig+0x120>
 800603c:	2601      	movs	r6, #1
 800603e:	4635      	mov	r5, r6
 8006040:	e70f      	b.n	8005e62 <HAL_RCCEx_PeriphCLKConfig+0x136>
    switch(PeriphClkInit->QspiClockSelection)
 8006042:	2a30      	cmp	r2, #48	; 0x30
 8006044:	f43f af1e 	beq.w	8005e84 <HAL_RCCEx_PeriphCLKConfig+0x158>
 8006048:	2601      	movs	r6, #1
 800604a:	4635      	mov	r5, r6
 800604c:	e724      	b.n	8005e98 <HAL_RCCEx_PeriphCLKConfig+0x16c>
    switch(PeriphClkInit->Spi123ClockSelection)
 800604e:	f5b2 5f40 	cmp.w	r2, #12288	; 0x3000
 8006052:	f43f af37 	beq.w	8005ec4 <HAL_RCCEx_PeriphCLKConfig+0x198>
 8006056:	f5b2 4f80 	cmp.w	r2, #16384	; 0x4000
 800605a:	f43f af33 	beq.w	8005ec4 <HAL_RCCEx_PeriphCLKConfig+0x198>
 800605e:	2601      	movs	r6, #1
 8006060:	4635      	mov	r5, r6
 8006062:	e739      	b.n	8005ed8 <HAL_RCCEx_PeriphCLKConfig+0x1ac>
    switch(PeriphClkInit->Spi45ClockSelection)
 8006064:	f422 3180 	bic.w	r1, r2, #65536	; 0x10000
 8006068:	f5b1 2f80 	cmp.w	r1, #262144	; 0x40000
 800606c:	f43f af48 	beq.w	8005f00 <HAL_RCCEx_PeriphCLKConfig+0x1d4>
 8006070:	f5b2 3f40 	cmp.w	r2, #196608	; 0x30000
 8006074:	f43f af44 	beq.w	8005f00 <HAL_RCCEx_PeriphCLKConfig+0x1d4>
 8006078:	2601      	movs	r6, #1
 800607a:	4635      	mov	r5, r6
 800607c:	e74a      	b.n	8005f14 <HAL_RCCEx_PeriphCLKConfig+0x1e8>
    switch(PeriphClkInit->Spi6ClockSelection)
 800607e:	f022 5180 	bic.w	r1, r2, #268435456	; 0x10000000
 8006082:	f1b1 4f80 	cmp.w	r1, #1073741824	; 0x40000000
 8006086:	f43f af5a 	beq.w	8005f3e <HAL_RCCEx_PeriphCLKConfig+0x212>
 800608a:	f1b2 5f40 	cmp.w	r2, #805306368	; 0x30000000
 800608e:	f43f af56 	beq.w	8005f3e <HAL_RCCEx_PeriphCLKConfig+0x212>
 8006092:	2601      	movs	r6, #1
 8006094:	4635      	mov	r5, r6
 8006096:	e75d      	b.n	8005f54 <HAL_RCCEx_PeriphCLKConfig+0x228>
      ret = RCCEx_PLL3_Config(&(PeriphClkInit->PLL3),DIVIDER_Q_UPDATE);
 8006098:	2101      	movs	r1, #1
 800609a:	f104 0024 	add.w	r0, r4, #36	; 0x24
 800609e:	f7ff fdc9 	bl	8005c34 <RCCEx_PLL3_Config>
 80060a2:	6823      	ldr	r3, [r4, #0]
 80060a4:	4605      	mov	r5, r0
    if(ret == HAL_OK)
 80060a6:	2d00      	cmp	r5, #0
 80060a8:	f000 82c0 	beq.w	800662c <HAL_RCCEx_PeriphCLKConfig+0x900>
 80060ac:	462e      	mov	r6, r5
  if(((PeriphClkInit->PeriphClockSelection) & RCC_PERIPHCLK_USART234578) == RCC_PERIPHCLK_USART234578)
 80060ae:	0798      	lsls	r0, r3, #30
 80060b0:	d516      	bpl.n	80060e0 <HAL_RCCEx_PeriphCLKConfig+0x3b4>
    switch(PeriphClkInit->Usart234578ClockSelection)
 80060b2:	6fa2      	ldr	r2, [r4, #120]	; 0x78
 80060b4:	2a05      	cmp	r2, #5
 80060b6:	f200 83e6 	bhi.w	8006886 <HAL_RCCEx_PeriphCLKConfig+0xb5a>
 80060ba:	e8df f012 	tbh	[pc, r2, lsl #1]
 80060be:	000d      	.short	0x000d
 80060c0:	00060336 	.word	0x00060336
 80060c4:	000d000d 	.word	0x000d000d
 80060c8:	000d      	.short	0x000d
      ret = RCCEx_PLL3_Config(&(PeriphClkInit->PLL3),DIVIDER_Q_UPDATE);
 80060ca:	2101      	movs	r1, #1
 80060cc:	f104 0024 	add.w	r0, r4, #36	; 0x24
 80060d0:	f7ff fdb0 	bl	8005c34 <RCCEx_PLL3_Config>
 80060d4:	6823      	ldr	r3, [r4, #0]
 80060d6:	4605      	mov	r5, r0
    if(ret == HAL_OK)
 80060d8:	2d00      	cmp	r5, #0
 80060da:	f000 8279 	beq.w	80065d0 <HAL_RCCEx_PeriphCLKConfig+0x8a4>
 80060de:	462e      	mov	r6, r5
  if(((PeriphClkInit->PeriphClockSelection) & RCC_PERIPHCLK_LPUART1) == RCC_PERIPHCLK_LPUART1)
 80060e0:	0759      	lsls	r1, r3, #29
 80060e2:	d517      	bpl.n	8006114 <HAL_RCCEx_PeriphCLKConfig+0x3e8>
    switch(PeriphClkInit->Lpuart1ClockSelection)
 80060e4:	f8d4 2094 	ldr.w	r2, [r4, #148]	; 0x94
 80060e8:	2a05      	cmp	r2, #5
 80060ea:	f200 83c6 	bhi.w	800687a <HAL_RCCEx_PeriphCLKConfig+0xb4e>
 80060ee:	e8df f012 	tbh	[pc, r2, lsl #1]
 80060f2:	000d      	.short	0x000d
 80060f4:	00060326 	.word	0x00060326
 80060f8:	000d000d 	.word	0x000d000d
 80060fc:	000d      	.short	0x000d
      ret = RCCEx_PLL3_Config(&(PeriphClkInit->PLL3),DIVIDER_Q_UPDATE);
 80060fe:	2101      	movs	r1, #1
 8006100:	f104 0024 	add.w	r0, r4, #36	; 0x24
 8006104:	f7ff fd96 	bl	8005c34 <RCCEx_PLL3_Config>
 8006108:	6823      	ldr	r3, [r4, #0]
 800610a:	4605      	mov	r5, r0
    if(ret == HAL_OK)
 800610c:	2d00      	cmp	r5, #0
 800610e:	f000 826a 	beq.w	80065e6 <HAL_RCCEx_PeriphCLKConfig+0x8ba>
 8006112:	462e      	mov	r6, r5
  if(((PeriphClkInit->PeriphClockSelection) & RCC_PERIPHCLK_LPTIM1) == RCC_PERIPHCLK_LPTIM1)
 8006114:	069a      	lsls	r2, r3, #26
 8006116:	d51d      	bpl.n	8006154 <HAL_RCCEx_PeriphCLKConfig+0x428>
    switch(PeriphClkInit->Lptim1ClockSelection)
 8006118:	f8d4 2090 	ldr.w	r2, [r4, #144]	; 0x90
 800611c:	f1b2 5f00 	cmp.w	r2, #536870912	; 0x20000000
 8006120:	f000 8340 	beq.w	80067a4 <HAL_RCCEx_PeriphCLKConfig+0xa78>
 8006124:	f200 81af 	bhi.w	8006486 <HAL_RCCEx_PeriphCLKConfig+0x75a>
 8006128:	b14a      	cbz	r2, 800613e <HAL_RCCEx_PeriphCLKConfig+0x412>
 800612a:	f1b2 5f80 	cmp.w	r2, #268435456	; 0x10000000
 800612e:	f040 81b4 	bne.w	800649a <HAL_RCCEx_PeriphCLKConfig+0x76e>
      ret = RCCEx_PLL2_Config(&(PeriphClkInit->PLL2),DIVIDER_P_UPDATE);
 8006132:	2100      	movs	r1, #0
 8006134:	1d20      	adds	r0, r4, #4
 8006136:	f7ff fd01 	bl	8005b3c <RCCEx_PLL2_Config>
 800613a:	6823      	ldr	r3, [r4, #0]
 800613c:	4605      	mov	r5, r0
    if(ret == HAL_OK)
 800613e:	2d00      	cmp	r5, #0
 8006140:	f040 823c 	bne.w	80065bc <HAL_RCCEx_PeriphCLKConfig+0x890>
      __HAL_RCC_LPTIM1_CONFIG(PeriphClkInit->Lptim1ClockSelection);
 8006144:	49b3      	ldr	r1, [pc, #716]	; (8006414 <HAL_RCCEx_PeriphCLKConfig+0x6e8>)
 8006146:	f8d4 0090 	ldr.w	r0, [r4, #144]	; 0x90
 800614a:	6d4a      	ldr	r2, [r1, #84]	; 0x54
 800614c:	f022 42e0 	bic.w	r2, r2, #1879048192	; 0x70000000
 8006150:	4302      	orrs	r2, r0
 8006152:	654a      	str	r2, [r1, #84]	; 0x54
  if(((PeriphClkInit->PeriphClockSelection) & RCC_PERIPHCLK_LPTIM2) == RCC_PERIPHCLK_LPTIM2)
 8006154:	065f      	lsls	r7, r3, #25
 8006156:	d51d      	bpl.n	8006194 <HAL_RCCEx_PeriphCLKConfig+0x468>
    switch(PeriphClkInit->Lptim2ClockSelection)
 8006158:	f8d4 209c 	ldr.w	r2, [r4, #156]	; 0x9c
 800615c:	f5b2 6f00 	cmp.w	r2, #2048	; 0x800
 8006160:	f000 8334 	beq.w	80067cc <HAL_RCCEx_PeriphCLKConfig+0xaa0>
 8006164:	f200 817f 	bhi.w	8006466 <HAL_RCCEx_PeriphCLKConfig+0x73a>
 8006168:	b14a      	cbz	r2, 800617e <HAL_RCCEx_PeriphCLKConfig+0x452>
 800616a:	f5b2 6f80 	cmp.w	r2, #1024	; 0x400
 800616e:	f040 8184 	bne.w	800647a <HAL_RCCEx_PeriphCLKConfig+0x74e>
      ret = RCCEx_PLL2_Config(&(PeriphClkInit->PLL2),DIVIDER_P_UPDATE);
 8006172:	2100      	movs	r1, #0
 8006174:	1d20      	adds	r0, r4, #4
 8006176:	f7ff fce1 	bl	8005b3c <RCCEx_PLL2_Config>
 800617a:	6823      	ldr	r3, [r4, #0]
 800617c:	4605      	mov	r5, r0
    if(ret == HAL_OK)
 800617e:	2d00      	cmp	r5, #0
 8006180:	f040 8221 	bne.w	80065c6 <HAL_RCCEx_PeriphCLKConfig+0x89a>
      __HAL_RCC_LPTIM2_CONFIG(PeriphClkInit->Lptim2ClockSelection);
 8006184:	49a3      	ldr	r1, [pc, #652]	; (8006414 <HAL_RCCEx_PeriphCLKConfig+0x6e8>)
 8006186:	f8d4 009c 	ldr.w	r0, [r4, #156]	; 0x9c
 800618a:	6d8a      	ldr	r2, [r1, #88]	; 0x58
 800618c:	f422 52e0 	bic.w	r2, r2, #7168	; 0x1c00
 8006190:	4302      	orrs	r2, r0
 8006192:	658a      	str	r2, [r1, #88]	; 0x58
  if(((PeriphClkInit->PeriphClockSelection) & RCC_PERIPHCLK_LPTIM345) == RCC_PERIPHCLK_LPTIM345)
 8006194:	0618      	lsls	r0, r3, #24
 8006196:	d51d      	bpl.n	80061d4 <HAL_RCCEx_PeriphCLKConfig+0x4a8>
    switch(PeriphClkInit->Lptim345ClockSelection)
 8006198:	f8d4 20a0 	ldr.w	r2, [r4, #160]	; 0xa0
 800619c:	f5b2 4f80 	cmp.w	r2, #16384	; 0x4000
 80061a0:	f000 831f 	beq.w	80067e2 <HAL_RCCEx_PeriphCLKConfig+0xab6>
 80061a4:	f200 814f 	bhi.w	8006446 <HAL_RCCEx_PeriphCLKConfig+0x71a>
 80061a8:	b14a      	cbz	r2, 80061be <HAL_RCCEx_PeriphCLKConfig+0x492>
 80061aa:	f5b2 5f00 	cmp.w	r2, #8192	; 0x2000
 80061ae:	f040 8154 	bne.w	800645a <HAL_RCCEx_PeriphCLKConfig+0x72e>
      ret = RCCEx_PLL2_Config(&(PeriphClkInit->PLL2),DIVIDER_P_UPDATE);
 80061b2:	2100      	movs	r1, #0
 80061b4:	1d20      	adds	r0, r4, #4
 80061b6:	f7ff fcc1 	bl	8005b3c <RCCEx_PLL2_Config>
 80061ba:	6823      	ldr	r3, [r4, #0]
 80061bc:	4605      	mov	r5, r0
    if(ret == HAL_OK)
 80061be:	2d00      	cmp	r5, #0
 80061c0:	f040 81f7 	bne.w	80065b2 <HAL_RCCEx_PeriphCLKConfig+0x886>
      __HAL_RCC_LPTIM345_CONFIG(PeriphClkInit->Lptim345ClockSelection);
 80061c4:	4993      	ldr	r1, [pc, #588]	; (8006414 <HAL_RCCEx_PeriphCLKConfig+0x6e8>)
 80061c6:	f8d4 00a0 	ldr.w	r0, [r4, #160]	; 0xa0
 80061ca:	6d8a      	ldr	r2, [r1, #88]	; 0x58
 80061cc:	f422 4260 	bic.w	r2, r2, #57344	; 0xe000
 80061d0:	4302      	orrs	r2, r0
 80061d2:	658a      	str	r2, [r1, #88]	; 0x58
  if(((PeriphClkInit->PeriphClockSelection) & RCC_PERIPHCLK_I2C123) == RCC_PERIPHCLK_I2C123)
 80061d4:	0719      	lsls	r1, r3, #28
 80061d6:	d50b      	bpl.n	80061f0 <HAL_RCCEx_PeriphCLKConfig+0x4c4>
    if ((PeriphClkInit->I2c123ClockSelection )== RCC_I2C123CLKSOURCE_PLL3 )
 80061d8:	f8d4 1084 	ldr.w	r1, [r4, #132]	; 0x84
 80061dc:	f5b1 5f80 	cmp.w	r1, #4096	; 0x1000
 80061e0:	f000 831e 	beq.w	8006820 <HAL_RCCEx_PeriphCLKConfig+0xaf4>
      __HAL_RCC_I2C123_CONFIG(PeriphClkInit->I2c123ClockSelection);
 80061e4:	488b      	ldr	r0, [pc, #556]	; (8006414 <HAL_RCCEx_PeriphCLKConfig+0x6e8>)
 80061e6:	6d42      	ldr	r2, [r0, #84]	; 0x54
 80061e8:	f422 5240 	bic.w	r2, r2, #12288	; 0x3000
 80061ec:	430a      	orrs	r2, r1
 80061ee:	6542      	str	r2, [r0, #84]	; 0x54
  if(((PeriphClkInit->PeriphClockSelection) & RCC_PERIPHCLK_I2C4) == RCC_PERIPHCLK_I2C4)
 80061f0:	06da      	lsls	r2, r3, #27
 80061f2:	d50b      	bpl.n	800620c <HAL_RCCEx_PeriphCLKConfig+0x4e0>
    if ((PeriphClkInit->I2c4ClockSelection) == RCC_I2C4CLKSOURCE_PLL3 )
 80061f4:	f8d4 1098 	ldr.w	r1, [r4, #152]	; 0x98
 80061f8:	f5b1 7f80 	cmp.w	r1, #256	; 0x100
 80061fc:	f000 8305 	beq.w	800680a <HAL_RCCEx_PeriphCLKConfig+0xade>
      __HAL_RCC_I2C4_CONFIG(PeriphClkInit->I2c4ClockSelection);
 8006200:	4884      	ldr	r0, [pc, #528]	; (8006414 <HAL_RCCEx_PeriphCLKConfig+0x6e8>)
 8006202:	6d82      	ldr	r2, [r0, #88]	; 0x58
 8006204:	f422 7240 	bic.w	r2, r2, #768	; 0x300
 8006208:	430a      	orrs	r2, r1
 800620a:	6582      	str	r2, [r0, #88]	; 0x58
  if(((PeriphClkInit->PeriphClockSelection) & RCC_PERIPHCLK_ADC) == RCC_PERIPHCLK_ADC)
 800620c:	031f      	lsls	r7, r3, #12
 800620e:	d50e      	bpl.n	800622e <HAL_RCCEx_PeriphCLKConfig+0x502>
    switch(PeriphClkInit->AdcClockSelection)
 8006210:	f8d4 10a4 	ldr.w	r1, [r4, #164]	; 0xa4
 8006214:	f5b1 3f80 	cmp.w	r1, #65536	; 0x10000
 8006218:	f000 816b 	beq.w	80064f2 <HAL_RCCEx_PeriphCLKConfig+0x7c6>
 800621c:	f5b1 3f00 	cmp.w	r1, #131072	; 0x20000
 8006220:	f000 816e 	beq.w	8006500 <HAL_RCCEx_PeriphCLKConfig+0x7d4>
 8006224:	2900      	cmp	r1, #0
 8006226:	f000 82e7 	beq.w	80067f8 <HAL_RCCEx_PeriphCLKConfig+0xacc>
 800622a:	2601      	movs	r6, #1
 800622c:	4635      	mov	r5, r6
  if(((PeriphClkInit->PeriphClockSelection) & RCC_PERIPHCLK_USB) == RCC_PERIPHCLK_USB)
 800622e:	0358      	lsls	r0, r3, #13
 8006230:	d50f      	bpl.n	8006252 <HAL_RCCEx_PeriphCLKConfig+0x526>
    switch(PeriphClkInit->UsbClockSelection)
 8006232:	f8d4 2088 	ldr.w	r2, [r4, #136]	; 0x88
 8006236:	f5b2 1f00 	cmp.w	r2, #2097152	; 0x200000
 800623a:	f000 8144 	beq.w	80064c6 <HAL_RCCEx_PeriphCLKConfig+0x79a>
 800623e:	f5b2 1f40 	cmp.w	r2, #3145728	; 0x300000
 8006242:	f000 8147 	beq.w	80064d4 <HAL_RCCEx_PeriphCLKConfig+0x7a8>
 8006246:	f5b2 1f80 	cmp.w	r2, #1048576	; 0x100000
 800624a:	f000 82a2 	beq.w	8006792 <HAL_RCCEx_PeriphCLKConfig+0xa66>
 800624e:	2601      	movs	r6, #1
 8006250:	4635      	mov	r5, r6
  if(((PeriphClkInit->PeriphClockSelection) & RCC_PERIPHCLK_SDMMC) == RCC_PERIPHCLK_SDMMC)
 8006252:	03d9      	lsls	r1, r3, #15
 8006254:	d517      	bpl.n	8006286 <HAL_RCCEx_PeriphCLKConfig+0x55a>
    switch(PeriphClkInit->SdmmcClockSelection)
 8006256:	6d22      	ldr	r2, [r4, #80]	; 0x50
 8006258:	2a00      	cmp	r2, #0
 800625a:	f000 8288 	beq.w	800676e <HAL_RCCEx_PeriphCLKConfig+0xa42>
 800625e:	f5b2 3f80 	cmp.w	r2, #65536	; 0x10000
 8006262:	f040 817a 	bne.w	800655a <HAL_RCCEx_PeriphCLKConfig+0x82e>
      ret = RCCEx_PLL2_Config(&(PeriphClkInit->PLL2),DIVIDER_R_UPDATE);
 8006266:	2102      	movs	r1, #2
 8006268:	1d20      	adds	r0, r4, #4
 800626a:	f7ff fc67 	bl	8005b3c <RCCEx_PLL2_Config>
 800626e:	4605      	mov	r5, r0
    if(ret == HAL_OK)
 8006270:	6823      	ldr	r3, [r4, #0]
 8006272:	2d00      	cmp	r5, #0
 8006274:	f040 81e5 	bne.w	8006642 <HAL_RCCEx_PeriphCLKConfig+0x916>
      __HAL_RCC_SDMMC_CONFIG(PeriphClkInit->SdmmcClockSelection);
 8006278:	4966      	ldr	r1, [pc, #408]	; (8006414 <HAL_RCCEx_PeriphCLKConfig+0x6e8>)
 800627a:	6d20      	ldr	r0, [r4, #80]	; 0x50
 800627c:	6cca      	ldr	r2, [r1, #76]	; 0x4c
 800627e:	f422 3280 	bic.w	r2, r2, #65536	; 0x10000
 8006282:	4302      	orrs	r2, r0
 8006284:	64ca      	str	r2, [r1, #76]	; 0x4c
  if(((PeriphClkInit->PeriphClockSelection) & RCC_PERIPHCLK_LTDC) == RCC_PERIPHCLK_LTDC)
 8006286:	009a      	lsls	r2, r3, #2
 8006288:	f100 815c 	bmi.w	8006544 <HAL_RCCEx_PeriphCLKConfig+0x818>
  if(((PeriphClkInit->PeriphClockSelection) & RCC_PERIPHCLK_RNG) == RCC_PERIPHCLK_RNG)
 800628c:	039f      	lsls	r7, r3, #14
 800628e:	d43f      	bmi.n	8006310 <HAL_RCCEx_PeriphCLKConfig+0x5e4>
 8006290:	1e30      	subs	r0, r6, #0
 8006292:	bf18      	it	ne
 8006294:	2001      	movne	r0, #1
  if(((PeriphClkInit->PeriphClockSelection) & RCC_PERIPHCLK_SWPMI1) == RCC_PERIPHCLK_SWPMI1)
 8006296:	02de      	lsls	r6, r3, #11
 8006298:	d506      	bpl.n	80062a8 <HAL_RCCEx_PeriphCLKConfig+0x57c>
    __HAL_RCC_SWPMI1_CONFIG(PeriphClkInit->Swpmi1ClockSelection);
 800629a:	495e      	ldr	r1, [pc, #376]	; (8006414 <HAL_RCCEx_PeriphCLKConfig+0x6e8>)
 800629c:	6f65      	ldr	r5, [r4, #116]	; 0x74
 800629e:	6d0a      	ldr	r2, [r1, #80]	; 0x50
 80062a0:	f022 4200 	bic.w	r2, r2, #2147483648	; 0x80000000
 80062a4:	432a      	orrs	r2, r5
 80062a6:	650a      	str	r2, [r1, #80]	; 0x50
  if(((PeriphClkInit->PeriphClockSelection) & RCC_PERIPHCLK_HRTIM1) == RCC_PERIPHCLK_HRTIM1)
 80062a8:	00dd      	lsls	r5, r3, #3
 80062aa:	d507      	bpl.n	80062bc <HAL_RCCEx_PeriphCLKConfig+0x590>
    __HAL_RCC_HRTIM1_CONFIG(PeriphClkInit->Hrtim1ClockSelection);
 80062ac:	4959      	ldr	r1, [pc, #356]	; (8006414 <HAL_RCCEx_PeriphCLKConfig+0x6e8>)
 80062ae:	f8d4 50b8 	ldr.w	r5, [r4, #184]	; 0xb8
 80062b2:	690a      	ldr	r2, [r1, #16]
 80062b4:	f422 4280 	bic.w	r2, r2, #16384	; 0x4000
 80062b8:	432a      	orrs	r2, r5
 80062ba:	610a      	str	r2, [r1, #16]
  if(((PeriphClkInit->PeriphClockSelection) & RCC_PERIPHCLK_DFSDM1) == RCC_PERIPHCLK_DFSDM1)
 80062bc:	0299      	lsls	r1, r3, #10
 80062be:	d506      	bpl.n	80062ce <HAL_RCCEx_PeriphCLKConfig+0x5a2>
    __HAL_RCC_DFSDM1_CONFIG(PeriphClkInit->Dfsdm1ClockSelection);
 80062c0:	4954      	ldr	r1, [pc, #336]	; (8006414 <HAL_RCCEx_PeriphCLKConfig+0x6e8>)
 80062c2:	6ee5      	ldr	r5, [r4, #108]	; 0x6c
 80062c4:	6d0a      	ldr	r2, [r1, #80]	; 0x50
 80062c6:	f022 7280 	bic.w	r2, r2, #16777216	; 0x1000000
 80062ca:	432a      	orrs	r2, r5
 80062cc:	650a      	str	r2, [r1, #80]	; 0x50
  if(((PeriphClkInit->PeriphClockSelection) & RCC_PERIPHCLK_TIM) == RCC_PERIPHCLK_TIM)
 80062ce:	005a      	lsls	r2, r3, #1
 80062d0:	d509      	bpl.n	80062e6 <HAL_RCCEx_PeriphCLKConfig+0x5ba>
    __HAL_RCC_TIMCLKPRESCALER(PeriphClkInit->TIMPresSelection);
 80062d2:	4a50      	ldr	r2, [pc, #320]	; (8006414 <HAL_RCCEx_PeriphCLKConfig+0x6e8>)
 80062d4:	6911      	ldr	r1, [r2, #16]
 80062d6:	f421 4100 	bic.w	r1, r1, #32768	; 0x8000
 80062da:	6111      	str	r1, [r2, #16]
 80062dc:	6911      	ldr	r1, [r2, #16]
 80062de:	f8d4 50bc 	ldr.w	r5, [r4, #188]	; 0xbc
 80062e2:	4329      	orrs	r1, r5
 80062e4:	6111      	str	r1, [r2, #16]
  if(((PeriphClkInit->PeriphClockSelection) & RCC_PERIPHCLK_CKPER) == RCC_PERIPHCLK_CKPER)
 80062e6:	2b00      	cmp	r3, #0
 80062e8:	da06      	bge.n	80062f8 <HAL_RCCEx_PeriphCLKConfig+0x5cc>
    __HAL_RCC_CLKP_CONFIG(PeriphClkInit->CkperClockSelection);
 80062ea:	494a      	ldr	r1, [pc, #296]	; (8006414 <HAL_RCCEx_PeriphCLKConfig+0x6e8>)
 80062ec:	6d65      	ldr	r5, [r4, #84]	; 0x54
 80062ee:	6cca      	ldr	r2, [r1, #76]	; 0x4c
 80062f0:	f022 5240 	bic.w	r2, r2, #805306368	; 0x30000000
 80062f4:	432a      	orrs	r2, r5
 80062f6:	64ca      	str	r2, [r1, #76]	; 0x4c
  if(((PeriphClkInit->PeriphClockSelection) & RCC_PERIPHCLK_CEC) == RCC_PERIPHCLK_CEC)
 80062f8:	021b      	lsls	r3, r3, #8
 80062fa:	d507      	bpl.n	800630c <HAL_RCCEx_PeriphCLKConfig+0x5e0>
    __HAL_RCC_CEC_CONFIG(PeriphClkInit->CecClockSelection);
 80062fc:	4a45      	ldr	r2, [pc, #276]	; (8006414 <HAL_RCCEx_PeriphCLKConfig+0x6e8>)
 80062fe:	f8d4 108c 	ldr.w	r1, [r4, #140]	; 0x8c
 8006302:	6d53      	ldr	r3, [r2, #84]	; 0x54
 8006304:	f423 0340 	bic.w	r3, r3, #12582912	; 0xc00000
 8006308:	430b      	orrs	r3, r1
 800630a:	6553      	str	r3, [r2, #84]	; 0x54
}
 800630c:	e8bd 83f8 	ldmia.w	sp!, {r3, r4, r5, r6, r7, r8, r9, pc}
    switch(PeriphClkInit->RngClockSelection)
 8006310:	f8d4 2080 	ldr.w	r2, [r4, #128]	; 0x80
 8006314:	f5b2 7f80 	cmp.w	r2, #256	; 0x100
 8006318:	f000 8232 	beq.w	8006780 <HAL_RCCEx_PeriphCLKConfig+0xa54>
 800631c:	f240 80c3 	bls.w	80064a6 <HAL_RCCEx_PeriphCLKConfig+0x77a>
 8006320:	f422 7180 	bic.w	r1, r2, #256	; 0x100
 8006324:	f5b1 7f00 	cmp.w	r1, #512	; 0x200
 8006328:	f000 80c0 	beq.w	80064ac <HAL_RCCEx_PeriphCLKConfig+0x780>
 800632c:	2001      	movs	r0, #1
 800632e:	e7b2      	b.n	8006296 <HAL_RCCEx_PeriphCLKConfig+0x56a>
    switch(PeriphClkInit->FmcClockSelection)
 8006330:	6c62      	ldr	r2, [r4, #68]	; 0x44
 8006332:	2a03      	cmp	r2, #3
 8006334:	f200 82aa 	bhi.w	800688c <HAL_RCCEx_PeriphCLKConfig+0xb60>
 8006338:	e8df f012 	tbh	[pc, r2, lsl #1]
 800633c:	018a0010 	.word	0x018a0010
 8006340:	0010000a 	.word	0x0010000a
    switch(PeriphClkInit->Usart16ClockSelection)
 8006344:	2601      	movs	r6, #1
  if(((PeriphClkInit->PeriphClockSelection) & RCC_PERIPHCLK_USART234578) == RCC_PERIPHCLK_USART234578)
 8006346:	0798      	lsls	r0, r3, #30
    switch(PeriphClkInit->Usart16ClockSelection)
 8006348:	4635      	mov	r5, r6
  if(((PeriphClkInit->PeriphClockSelection) & RCC_PERIPHCLK_USART234578) == RCC_PERIPHCLK_USART234578)
 800634a:	f57f aec9 	bpl.w	80060e0 <HAL_RCCEx_PeriphCLKConfig+0x3b4>
 800634e:	e6b0      	b.n	80060b2 <HAL_RCCEx_PeriphCLKConfig+0x386>
      ret = RCCEx_PLL2_Config(&(PeriphClkInit->PLL2),DIVIDER_R_UPDATE);
 8006350:	2102      	movs	r1, #2
 8006352:	1d20      	adds	r0, r4, #4
 8006354:	f7ff fbf2 	bl	8005b3c <RCCEx_PLL2_Config>
 8006358:	6823      	ldr	r3, [r4, #0]
 800635a:	4605      	mov	r5, r0
    if(ret == HAL_OK)
 800635c:	2d00      	cmp	r5, #0
 800635e:	f040 8152 	bne.w	8006606 <HAL_RCCEx_PeriphCLKConfig+0x8da>
      __HAL_RCC_FMC_CONFIG(PeriphClkInit->FmcClockSelection);
 8006362:	492c      	ldr	r1, [pc, #176]	; (8006414 <HAL_RCCEx_PeriphCLKConfig+0x6e8>)
 8006364:	6c60      	ldr	r0, [r4, #68]	; 0x44
 8006366:	6cca      	ldr	r2, [r1, #76]	; 0x4c
 8006368:	f022 0203 	bic.w	r2, r2, #3
 800636c:	4302      	orrs	r2, r0
 800636e:	64ca      	str	r2, [r1, #76]	; 0x4c
  if(((PeriphClkInit->PeriphClockSelection) & RCC_PERIPHCLK_RTC) == RCC_PERIPHCLK_RTC)
 8006370:	0259      	lsls	r1, r3, #9
 8006372:	f57f ae11 	bpl.w	8005f98 <HAL_RCCEx_PeriphCLKConfig+0x26c>
    SET_BIT(PWR->CR1, PWR_CR1_DBP);
 8006376:	4b28      	ldr	r3, [pc, #160]	; (8006418 <HAL_RCCEx_PeriphCLKConfig+0x6ec>)
 8006378:	681a      	ldr	r2, [r3, #0]
    while((PWR->CR1 & PWR_CR1_DBP) == 0U)
 800637a:	4698      	mov	r8, r3
    SET_BIT(PWR->CR1, PWR_CR1_DBP);
 800637c:	f442 7280 	orr.w	r2, r2, #256	; 0x100
 8006380:	601a      	str	r2, [r3, #0]
    tickstart = HAL_GetTick();
 8006382:	f7fd fd57 	bl	8003e34 <HAL_GetTick>
 8006386:	4607      	mov	r7, r0
    while((PWR->CR1 & PWR_CR1_DBP) == 0U)
 8006388:	e005      	b.n	8006396 <HAL_RCCEx_PeriphCLKConfig+0x66a>
      if((HAL_GetTick() - tickstart) > RCC_DBP_TIMEOUT_VALUE)
 800638a:	f7fd fd53 	bl	8003e34 <HAL_GetTick>
 800638e:	1bc0      	subs	r0, r0, r7
 8006390:	2864      	cmp	r0, #100	; 0x64
 8006392:	f200 81e8 	bhi.w	8006766 <HAL_RCCEx_PeriphCLKConfig+0xa3a>
    while((PWR->CR1 & PWR_CR1_DBP) == 0U)
 8006396:	f8d8 3000 	ldr.w	r3, [r8]
 800639a:	05da      	lsls	r2, r3, #23
 800639c:	d5f5      	bpl.n	800638a <HAL_RCCEx_PeriphCLKConfig+0x65e>
    if(ret == HAL_OK)
 800639e:	2d00      	cmp	r5, #0
 80063a0:	f040 8267 	bne.w	8006872 <HAL_RCCEx_PeriphCLKConfig+0xb46>
      if((RCC->BDCR & RCC_BDCR_RTCSEL) != (PeriphClkInit->RTCClockSelection & RCC_BDCR_RTCSEL))
 80063a4:	4a1b      	ldr	r2, [pc, #108]	; (8006414 <HAL_RCCEx_PeriphCLKConfig+0x6e8>)
 80063a6:	f8d4 30b4 	ldr.w	r3, [r4, #180]	; 0xb4
 80063aa:	6f11      	ldr	r1, [r2, #112]	; 0x70
 80063ac:	4059      	eors	r1, r3
 80063ae:	f411 7f40 	tst.w	r1, #768	; 0x300
 80063b2:	d00b      	beq.n	80063cc <HAL_RCCEx_PeriphCLKConfig+0x6a0>
        tmpreg = (RCC->BDCR & ~(RCC_BDCR_RTCSEL));
 80063b4:	6f11      	ldr	r1, [r2, #112]	; 0x70
        __HAL_RCC_BACKUPRESET_FORCE();
 80063b6:	6f10      	ldr	r0, [r2, #112]	; 0x70
        tmpreg = (RCC->BDCR & ~(RCC_BDCR_RTCSEL));
 80063b8:	f421 7140 	bic.w	r1, r1, #768	; 0x300
        __HAL_RCC_BACKUPRESET_FORCE();
 80063bc:	f440 3080 	orr.w	r0, r0, #65536	; 0x10000
 80063c0:	6710      	str	r0, [r2, #112]	; 0x70
        __HAL_RCC_BACKUPRESET_RELEASE();
 80063c2:	6f10      	ldr	r0, [r2, #112]	; 0x70
 80063c4:	f420 3080 	bic.w	r0, r0, #65536	; 0x10000
 80063c8:	6710      	str	r0, [r2, #112]	; 0x70
        RCC->BDCR = tmpreg;
 80063ca:	6711      	str	r1, [r2, #112]	; 0x70
      if(PeriphClkInit->RTCClockSelection == RCC_RTCCLKSOURCE_LSE)
 80063cc:	f5b3 7f80 	cmp.w	r3, #256	; 0x100
 80063d0:	f000 8231 	beq.w	8006836 <HAL_RCCEx_PeriphCLKConfig+0xb0a>
        __HAL_RCC_RTC_CONFIG(PeriphClkInit->RTCClockSelection);
 80063d4:	f403 7240 	and.w	r2, r3, #768	; 0x300
 80063d8:	f5b2 7f40 	cmp.w	r2, #768	; 0x300
 80063dc:	f000 823f 	beq.w	800685e <HAL_RCCEx_PeriphCLKConfig+0xb32>
 80063e0:	490c      	ldr	r1, [pc, #48]	; (8006414 <HAL_RCCEx_PeriphCLKConfig+0x6e8>)
 80063e2:	690a      	ldr	r2, [r1, #16]
 80063e4:	f422 527c 	bic.w	r2, r2, #16128	; 0x3f00
 80063e8:	610a      	str	r2, [r1, #16]
 80063ea:	4a0a      	ldr	r2, [pc, #40]	; (8006414 <HAL_RCCEx_PeriphCLKConfig+0x6e8>)
 80063ec:	f3c3 030b 	ubfx	r3, r3, #0, #12
 80063f0:	6f11      	ldr	r1, [r2, #112]	; 0x70
 80063f2:	430b      	orrs	r3, r1
 80063f4:	6713      	str	r3, [r2, #112]	; 0x70
 80063f6:	6823      	ldr	r3, [r4, #0]
 80063f8:	e5ce      	b.n	8005f98 <HAL_RCCEx_PeriphCLKConfig+0x26c>
    switch(PeriphClkInit->Sai1ClockSelection)
 80063fa:	4635      	mov	r5, r6
    if(ret == HAL_OK)
 80063fc:	2d00      	cmp	r5, #0
 80063fe:	f040 80b5 	bne.w	800656c <HAL_RCCEx_PeriphCLKConfig+0x840>
      __HAL_RCC_SAI1_CONFIG(PeriphClkInit->Sai1ClockSelection);
 8006402:	4904      	ldr	r1, [pc, #16]	; (8006414 <HAL_RCCEx_PeriphCLKConfig+0x6e8>)
 8006404:	6da0      	ldr	r0, [r4, #88]	; 0x58
 8006406:	6d0a      	ldr	r2, [r1, #80]	; 0x50
 8006408:	f022 0207 	bic.w	r2, r2, #7
 800640c:	4302      	orrs	r2, r0
 800640e:	650a      	str	r2, [r1, #80]	; 0x50
 8006410:	e4c5      	b.n	8005d9e <HAL_RCCEx_PeriphCLKConfig+0x72>
 8006412:	bf00      	nop
 8006414:	58024400 	.word	0x58024400
 8006418:	58024800 	.word	0x58024800
      ret = RCCEx_PLL2_Config(&(PeriphClkInit->PLL2),DIVIDER_Q_UPDATE);
 800641c:	2101      	movs	r1, #1
 800641e:	1d20      	adds	r0, r4, #4
 8006420:	f7ff fb8c 	bl	8005b3c <RCCEx_PLL2_Config>
 8006424:	6823      	ldr	r3, [r4, #0]
 8006426:	4605      	mov	r5, r0
    if(ret == HAL_OK)
 8006428:	2d00      	cmp	r5, #0
 800642a:	f040 810c 	bne.w	8006646 <HAL_RCCEx_PeriphCLKConfig+0x91a>
      __HAL_RCC_DSI_CONFIG(PeriphClkInit->DsiClockSelection);
 800642e:	49b9      	ldr	r1, [pc, #740]	; (8006714 <HAL_RCCEx_PeriphCLKConfig+0x9e8>)
  if(((PeriphClkInit->PeriphClockSelection) & RCC_PERIPHCLK_FDCAN) == RCC_PERIPHCLK_FDCAN)
 8006430:	041f      	lsls	r7, r3, #16
      __HAL_RCC_DSI_CONFIG(PeriphClkInit->DsiClockSelection);
 8006432:	6ce0      	ldr	r0, [r4, #76]	; 0x4c
 8006434:	6cca      	ldr	r2, [r1, #76]	; 0x4c
 8006436:	f422 7280 	bic.w	r2, r2, #256	; 0x100
 800643a:	ea42 0200 	orr.w	r2, r2, r0
 800643e:	64ca      	str	r2, [r1, #76]	; 0x4c
  if(((PeriphClkInit->PeriphClockSelection) & RCC_PERIPHCLK_FDCAN) == RCC_PERIPHCLK_FDCAN)
 8006440:	f57f ada4 	bpl.w	8005f8c <HAL_RCCEx_PeriphCLKConfig+0x260>
 8006444:	e594      	b.n	8005f70 <HAL_RCCEx_PeriphCLKConfig+0x244>
    switch(PeriphClkInit->Lptim345ClockSelection)
 8006446:	f422 5100 	bic.w	r1, r2, #8192	; 0x2000
 800644a:	f5b1 4f00 	cmp.w	r1, #32768	; 0x8000
 800644e:	f43f aeb6 	beq.w	80061be <HAL_RCCEx_PeriphCLKConfig+0x492>
 8006452:	f5b2 4fc0 	cmp.w	r2, #24576	; 0x6000
 8006456:	f43f aeb2 	beq.w	80061be <HAL_RCCEx_PeriphCLKConfig+0x492>
 800645a:	2601      	movs	r6, #1
  if(((PeriphClkInit->PeriphClockSelection) & RCC_PERIPHCLK_I2C123) == RCC_PERIPHCLK_I2C123)
 800645c:	0719      	lsls	r1, r3, #28
    switch(PeriphClkInit->Lptim345ClockSelection)
 800645e:	4635      	mov	r5, r6
  if(((PeriphClkInit->PeriphClockSelection) & RCC_PERIPHCLK_I2C123) == RCC_PERIPHCLK_I2C123)
 8006460:	f57f aec6 	bpl.w	80061f0 <HAL_RCCEx_PeriphCLKConfig+0x4c4>
 8006464:	e6b8      	b.n	80061d8 <HAL_RCCEx_PeriphCLKConfig+0x4ac>
    switch(PeriphClkInit->Lptim2ClockSelection)
 8006466:	f422 6180 	bic.w	r1, r2, #1024	; 0x400
 800646a:	f5b1 5f80 	cmp.w	r1, #4096	; 0x1000
 800646e:	f43f ae86 	beq.w	800617e <HAL_RCCEx_PeriphCLKConfig+0x452>
 8006472:	f5b2 6f40 	cmp.w	r2, #3072	; 0xc00
 8006476:	f43f ae82 	beq.w	800617e <HAL_RCCEx_PeriphCLKConfig+0x452>
 800647a:	2601      	movs	r6, #1
  if(((PeriphClkInit->PeriphClockSelection) & RCC_PERIPHCLK_LPTIM345) == RCC_PERIPHCLK_LPTIM345)
 800647c:	0618      	lsls	r0, r3, #24
    switch(PeriphClkInit->Lptim2ClockSelection)
 800647e:	4635      	mov	r5, r6
  if(((PeriphClkInit->PeriphClockSelection) & RCC_PERIPHCLK_LPTIM345) == RCC_PERIPHCLK_LPTIM345)
 8006480:	f57f aea8 	bpl.w	80061d4 <HAL_RCCEx_PeriphCLKConfig+0x4a8>
 8006484:	e688      	b.n	8006198 <HAL_RCCEx_PeriphCLKConfig+0x46c>
    switch(PeriphClkInit->Lptim1ClockSelection)
 8006486:	f022 5180 	bic.w	r1, r2, #268435456	; 0x10000000
 800648a:	f1b1 4f80 	cmp.w	r1, #1073741824	; 0x40000000
 800648e:	f43f ae56 	beq.w	800613e <HAL_RCCEx_PeriphCLKConfig+0x412>
 8006492:	f1b2 5f40 	cmp.w	r2, #805306368	; 0x30000000
 8006496:	f43f ae52 	beq.w	800613e <HAL_RCCEx_PeriphCLKConfig+0x412>
 800649a:	2601      	movs	r6, #1
  if(((PeriphClkInit->PeriphClockSelection) & RCC_PERIPHCLK_LPTIM2) == RCC_PERIPHCLK_LPTIM2)
 800649c:	065f      	lsls	r7, r3, #25
    switch(PeriphClkInit->Lptim1ClockSelection)
 800649e:	4635      	mov	r5, r6
  if(((PeriphClkInit->PeriphClockSelection) & RCC_PERIPHCLK_LPTIM2) == RCC_PERIPHCLK_LPTIM2)
 80064a0:	f57f ae78 	bpl.w	8006194 <HAL_RCCEx_PeriphCLKConfig+0x468>
 80064a4:	e658      	b.n	8006158 <HAL_RCCEx_PeriphCLKConfig+0x42c>
    switch(PeriphClkInit->RngClockSelection)
 80064a6:	2a00      	cmp	r2, #0
 80064a8:	f47f af40 	bne.w	800632c <HAL_RCCEx_PeriphCLKConfig+0x600>
    if(ret == HAL_OK)
 80064ac:	2d00      	cmp	r5, #0
 80064ae:	f47f af3d 	bne.w	800632c <HAL_RCCEx_PeriphCLKConfig+0x600>
      __HAL_RCC_RNG_CONFIG(PeriphClkInit->RngClockSelection);
 80064b2:	4d98      	ldr	r5, [pc, #608]	; (8006714 <HAL_RCCEx_PeriphCLKConfig+0x9e8>)
 80064b4:	1e30      	subs	r0, r6, #0
 80064b6:	6d69      	ldr	r1, [r5, #84]	; 0x54
 80064b8:	bf18      	it	ne
 80064ba:	2001      	movne	r0, #1
 80064bc:	f421 7140 	bic.w	r1, r1, #768	; 0x300
 80064c0:	430a      	orrs	r2, r1
 80064c2:	656a      	str	r2, [r5, #84]	; 0x54
 80064c4:	e6e7      	b.n	8006296 <HAL_RCCEx_PeriphCLKConfig+0x56a>
      ret = RCCEx_PLL3_Config(&(PeriphClkInit->PLL3),DIVIDER_Q_UPDATE);
 80064c6:	2101      	movs	r1, #1
 80064c8:	f104 0024 	add.w	r0, r4, #36	; 0x24
 80064cc:	f7ff fbb2 	bl	8005c34 <RCCEx_PLL3_Config>
 80064d0:	6823      	ldr	r3, [r4, #0]
 80064d2:	4605      	mov	r5, r0
    if(ret == HAL_OK)
 80064d4:	2d00      	cmp	r5, #0
 80064d6:	f040 80a4 	bne.w	8006622 <HAL_RCCEx_PeriphCLKConfig+0x8f6>
      __HAL_RCC_USB_CONFIG(PeriphClkInit->UsbClockSelection);
 80064da:	498e      	ldr	r1, [pc, #568]	; (8006714 <HAL_RCCEx_PeriphCLKConfig+0x9e8>)
 80064dc:	f8d4 0088 	ldr.w	r0, [r4, #136]	; 0x88
 80064e0:	6d4a      	ldr	r2, [r1, #84]	; 0x54
 80064e2:	f422 1240 	bic.w	r2, r2, #3145728	; 0x300000
 80064e6:	4302      	orrs	r2, r0
 80064e8:	654a      	str	r2, [r1, #84]	; 0x54
  if(((PeriphClkInit->PeriphClockSelection) & RCC_PERIPHCLK_SDMMC) == RCC_PERIPHCLK_SDMMC)
 80064ea:	03d9      	lsls	r1, r3, #15
 80064ec:	f57f aecb 	bpl.w	8006286 <HAL_RCCEx_PeriphCLKConfig+0x55a>
 80064f0:	e6b1      	b.n	8006256 <HAL_RCCEx_PeriphCLKConfig+0x52a>
      ret = RCCEx_PLL3_Config(&(PeriphClkInit->PLL3),DIVIDER_R_UPDATE);
 80064f2:	2102      	movs	r1, #2
 80064f4:	f104 0024 	add.w	r0, r4, #36	; 0x24
 80064f8:	f7ff fb9c 	bl	8005c34 <RCCEx_PLL3_Config>
 80064fc:	6823      	ldr	r3, [r4, #0]
 80064fe:	4605      	mov	r5, r0
    if(ret == HAL_OK)
 8006500:	2d00      	cmp	r5, #0
 8006502:	f040 8089 	bne.w	8006618 <HAL_RCCEx_PeriphCLKConfig+0x8ec>
      __HAL_RCC_ADC_CONFIG(PeriphClkInit->AdcClockSelection);
 8006506:	4983      	ldr	r1, [pc, #524]	; (8006714 <HAL_RCCEx_PeriphCLKConfig+0x9e8>)
 8006508:	f8d4 00a4 	ldr.w	r0, [r4, #164]	; 0xa4
 800650c:	6d8a      	ldr	r2, [r1, #88]	; 0x58
 800650e:	f422 3240 	bic.w	r2, r2, #196608	; 0x30000
 8006512:	4302      	orrs	r2, r0
  if(((PeriphClkInit->PeriphClockSelection) & RCC_PERIPHCLK_USB) == RCC_PERIPHCLK_USB)
 8006514:	0358      	lsls	r0, r3, #13
      __HAL_RCC_ADC_CONFIG(PeriphClkInit->AdcClockSelection);
 8006516:	658a      	str	r2, [r1, #88]	; 0x58
  if(((PeriphClkInit->PeriphClockSelection) & RCC_PERIPHCLK_USB) == RCC_PERIPHCLK_USB)
 8006518:	f57f ae9b 	bpl.w	8006252 <HAL_RCCEx_PeriphCLKConfig+0x526>
 800651c:	e689      	b.n	8006232 <HAL_RCCEx_PeriphCLKConfig+0x506>
      ret = RCCEx_PLL2_Config(&(PeriphClkInit->PLL2),DIVIDER_Q_UPDATE);
 800651e:	2101      	movs	r1, #1
 8006520:	1d20      	adds	r0, r4, #4
 8006522:	f7ff fb0b 	bl	8005b3c <RCCEx_PLL2_Config>
 8006526:	6823      	ldr	r3, [r4, #0]
 8006528:	4605      	mov	r5, r0
    if(ret == HAL_OK)
 800652a:	2d00      	cmp	r5, #0
 800652c:	d16f      	bne.n	800660e <HAL_RCCEx_PeriphCLKConfig+0x8e2>
      __HAL_RCC_FDCAN_CONFIG(PeriphClkInit->FdcanClockSelection);
 800652e:	4979      	ldr	r1, [pc, #484]	; (8006714 <HAL_RCCEx_PeriphCLKConfig+0x9e8>)
 8006530:	6f20      	ldr	r0, [r4, #112]	; 0x70
 8006532:	6d0a      	ldr	r2, [r1, #80]	; 0x50
 8006534:	f022 5240 	bic.w	r2, r2, #805306368	; 0x30000000
 8006538:	4302      	orrs	r2, r0
  if(((PeriphClkInit->PeriphClockSelection) & RCC_PERIPHCLK_FMC) == RCC_PERIPHCLK_FMC)
 800653a:	01d8      	lsls	r0, r3, #7
      __HAL_RCC_FDCAN_CONFIG(PeriphClkInit->FdcanClockSelection);
 800653c:	650a      	str	r2, [r1, #80]	; 0x50
  if(((PeriphClkInit->PeriphClockSelection) & RCC_PERIPHCLK_FMC) == RCC_PERIPHCLK_FMC)
 800653e:	f57f ad28 	bpl.w	8005f92 <HAL_RCCEx_PeriphCLKConfig+0x266>
 8006542:	e6f5      	b.n	8006330 <HAL_RCCEx_PeriphCLKConfig+0x604>
    if(RCCEx_PLL3_Config(&(PeriphClkInit->PLL3),DIVIDER_R_UPDATE)!=HAL_OK)
 8006544:	2102      	movs	r1, #2
 8006546:	f104 0024 	add.w	r0, r4, #36	; 0x24
 800654a:	f7ff fb73 	bl	8005c34 <RCCEx_PLL3_Config>
 800654e:	6823      	ldr	r3, [r4, #0]
 8006550:	2800      	cmp	r0, #0
 8006552:	f43f ae9b 	beq.w	800628c <HAL_RCCEx_PeriphCLKConfig+0x560>
      status=HAL_ERROR;
 8006556:	2601      	movs	r6, #1
 8006558:	e698      	b.n	800628c <HAL_RCCEx_PeriphCLKConfig+0x560>
    switch(PeriphClkInit->SdmmcClockSelection)
 800655a:	2601      	movs	r6, #1
 800655c:	4635      	mov	r5, r6
 800655e:	e692      	b.n	8006286 <HAL_RCCEx_PeriphCLKConfig+0x55a>
 8006560:	462e      	mov	r6, r5
 8006562:	e47e      	b.n	8005e62 <HAL_RCCEx_PeriphCLKConfig+0x136>
 8006564:	462e      	mov	r6, r5
 8006566:	e438      	b.n	8005dda <HAL_RCCEx_PeriphCLKConfig+0xae>
 8006568:	462e      	mov	r6, r5
 800656a:	e4b5      	b.n	8005ed8 <HAL_RCCEx_PeriphCLKConfig+0x1ac>
 800656c:	462e      	mov	r6, r5
 800656e:	e416      	b.n	8005d9e <HAL_RCCEx_PeriphCLKConfig+0x72>
 8006570:	462e      	mov	r6, r5
 8006572:	e454      	b.n	8005e1e <HAL_RCCEx_PeriphCLKConfig+0xf2>
      __HAL_RCC_PLLCLKOUT_ENABLE(RCC_PLL1_DIVQ);
 8006574:	4967      	ldr	r1, [pc, #412]	; (8006714 <HAL_RCCEx_PeriphCLKConfig+0x9e8>)
 8006576:	6aca      	ldr	r2, [r1, #44]	; 0x2c
 8006578:	f442 3200 	orr.w	r2, r2, #131072	; 0x20000
 800657c:	62ca      	str	r2, [r1, #44]	; 0x2c
      break;
 800657e:	e443      	b.n	8005e08 <HAL_RCCEx_PeriphCLKConfig+0xdc>
      __HAL_RCC_PLLCLKOUT_ENABLE(RCC_PLL1_DIVQ);
 8006580:	4964      	ldr	r1, [pc, #400]	; (8006714 <HAL_RCCEx_PeriphCLKConfig+0x9e8>)
 8006582:	6aca      	ldr	r2, [r1, #44]	; 0x2c
 8006584:	f442 3200 	orr.w	r2, r2, #131072	; 0x20000
 8006588:	62ca      	str	r2, [r1, #44]	; 0x2c
      break;
 800658a:	e41c      	b.n	8005dc6 <HAL_RCCEx_PeriphCLKConfig+0x9a>
      __HAL_RCC_PLLCLKOUT_ENABLE(RCC_PLL1_DIVQ);
 800658c:	4961      	ldr	r1, [pc, #388]	; (8006714 <HAL_RCCEx_PeriphCLKConfig+0x9e8>)
 800658e:	6aca      	ldr	r2, [r1, #44]	; 0x2c
 8006590:	f442 3200 	orr.w	r2, r2, #131072	; 0x20000
 8006594:	62ca      	str	r2, [r1, #44]	; 0x2c
      break;
 8006596:	e459      	b.n	8005e4c <HAL_RCCEx_PeriphCLKConfig+0x120>
      __HAL_RCC_PLLCLKOUT_ENABLE(RCC_PLL1_DIVQ);
 8006598:	495e      	ldr	r1, [pc, #376]	; (8006714 <HAL_RCCEx_PeriphCLKConfig+0x9e8>)
 800659a:	6aca      	ldr	r2, [r1, #44]	; 0x2c
 800659c:	f442 3200 	orr.w	r2, r2, #131072	; 0x20000
 80065a0:	62ca      	str	r2, [r1, #44]	; 0x2c
      break;
 80065a2:	e48f      	b.n	8005ec4 <HAL_RCCEx_PeriphCLKConfig+0x198>
      __HAL_RCC_PLLCLKOUT_ENABLE(RCC_PLL1_DIVQ);
 80065a4:	485b      	ldr	r0, [pc, #364]	; (8006714 <HAL_RCCEx_PeriphCLKConfig+0x9e8>)
 80065a6:	6ac1      	ldr	r1, [r0, #44]	; 0x2c
 80065a8:	f441 3100 	orr.w	r1, r1, #131072	; 0x20000
 80065ac:	62c1      	str	r1, [r0, #44]	; 0x2c
    if(ret == HAL_OK)
 80065ae:	f7ff bbda 	b.w	8005d66 <HAL_RCCEx_PeriphCLKConfig+0x3a>
  if(((PeriphClkInit->PeriphClockSelection) & RCC_PERIPHCLK_I2C123) == RCC_PERIPHCLK_I2C123)
 80065b2:	0719      	lsls	r1, r3, #28
 80065b4:	462e      	mov	r6, r5
 80065b6:	f57f ae1b 	bpl.w	80061f0 <HAL_RCCEx_PeriphCLKConfig+0x4c4>
 80065ba:	e60d      	b.n	80061d8 <HAL_RCCEx_PeriphCLKConfig+0x4ac>
  if(((PeriphClkInit->PeriphClockSelection) & RCC_PERIPHCLK_LPTIM2) == RCC_PERIPHCLK_LPTIM2)
 80065bc:	065f      	lsls	r7, r3, #25
 80065be:	462e      	mov	r6, r5
 80065c0:	f57f ade8 	bpl.w	8006194 <HAL_RCCEx_PeriphCLKConfig+0x468>
 80065c4:	e5c8      	b.n	8006158 <HAL_RCCEx_PeriphCLKConfig+0x42c>
  if(((PeriphClkInit->PeriphClockSelection) & RCC_PERIPHCLK_LPTIM345) == RCC_PERIPHCLK_LPTIM345)
 80065c6:	0618      	lsls	r0, r3, #24
 80065c8:	462e      	mov	r6, r5
 80065ca:	f57f ae03 	bpl.w	80061d4 <HAL_RCCEx_PeriphCLKConfig+0x4a8>
 80065ce:	e5e3      	b.n	8006198 <HAL_RCCEx_PeriphCLKConfig+0x46c>
      __HAL_RCC_USART234578_CONFIG(PeriphClkInit->Usart234578ClockSelection);
 80065d0:	4950      	ldr	r1, [pc, #320]	; (8006714 <HAL_RCCEx_PeriphCLKConfig+0x9e8>)
 80065d2:	6fa0      	ldr	r0, [r4, #120]	; 0x78
 80065d4:	6d4a      	ldr	r2, [r1, #84]	; 0x54
 80065d6:	f022 0207 	bic.w	r2, r2, #7
 80065da:	4302      	orrs	r2, r0
 80065dc:	654a      	str	r2, [r1, #84]	; 0x54
  if(((PeriphClkInit->PeriphClockSelection) & RCC_PERIPHCLK_LPUART1) == RCC_PERIPHCLK_LPUART1)
 80065de:	0759      	lsls	r1, r3, #29
 80065e0:	f57f ad98 	bpl.w	8006114 <HAL_RCCEx_PeriphCLKConfig+0x3e8>
 80065e4:	e57e      	b.n	80060e4 <HAL_RCCEx_PeriphCLKConfig+0x3b8>
      __HAL_RCC_LPUART1_CONFIG(PeriphClkInit->Lpuart1ClockSelection);
 80065e6:	494b      	ldr	r1, [pc, #300]	; (8006714 <HAL_RCCEx_PeriphCLKConfig+0x9e8>)
 80065e8:	f8d4 0094 	ldr.w	r0, [r4, #148]	; 0x94
 80065ec:	6d8a      	ldr	r2, [r1, #88]	; 0x58
 80065ee:	f022 0207 	bic.w	r2, r2, #7
 80065f2:	4302      	orrs	r2, r0
 80065f4:	658a      	str	r2, [r1, #88]	; 0x58
  if(((PeriphClkInit->PeriphClockSelection) & RCC_PERIPHCLK_LPTIM1) == RCC_PERIPHCLK_LPTIM1)
 80065f6:	069a      	lsls	r2, r3, #26
 80065f8:	f57f adac 	bpl.w	8006154 <HAL_RCCEx_PeriphCLKConfig+0x428>
 80065fc:	e58c      	b.n	8006118 <HAL_RCCEx_PeriphCLKConfig+0x3ec>
 80065fe:	462e      	mov	r6, r5
 8006600:	e44a      	b.n	8005e98 <HAL_RCCEx_PeriphCLKConfig+0x16c>
 8006602:	462e      	mov	r6, r5
 8006604:	e486      	b.n	8005f14 <HAL_RCCEx_PeriphCLKConfig+0x1e8>
 8006606:	462e      	mov	r6, r5
 8006608:	e4c3      	b.n	8005f92 <HAL_RCCEx_PeriphCLKConfig+0x266>
 800660a:	462e      	mov	r6, r5
 800660c:	e4a2      	b.n	8005f54 <HAL_RCCEx_PeriphCLKConfig+0x228>
  if(((PeriphClkInit->PeriphClockSelection) & RCC_PERIPHCLK_FMC) == RCC_PERIPHCLK_FMC)
 800660e:	01d8      	lsls	r0, r3, #7
 8006610:	462e      	mov	r6, r5
 8006612:	f57f acbe 	bpl.w	8005f92 <HAL_RCCEx_PeriphCLKConfig+0x266>
 8006616:	e68b      	b.n	8006330 <HAL_RCCEx_PeriphCLKConfig+0x604>
  if(((PeriphClkInit->PeriphClockSelection) & RCC_PERIPHCLK_USB) == RCC_PERIPHCLK_USB)
 8006618:	0358      	lsls	r0, r3, #13
 800661a:	462e      	mov	r6, r5
 800661c:	f57f ae19 	bpl.w	8006252 <HAL_RCCEx_PeriphCLKConfig+0x526>
 8006620:	e607      	b.n	8006232 <HAL_RCCEx_PeriphCLKConfig+0x506>
  if(((PeriphClkInit->PeriphClockSelection) & RCC_PERIPHCLK_SDMMC) == RCC_PERIPHCLK_SDMMC)
 8006622:	03d9      	lsls	r1, r3, #15
 8006624:	462e      	mov	r6, r5
 8006626:	f57f ae2e 	bpl.w	8006286 <HAL_RCCEx_PeriphCLKConfig+0x55a>
 800662a:	e614      	b.n	8006256 <HAL_RCCEx_PeriphCLKConfig+0x52a>
      __HAL_RCC_USART16_CONFIG(PeriphClkInit->Usart16ClockSelection);
 800662c:	4939      	ldr	r1, [pc, #228]	; (8006714 <HAL_RCCEx_PeriphCLKConfig+0x9e8>)
 800662e:	6fe0      	ldr	r0, [r4, #124]	; 0x7c
 8006630:	6d4a      	ldr	r2, [r1, #84]	; 0x54
 8006632:	f022 0238 	bic.w	r2, r2, #56	; 0x38
 8006636:	4302      	orrs	r2, r0
  if(((PeriphClkInit->PeriphClockSelection) & RCC_PERIPHCLK_USART234578) == RCC_PERIPHCLK_USART234578)
 8006638:	0798      	lsls	r0, r3, #30
      __HAL_RCC_USART16_CONFIG(PeriphClkInit->Usart16ClockSelection);
 800663a:	654a      	str	r2, [r1, #84]	; 0x54
  if(((PeriphClkInit->PeriphClockSelection) & RCC_PERIPHCLK_USART234578) == RCC_PERIPHCLK_USART234578)
 800663c:	f57f ad50 	bpl.w	80060e0 <HAL_RCCEx_PeriphCLKConfig+0x3b4>
 8006640:	e537      	b.n	80060b2 <HAL_RCCEx_PeriphCLKConfig+0x386>
 8006642:	462e      	mov	r6, r5
 8006644:	e61f      	b.n	8006286 <HAL_RCCEx_PeriphCLKConfig+0x55a>
  if(((PeriphClkInit->PeriphClockSelection) & RCC_PERIPHCLK_FDCAN) == RCC_PERIPHCLK_FDCAN)
 8006646:	041f      	lsls	r7, r3, #16
 8006648:	462e      	mov	r6, r5
 800664a:	f57f ac9f 	bpl.w	8005f8c <HAL_RCCEx_PeriphCLKConfig+0x260>
 800664e:	e48f      	b.n	8005f70 <HAL_RCCEx_PeriphCLKConfig+0x244>
      __HAL_RCC_PLLCLKOUT_ENABLE(RCC_PLL1_DIVQ);
 8006650:	4930      	ldr	r1, [pc, #192]	; (8006714 <HAL_RCCEx_PeriphCLKConfig+0x9e8>)
 8006652:	6aca      	ldr	r2, [r1, #44]	; 0x2c
 8006654:	f442 3200 	orr.w	r2, r2, #131072	; 0x20000
 8006658:	62ca      	str	r2, [r1, #44]	; 0x2c
    if(ret == HAL_OK)
 800665a:	2d00      	cmp	r5, #0
 800665c:	d1d3      	bne.n	8006606 <HAL_RCCEx_PeriphCLKConfig+0x8da>
 800665e:	e680      	b.n	8006362 <HAL_RCCEx_PeriphCLKConfig+0x636>
      ret = RCCEx_PLL3_Config(&(PeriphClkInit->PLL3),DIVIDER_Q_UPDATE);
 8006660:	2101      	movs	r1, #1
 8006662:	f104 0024 	add.w	r0, r4, #36	; 0x24
 8006666:	f7ff fae5 	bl	8005c34 <RCCEx_PLL3_Config>
 800666a:	4605      	mov	r5, r0
    if(ret == HAL_OK)
 800666c:	6823      	ldr	r3, [r4, #0]
 800666e:	2d00      	cmp	r5, #0
 8006670:	d1c7      	bne.n	8006602 <HAL_RCCEx_PeriphCLKConfig+0x8d6>
 8006672:	e448      	b.n	8005f06 <HAL_RCCEx_PeriphCLKConfig+0x1da>
      ret = RCCEx_PLL3_Config(&(PeriphClkInit->PLL3),DIVIDER_Q_UPDATE);
 8006674:	2101      	movs	r1, #1
 8006676:	f104 0024 	add.w	r0, r4, #36	; 0x24
 800667a:	f7ff fadb 	bl	8005c34 <RCCEx_PLL3_Config>
 800667e:	4605      	mov	r5, r0
    if(ret == HAL_OK)
 8006680:	6823      	ldr	r3, [r4, #0]
 8006682:	2d00      	cmp	r5, #0
 8006684:	d1c1      	bne.n	800660a <HAL_RCCEx_PeriphCLKConfig+0x8de>
 8006686:	e45d      	b.n	8005f44 <HAL_RCCEx_PeriphCLKConfig+0x218>
      ret = RCCEx_PLL2_Config(&(PeriphClkInit->PLL2),DIVIDER_R_UPDATE);
 8006688:	2102      	movs	r1, #2
 800668a:	1d20      	adds	r0, r4, #4
 800668c:	f7ff fa56 	bl	8005b3c <RCCEx_PLL2_Config>
 8006690:	4605      	mov	r5, r0
    if(ret == HAL_OK)
 8006692:	6823      	ldr	r3, [r4, #0]
 8006694:	2d00      	cmp	r5, #0
 8006696:	d1b2      	bne.n	80065fe <HAL_RCCEx_PeriphCLKConfig+0x8d2>
 8006698:	f7ff bbf7 	b.w	8005e8a <HAL_RCCEx_PeriphCLKConfig+0x15e>
      ret = RCCEx_PLL3_Config(&(PeriphClkInit->PLL3), DIVIDER_P_UPDATE);
 800669c:	2100      	movs	r1, #0
 800669e:	f104 0024 	add.w	r0, r4, #36	; 0x24
 80066a2:	f7ff fac7 	bl	8005c34 <RCCEx_PLL3_Config>
 80066a6:	6823      	ldr	r3, [r4, #0]
 80066a8:	4605      	mov	r5, r0
      break;
 80066aa:	f7ff bbcf 	b.w	8005e4c <HAL_RCCEx_PeriphCLKConfig+0x120>
      ret = RCCEx_PLL3_Config(&(PeriphClkInit->PLL3),DIVIDER_P_UPDATE);
 80066ae:	2100      	movs	r1, #0
 80066b0:	f104 0024 	add.w	r0, r4, #36	; 0x24
 80066b4:	f7ff fabe 	bl	8005c34 <RCCEx_PLL3_Config>
 80066b8:	6823      	ldr	r3, [r4, #0]
 80066ba:	4605      	mov	r5, r0
      break;
 80066bc:	f7ff bba4 	b.w	8005e08 <HAL_RCCEx_PeriphCLKConfig+0xdc>
      ret = RCCEx_PLL3_Config(&(PeriphClkInit->PLL3),DIVIDER_P_UPDATE);
 80066c0:	2100      	movs	r1, #0
 80066c2:	f104 0024 	add.w	r0, r4, #36	; 0x24
 80066c6:	f7ff fab5 	bl	8005c34 <RCCEx_PLL3_Config>
 80066ca:	6823      	ldr	r3, [r4, #0]
 80066cc:	4605      	mov	r5, r0
      break;
 80066ce:	f7ff bbf9 	b.w	8005ec4 <HAL_RCCEx_PeriphCLKConfig+0x198>
      ret = RCCEx_PLL3_Config(&(PeriphClkInit->PLL3),DIVIDER_R_UPDATE);
 80066d2:	2102      	movs	r1, #2
 80066d4:	3024      	adds	r0, #36	; 0x24
 80066d6:	f7ff faad 	bl	8005c34 <RCCEx_PLL3_Config>
 80066da:	4606      	mov	r6, r0
    if(ret == HAL_OK)
 80066dc:	2e00      	cmp	r6, #0
 80066de:	f43f ab40 	beq.w	8005d62 <HAL_RCCEx_PeriphCLKConfig+0x36>
 80066e2:	6823      	ldr	r3, [r4, #0]
 80066e4:	f7ff bb46 	b.w	8005d74 <HAL_RCCEx_PeriphCLKConfig+0x48>
      ret = RCCEx_PLL3_Config(&(PeriphClkInit->PLL3),DIVIDER_P_UPDATE);
 80066e8:	2100      	movs	r1, #0
 80066ea:	f104 0024 	add.w	r0, r4, #36	; 0x24
 80066ee:	f7ff faa1 	bl	8005c34 <RCCEx_PLL3_Config>
 80066f2:	6823      	ldr	r3, [r4, #0]
 80066f4:	4605      	mov	r5, r0
      break;
 80066f6:	e681      	b.n	80063fc <HAL_RCCEx_PeriphCLKConfig+0x6d0>
      __HAL_RCC_PLLCLKOUT_ENABLE(RCC_PLL1_DIVQ);
 80066f8:	4906      	ldr	r1, [pc, #24]	; (8006714 <HAL_RCCEx_PeriphCLKConfig+0x9e8>)
      break;
 80066fa:	4635      	mov	r5, r6
      __HAL_RCC_PLLCLKOUT_ENABLE(RCC_PLL1_DIVQ);
 80066fc:	6aca      	ldr	r2, [r1, #44]	; 0x2c
 80066fe:	f442 3200 	orr.w	r2, r2, #131072	; 0x20000
 8006702:	62ca      	str	r2, [r1, #44]	; 0x2c
      break;
 8006704:	e67a      	b.n	80063fc <HAL_RCCEx_PeriphCLKConfig+0x6d0>
      ret = RCCEx_PLL2_Config(&(PeriphClkInit->PLL2),DIVIDER_P_UPDATE);
 8006706:	2100      	movs	r1, #0
 8006708:	1d20      	adds	r0, r4, #4
 800670a:	f7ff fa17 	bl	8005b3c <RCCEx_PLL2_Config>
 800670e:	6823      	ldr	r3, [r4, #0]
 8006710:	4605      	mov	r5, r0
      break;
 8006712:	e673      	b.n	80063fc <HAL_RCCEx_PeriphCLKConfig+0x6d0>
 8006714:	58024400 	.word	0x58024400
      ret = RCCEx_PLL3_Config(&(PeriphClkInit->PLL3),DIVIDER_P_UPDATE);
 8006718:	2100      	movs	r1, #0
 800671a:	f104 0024 	add.w	r0, r4, #36	; 0x24
 800671e:	f7ff fa89 	bl	8005c34 <RCCEx_PLL3_Config>
 8006722:	6823      	ldr	r3, [r4, #0]
 8006724:	4605      	mov	r5, r0
      break;
 8006726:	f7ff bb4e 	b.w	8005dc6 <HAL_RCCEx_PeriphCLKConfig+0x9a>
      ret = RCCEx_PLL2_Config(&(PeriphClkInit->PLL2),DIVIDER_Q_UPDATE);
 800672a:	2101      	movs	r1, #1
 800672c:	1d20      	adds	r0, r4, #4
 800672e:	f7ff fa05 	bl	8005b3c <RCCEx_PLL2_Config>
 8006732:	4605      	mov	r5, r0
    if(ret == HAL_OK)
 8006734:	6823      	ldr	r3, [r4, #0]
 8006736:	2d00      	cmp	r5, #0
 8006738:	f47f acd1 	bne.w	80060de <HAL_RCCEx_PeriphCLKConfig+0x3b2>
 800673c:	e748      	b.n	80065d0 <HAL_RCCEx_PeriphCLKConfig+0x8a4>
      ret = RCCEx_PLL2_Config(&(PeriphClkInit->PLL2),DIVIDER_Q_UPDATE);
 800673e:	2101      	movs	r1, #1
 8006740:	1d20      	adds	r0, r4, #4
 8006742:	f7ff f9fb 	bl	8005b3c <RCCEx_PLL2_Config>
 8006746:	4605      	mov	r5, r0
    if(ret == HAL_OK)
 8006748:	6823      	ldr	r3, [r4, #0]
 800674a:	2d00      	cmp	r5, #0
 800674c:	f47f ace1 	bne.w	8006112 <HAL_RCCEx_PeriphCLKConfig+0x3e6>
 8006750:	e749      	b.n	80065e6 <HAL_RCCEx_PeriphCLKConfig+0x8ba>
      ret = RCCEx_PLL2_Config(&(PeriphClkInit->PLL2),DIVIDER_Q_UPDATE);
 8006752:	2101      	movs	r1, #1
 8006754:	1d20      	adds	r0, r4, #4
 8006756:	f7ff f9f1 	bl	8005b3c <RCCEx_PLL2_Config>
 800675a:	4605      	mov	r5, r0
    if(ret == HAL_OK)
 800675c:	6823      	ldr	r3, [r4, #0]
 800675e:	2d00      	cmp	r5, #0
 8006760:	f47f aca4 	bne.w	80060ac <HAL_RCCEx_PeriphCLKConfig+0x380>
 8006764:	e762      	b.n	800662c <HAL_RCCEx_PeriphCLKConfig+0x900>
            ret = HAL_TIMEOUT;
 8006766:	2603      	movs	r6, #3
 8006768:	6823      	ldr	r3, [r4, #0]
 800676a:	4635      	mov	r5, r6
 800676c:	e414      	b.n	8005f98 <HAL_RCCEx_PeriphCLKConfig+0x26c>
      __HAL_RCC_PLLCLKOUT_ENABLE(RCC_PLL1_DIVQ);
 800676e:	4949      	ldr	r1, [pc, #292]	; (8006894 <HAL_RCCEx_PeriphCLKConfig+0xb68>)
 8006770:	6aca      	ldr	r2, [r1, #44]	; 0x2c
 8006772:	f442 3200 	orr.w	r2, r2, #131072	; 0x20000
 8006776:	62ca      	str	r2, [r1, #44]	; 0x2c
    if(ret == HAL_OK)
 8006778:	2d00      	cmp	r5, #0
 800677a:	f47f af62 	bne.w	8006642 <HAL_RCCEx_PeriphCLKConfig+0x916>
 800677e:	e57b      	b.n	8006278 <HAL_RCCEx_PeriphCLKConfig+0x54c>
      __HAL_RCC_PLLCLKOUT_ENABLE(RCC_PLL1_DIVQ);
 8006780:	4844      	ldr	r0, [pc, #272]	; (8006894 <HAL_RCCEx_PeriphCLKConfig+0xb68>)
 8006782:	6ac1      	ldr	r1, [r0, #44]	; 0x2c
 8006784:	f441 3100 	orr.w	r1, r1, #131072	; 0x20000
 8006788:	62c1      	str	r1, [r0, #44]	; 0x2c
    if(ret == HAL_OK)
 800678a:	2d00      	cmp	r5, #0
 800678c:	f47f adce 	bne.w	800632c <HAL_RCCEx_PeriphCLKConfig+0x600>
 8006790:	e68f      	b.n	80064b2 <HAL_RCCEx_PeriphCLKConfig+0x786>
      __HAL_RCC_PLLCLKOUT_ENABLE(RCC_PLL1_DIVQ);
 8006792:	4940      	ldr	r1, [pc, #256]	; (8006894 <HAL_RCCEx_PeriphCLKConfig+0xb68>)
 8006794:	6aca      	ldr	r2, [r1, #44]	; 0x2c
 8006796:	f442 3200 	orr.w	r2, r2, #131072	; 0x20000
 800679a:	62ca      	str	r2, [r1, #44]	; 0x2c
    if(ret == HAL_OK)
 800679c:	2d00      	cmp	r5, #0
 800679e:	f47f af40 	bne.w	8006622 <HAL_RCCEx_PeriphCLKConfig+0x8f6>
 80067a2:	e69a      	b.n	80064da <HAL_RCCEx_PeriphCLKConfig+0x7ae>
      ret = RCCEx_PLL3_Config(&(PeriphClkInit->PLL3),DIVIDER_R_UPDATE);
 80067a4:	2102      	movs	r1, #2
 80067a6:	f104 0024 	add.w	r0, r4, #36	; 0x24
 80067aa:	f7ff fa43 	bl	8005c34 <RCCEx_PLL3_Config>
 80067ae:	4605      	mov	r5, r0
    if(ret == HAL_OK)
 80067b0:	6823      	ldr	r3, [r4, #0]
 80067b2:	2d00      	cmp	r5, #0
 80067b4:	f47f af02 	bne.w	80065bc <HAL_RCCEx_PeriphCLKConfig+0x890>
 80067b8:	e4c4      	b.n	8006144 <HAL_RCCEx_PeriphCLKConfig+0x418>
      __HAL_RCC_PLLCLKOUT_ENABLE(RCC_PLL1_DIVQ);
 80067ba:	4936      	ldr	r1, [pc, #216]	; (8006894 <HAL_RCCEx_PeriphCLKConfig+0xb68>)
 80067bc:	6aca      	ldr	r2, [r1, #44]	; 0x2c
 80067be:	f442 3200 	orr.w	r2, r2, #131072	; 0x20000
 80067c2:	62ca      	str	r2, [r1, #44]	; 0x2c
    if(ret == HAL_OK)
 80067c4:	2d00      	cmp	r5, #0
 80067c6:	f47f af22 	bne.w	800660e <HAL_RCCEx_PeriphCLKConfig+0x8e2>
 80067ca:	e6b0      	b.n	800652e <HAL_RCCEx_PeriphCLKConfig+0x802>
      ret = RCCEx_PLL3_Config(&(PeriphClkInit->PLL3),DIVIDER_R_UPDATE);
 80067cc:	2102      	movs	r1, #2
 80067ce:	f104 0024 	add.w	r0, r4, #36	; 0x24
 80067d2:	f7ff fa2f 	bl	8005c34 <RCCEx_PLL3_Config>
 80067d6:	4605      	mov	r5, r0
    if(ret == HAL_OK)
 80067d8:	6823      	ldr	r3, [r4, #0]
 80067da:	2d00      	cmp	r5, #0
 80067dc:	f47f aef3 	bne.w	80065c6 <HAL_RCCEx_PeriphCLKConfig+0x89a>
 80067e0:	e4d0      	b.n	8006184 <HAL_RCCEx_PeriphCLKConfig+0x458>
      ret = RCCEx_PLL3_Config(&(PeriphClkInit->PLL3),DIVIDER_R_UPDATE);
 80067e2:	2102      	movs	r1, #2
 80067e4:	f104 0024 	add.w	r0, r4, #36	; 0x24
 80067e8:	f7ff fa24 	bl	8005c34 <RCCEx_PLL3_Config>
 80067ec:	4605      	mov	r5, r0
    if(ret == HAL_OK)
 80067ee:	6823      	ldr	r3, [r4, #0]
 80067f0:	2d00      	cmp	r5, #0
 80067f2:	f47f aede 	bne.w	80065b2 <HAL_RCCEx_PeriphCLKConfig+0x886>
 80067f6:	e4e5      	b.n	80061c4 <HAL_RCCEx_PeriphCLKConfig+0x498>
      ret = RCCEx_PLL2_Config(&(PeriphClkInit->PLL2),DIVIDER_P_UPDATE);
 80067f8:	1d20      	adds	r0, r4, #4
 80067fa:	f7ff f99f 	bl	8005b3c <RCCEx_PLL2_Config>
 80067fe:	4605      	mov	r5, r0
    if(ret == HAL_OK)
 8006800:	6823      	ldr	r3, [r4, #0]
 8006802:	2d00      	cmp	r5, #0
 8006804:	f47f af08 	bne.w	8006618 <HAL_RCCEx_PeriphCLKConfig+0x8ec>
 8006808:	e67d      	b.n	8006506 <HAL_RCCEx_PeriphCLKConfig+0x7da>
      if(RCCEx_PLL3_Config(&(PeriphClkInit->PLL3),DIVIDER_R_UPDATE)!= HAL_OK)
 800680a:	2102      	movs	r1, #2
 800680c:	f104 0024 	add.w	r0, r4, #36	; 0x24
 8006810:	f7ff fa10 	bl	8005c34 <RCCEx_PLL3_Config>
 8006814:	f8d4 1098 	ldr.w	r1, [r4, #152]	; 0x98
 8006818:	b100      	cbz	r0, 800681c <HAL_RCCEx_PeriphCLKConfig+0xaf0>
        status = HAL_ERROR;
 800681a:	2601      	movs	r6, #1
 800681c:	6823      	ldr	r3, [r4, #0]
 800681e:	e4ef      	b.n	8006200 <HAL_RCCEx_PeriphCLKConfig+0x4d4>
        if(RCCEx_PLL3_Config(&(PeriphClkInit->PLL3),DIVIDER_R_UPDATE)!= HAL_OK)
 8006820:	2102      	movs	r1, #2
 8006822:	f104 0024 	add.w	r0, r4, #36	; 0x24
 8006826:	f7ff fa05 	bl	8005c34 <RCCEx_PLL3_Config>
 800682a:	f8d4 1084 	ldr.w	r1, [r4, #132]	; 0x84
 800682e:	b100      	cbz	r0, 8006832 <HAL_RCCEx_PeriphCLKConfig+0xb06>
          status = HAL_ERROR;
 8006830:	2601      	movs	r6, #1
 8006832:	6823      	ldr	r3, [r4, #0]
 8006834:	e4d6      	b.n	80061e4 <HAL_RCCEx_PeriphCLKConfig+0x4b8>
        tickstart = HAL_GetTick();
 8006836:	f7fd fafd 	bl	8003e34 <HAL_GetTick>
        while(__HAL_RCC_GET_FLAG(RCC_FLAG_LSERDY) == 0U)
 800683a:	f8df 8058 	ldr.w	r8, [pc, #88]	; 8006894 <HAL_RCCEx_PeriphCLKConfig+0xb68>
          if((HAL_GetTick() - tickstart) > RCC_LSE_TIMEOUT_VALUE)
 800683e:	f241 3988 	movw	r9, #5000	; 0x1388
        tickstart = HAL_GetTick();
 8006842:	4607      	mov	r7, r0
        while(__HAL_RCC_GET_FLAG(RCC_FLAG_LSERDY) == 0U)
 8006844:	e004      	b.n	8006850 <HAL_RCCEx_PeriphCLKConfig+0xb24>
          if((HAL_GetTick() - tickstart) > RCC_LSE_TIMEOUT_VALUE)
 8006846:	f7fd faf5 	bl	8003e34 <HAL_GetTick>
 800684a:	1bc0      	subs	r0, r0, r7
 800684c:	4548      	cmp	r0, r9
 800684e:	d88a      	bhi.n	8006766 <HAL_RCCEx_PeriphCLKConfig+0xa3a>
        while(__HAL_RCC_GET_FLAG(RCC_FLAG_LSERDY) == 0U)
 8006850:	f8d8 3070 	ldr.w	r3, [r8, #112]	; 0x70
 8006854:	079b      	lsls	r3, r3, #30
 8006856:	d5f6      	bpl.n	8006846 <HAL_RCCEx_PeriphCLKConfig+0xb1a>
 8006858:	f8d4 30b4 	ldr.w	r3, [r4, #180]	; 0xb4
 800685c:	e5ba      	b.n	80063d4 <HAL_RCCEx_PeriphCLKConfig+0x6a8>
        __HAL_RCC_RTC_CONFIG(PeriphClkInit->RTCClockSelection);
 800685e:	480d      	ldr	r0, [pc, #52]	; (8006894 <HAL_RCCEx_PeriphCLKConfig+0xb68>)
 8006860:	4a0d      	ldr	r2, [pc, #52]	; (8006898 <HAL_RCCEx_PeriphCLKConfig+0xb6c>)
 8006862:	6901      	ldr	r1, [r0, #16]
 8006864:	ea02 1213 	and.w	r2, r2, r3, lsr #4
 8006868:	f421 517c 	bic.w	r1, r1, #16128	; 0x3f00
 800686c:	430a      	orrs	r2, r1
 800686e:	6102      	str	r2, [r0, #16]
 8006870:	e5bb      	b.n	80063ea <HAL_RCCEx_PeriphCLKConfig+0x6be>
 8006872:	6823      	ldr	r3, [r4, #0]
    if(ret == HAL_OK)
 8006874:	462e      	mov	r6, r5
 8006876:	f7ff bb8f 	b.w	8005f98 <HAL_RCCEx_PeriphCLKConfig+0x26c>
    switch(PeriphClkInit->Lpuart1ClockSelection)
 800687a:	2601      	movs	r6, #1
 800687c:	4635      	mov	r5, r6
 800687e:	e449      	b.n	8006114 <HAL_RCCEx_PeriphCLKConfig+0x3e8>
    switch(PeriphClkInit->Sai1ClockSelection)
 8006880:	2601      	movs	r6, #1
 8006882:	f7ff ba8b 	b.w	8005d9c <HAL_RCCEx_PeriphCLKConfig+0x70>
    switch(PeriphClkInit->Usart234578ClockSelection)
 8006886:	2601      	movs	r6, #1
 8006888:	4635      	mov	r5, r6
 800688a:	e429      	b.n	80060e0 <HAL_RCCEx_PeriphCLKConfig+0x3b4>
    switch(PeriphClkInit->FmcClockSelection)
 800688c:	2601      	movs	r6, #1
 800688e:	4635      	mov	r5, r6
 8006890:	f7ff bb7f 	b.w	8005f92 <HAL_RCCEx_PeriphCLKConfig+0x266>
 8006894:	58024400 	.word	0x58024400
 8006898:	00ffffcf 	.word	0x00ffffcf

0800689c <HAL_SDRAM_MspInit>:
  UNUSED(hsdram);

  /* NOTE: This function Should not be modified, when the callback is needed,
            the HAL_SDRAM_MspInit could be implemented in the user file
   */
}
 800689c:	4770      	bx	lr
 800689e:	bf00      	nop

080068a0 <HAL_SDRAM_Init>:
  if (hsdram == NULL)
 80068a0:	b318      	cbz	r0, 80068ea <HAL_SDRAM_Init+0x4a>
{
 80068a2:	b538      	push	{r3, r4, r5, lr}
  if (hsdram->State == HAL_SDRAM_STATE_RESET)
 80068a4:	f890 302c 	ldrb.w	r3, [r0, #44]	; 0x2c
 80068a8:	460d      	mov	r5, r1
 80068aa:	4604      	mov	r4, r0
 80068ac:	f003 02ff 	and.w	r2, r3, #255	; 0xff
 80068b0:	b1b3      	cbz	r3, 80068e0 <HAL_SDRAM_Init+0x40>
  hsdram->State = HAL_SDRAM_STATE_BUSY;
 80068b2:	2302      	movs	r3, #2
  (void)FMC_SDRAM_Init(hsdram->Instance, &(hsdram->Init));
 80068b4:	4621      	mov	r1, r4
  hsdram->State = HAL_SDRAM_STATE_BUSY;
 80068b6:	f884 302c 	strb.w	r3, [r4, #44]	; 0x2c
  (void)FMC_SDRAM_Init(hsdram->Instance, &(hsdram->Init));
 80068ba:	f851 0b04 	ldr.w	r0, [r1], #4
 80068be:	f000 f851 	bl	8006964 <FMC_SDRAM_Init>
  (void)FMC_SDRAM_Timing_Init(hsdram->Instance, Timing, hsdram->Init.SDBank);
 80068c2:	4629      	mov	r1, r5
 80068c4:	e9d4 0200 	ldrd	r0, r2, [r4]
 80068c8:	f000 f888 	bl	80069dc <FMC_SDRAM_Timing_Init>
  __FMC_ENABLE();
 80068cc:	4a08      	ldr	r2, [pc, #32]	; (80068f0 <HAL_SDRAM_Init+0x50>)
  hsdram->State = HAL_SDRAM_STATE_READY;
 80068ce:	2101      	movs	r1, #1
  return HAL_OK;
 80068d0:	2000      	movs	r0, #0
  __FMC_ENABLE();
 80068d2:	6813      	ldr	r3, [r2, #0]
 80068d4:	f043 4300 	orr.w	r3, r3, #2147483648	; 0x80000000
 80068d8:	6013      	str	r3, [r2, #0]
  hsdram->State = HAL_SDRAM_STATE_READY;
 80068da:	f884 102c 	strb.w	r1, [r4, #44]	; 0x2c
}
 80068de:	bd38      	pop	{r3, r4, r5, pc}
    hsdram->Lock = HAL_UNLOCKED;
 80068e0:	f880 202d 	strb.w	r2, [r0, #45]	; 0x2d
    HAL_SDRAM_MspInit(hsdram);
 80068e4:	f7ff ffda 	bl	800689c <HAL_SDRAM_MspInit>
 80068e8:	e7e3      	b.n	80068b2 <HAL_SDRAM_Init+0x12>
    return HAL_ERROR;
 80068ea:	2001      	movs	r0, #1
}
 80068ec:	4770      	bx	lr
 80068ee:	bf00      	nop
 80068f0:	52004000 	.word	0x52004000

080068f4 <HAL_SDRAM_SendCommand>:
  * @param  Timeout Timeout duration
  * @retval HAL status
  */
HAL_StatusTypeDef HAL_SDRAM_SendCommand(SDRAM_HandleTypeDef *hsdram, FMC_SDRAM_CommandTypeDef *Command,
                                        uint32_t Timeout)
{
 80068f4:	b570      	push	{r4, r5, r6, lr}
  HAL_SDRAM_StateTypeDef state = hsdram->State;
 80068f6:	f890 302c 	ldrb.w	r3, [r0, #44]	; 0x2c
{
 80068fa:	4605      	mov	r5, r0

  /* Check the SDRAM controller state */
  if (state == HAL_SDRAM_STATE_BUSY)
 80068fc:	2b02      	cmp	r3, #2
  HAL_SDRAM_StateTypeDef state = hsdram->State;
 80068fe:	b2d8      	uxtb	r0, r3
  if (state == HAL_SDRAM_STATE_BUSY)
 8006900:	d004      	beq.n	800690c <HAL_SDRAM_SendCommand+0x18>
  {
    return HAL_BUSY;
  }
  else if ((state == HAL_SDRAM_STATE_READY) || (state == HAL_SDRAM_STATE_PRECHARGED))
 8006902:	f000 04fb 	and.w	r4, r0, #251	; 0xfb
 8006906:	2c01      	cmp	r4, #1
 8006908:	d001      	beq.n	800690e <HAL_SDRAM_SendCommand+0x1a>
      hsdram->State = HAL_SDRAM_STATE_READY;
    }
  }
  else
  {
    return HAL_ERROR;
 800690a:	2001      	movs	r0, #1
  }

  return HAL_OK;
}
 800690c:	bd70      	pop	{r4, r5, r6, pc}
    hsdram->State = HAL_SDRAM_STATE_BUSY;
 800690e:	2302      	movs	r3, #2
 8006910:	460e      	mov	r6, r1
    (void)FMC_SDRAM_SendCommand(hsdram->Instance, Command, Timeout);
 8006912:	6828      	ldr	r0, [r5, #0]
    hsdram->State = HAL_SDRAM_STATE_BUSY;
 8006914:	f885 302c 	strb.w	r3, [r5, #44]	; 0x2c
    (void)FMC_SDRAM_SendCommand(hsdram->Instance, Command, Timeout);
 8006918:	f000 f8ac 	bl	8006a74 <FMC_SDRAM_SendCommand>
    if (Command->CommandMode == FMC_SDRAM_CMD_PALL)
 800691c:	6833      	ldr	r3, [r6, #0]
 800691e:	2b02      	cmp	r3, #2
 8006920:	d003      	beq.n	800692a <HAL_SDRAM_SendCommand+0x36>
  return HAL_OK;
 8006922:	2000      	movs	r0, #0
      hsdram->State = HAL_SDRAM_STATE_READY;
 8006924:	f885 402c 	strb.w	r4, [r5, #44]	; 0x2c
}
 8006928:	bd70      	pop	{r4, r5, r6, pc}
      hsdram->State = HAL_SDRAM_STATE_PRECHARGED;
 800692a:	2305      	movs	r3, #5
  return HAL_OK;
 800692c:	2000      	movs	r0, #0
      hsdram->State = HAL_SDRAM_STATE_PRECHARGED;
 800692e:	f885 302c 	strb.w	r3, [r5, #44]	; 0x2c
}
 8006932:	bd70      	pop	{r4, r5, r6, pc}

08006934 <HAL_SDRAM_ProgramRefreshRate>:
  *                the configuration information for SDRAM module.
  * @param  RefreshRate The SDRAM refresh rate value
  * @retval HAL status
  */
HAL_StatusTypeDef HAL_SDRAM_ProgramRefreshRate(SDRAM_HandleTypeDef *hsdram, uint32_t RefreshRate)
{
 8006934:	b538      	push	{r3, r4, r5, lr}
  /* Check the SDRAM controller state */
  if (hsdram->State == HAL_SDRAM_STATE_BUSY)
 8006936:	f890 302c 	ldrb.w	r3, [r0, #44]	; 0x2c
{
 800693a:	4604      	mov	r4, r0
  if (hsdram->State == HAL_SDRAM_STATE_BUSY)
 800693c:	2b02      	cmp	r3, #2
 800693e:	b2d8      	uxtb	r0, r3
 8006940:	d005      	beq.n	800694e <HAL_SDRAM_ProgramRefreshRate+0x1a>
  {
    return HAL_BUSY;
  }
  else if (hsdram->State == HAL_SDRAM_STATE_READY)
 8006942:	f894 302c 	ldrb.w	r3, [r4, #44]	; 0x2c
 8006946:	2b01      	cmp	r3, #1
 8006948:	b2dd      	uxtb	r5, r3
 800694a:	d001      	beq.n	8006950 <HAL_SDRAM_ProgramRefreshRate+0x1c>
    /* Update the SDRAM state */
    hsdram->State = HAL_SDRAM_STATE_READY;
  }
  else
  {
    return HAL_ERROR;
 800694c:	2001      	movs	r0, #1
  }

  return HAL_OK;
}
 800694e:	bd38      	pop	{r3, r4, r5, pc}
    hsdram->State = HAL_SDRAM_STATE_BUSY;
 8006950:	2302      	movs	r3, #2
    (void)FMC_SDRAM_ProgramRefreshRate(hsdram->Instance, RefreshRate);
 8006952:	6820      	ldr	r0, [r4, #0]
    hsdram->State = HAL_SDRAM_STATE_BUSY;
 8006954:	f884 302c 	strb.w	r3, [r4, #44]	; 0x2c
    (void)FMC_SDRAM_ProgramRefreshRate(hsdram->Instance, RefreshRate);
 8006958:	f000 f8a2 	bl	8006aa0 <FMC_SDRAM_ProgramRefreshRate>
  return HAL_OK;
 800695c:	2000      	movs	r0, #0
    hsdram->State = HAL_SDRAM_STATE_READY;
 800695e:	f884 502c 	strb.w	r5, [r4, #44]	; 0x2c
}
 8006962:	bd38      	pop	{r3, r4, r5, pc}

08006964 <FMC_SDRAM_Init>:
  assert_param(IS_FMC_SDCLOCK_PERIOD(Init->SDClockPeriod));
  assert_param(IS_FMC_READ_BURST(Init->ReadBurst));
  assert_param(IS_FMC_READPIPE_DELAY(Init->ReadPipeDelay));

  /* Set SDRAM bank configuration parameters */
  if (Init->SDBank == FMC_SDRAM_BANK1)
 8006964:	680b      	ldr	r3, [r1, #0]
  {
    MODIFY_REG(Device->SDCR[FMC_SDRAM_BANK1],
 8006966:	6802      	ldr	r2, [r0, #0]
{
 8006968:	b470      	push	{r4, r5, r6}
  if (Init->SDBank == FMC_SDRAM_BANK1)
 800696a:	b9c3      	cbnz	r3, 800699e <FMC_SDRAM_Init+0x3a>
    MODIFY_REG(Device->SDCR[FMC_SDRAM_BANK1],
 800696c:	f5a3 4300 	sub.w	r3, r3, #32768	; 0x8000
 8006970:	684c      	ldr	r4, [r1, #4]
 8006972:	698e      	ldr	r6, [r1, #24]
 8006974:	4013      	ands	r3, r2
 8006976:	e9d1 2502 	ldrd	r2, r5, [r1, #8]
 800697a:	4323      	orrs	r3, r4
 800697c:	690c      	ldr	r4, [r1, #16]
 800697e:	4313      	orrs	r3, r2
 8006980:	694a      	ldr	r2, [r1, #20]
 8006982:	432b      	orrs	r3, r5
 8006984:	69cd      	ldr	r5, [r1, #28]
 8006986:	4323      	orrs	r3, r4
 8006988:	4313      	orrs	r3, r2
 800698a:	4333      	orrs	r3, r6
 800698c:	e9d1 4208 	ldrd	r4, r2, [r1, #32]
 8006990:	432b      	orrs	r3, r5
 8006992:	4323      	orrs	r3, r4
 8006994:	4313      	orrs	r3, r2
                Init->CASLatency         |
                Init->WriteProtection));
  }

  return HAL_OK;
}
 8006996:	bc70      	pop	{r4, r5, r6}
    MODIFY_REG(Device->SDCR[FMC_SDRAM_BANK1],
 8006998:	6003      	str	r3, [r0, #0]
}
 800699a:	2000      	movs	r0, #0
 800699c:	4770      	bx	lr
    MODIFY_REG(Device->SDCR[FMC_SDRAM_BANK1],
 800699e:	69cb      	ldr	r3, [r1, #28]
 80069a0:	f422 42f8 	bic.w	r2, r2, #31744	; 0x7c00
    MODIFY_REG(Device->SDCR[FMC_SDRAM_BANK2],
 80069a4:	68ce      	ldr	r6, [r1, #12]
    MODIFY_REG(Device->SDCR[FMC_SDRAM_BANK1],
 80069a6:	431a      	orrs	r2, r3
    MODIFY_REG(Device->SDCR[FMC_SDRAM_BANK2],
 80069a8:	4b0b      	ldr	r3, [pc, #44]	; (80069d8 <FMC_SDRAM_Init+0x74>)
    MODIFY_REG(Device->SDCR[FMC_SDRAM_BANK1],
 80069aa:	e9d1 5408 	ldrd	r5, r4, [r1, #32]
 80069ae:	432a      	orrs	r2, r5
    MODIFY_REG(Device->SDCR[FMC_SDRAM_BANK2],
 80069b0:	684d      	ldr	r5, [r1, #4]
    MODIFY_REG(Device->SDCR[FMC_SDRAM_BANK1],
 80069b2:	4322      	orrs	r2, r4
    MODIFY_REG(Device->SDCR[FMC_SDRAM_BANK2],
 80069b4:	688c      	ldr	r4, [r1, #8]
    MODIFY_REG(Device->SDCR[FMC_SDRAM_BANK1],
 80069b6:	6002      	str	r2, [r0, #0]
    MODIFY_REG(Device->SDCR[FMC_SDRAM_BANK2],
 80069b8:	6842      	ldr	r2, [r0, #4]
 80069ba:	4013      	ands	r3, r2
 80069bc:	432b      	orrs	r3, r5
 80069be:	690d      	ldr	r5, [r1, #16]
 80069c0:	4323      	orrs	r3, r4
 80069c2:	4333      	orrs	r3, r6
 80069c4:	e9d1 4205 	ldrd	r4, r2, [r1, #20]
 80069c8:	432b      	orrs	r3, r5
 80069ca:	4323      	orrs	r3, r4
 80069cc:	4313      	orrs	r3, r2
}
 80069ce:	bc70      	pop	{r4, r5, r6}
    MODIFY_REG(Device->SDCR[FMC_SDRAM_BANK2],
 80069d0:	6043      	str	r3, [r0, #4]
}
 80069d2:	2000      	movs	r0, #0
 80069d4:	4770      	bx	lr
 80069d6:	bf00      	nop
 80069d8:	ffff8000 	.word	0xffff8000

080069dc <FMC_SDRAM_Timing_Init>:
  * @param  Bank SDRAM bank number
  * @retval HAL status
  */
HAL_StatusTypeDef FMC_SDRAM_Timing_Init(FMC_SDRAM_TypeDef *Device,
                                        FMC_SDRAM_TimingTypeDef *Timing, uint32_t Bank)
{
 80069dc:	b470      	push	{r4, r5, r6}
  assert_param(IS_FMC_RP_DELAY(Timing->RPDelay));
  assert_param(IS_FMC_RCD_DELAY(Timing->RCDDelay));
  assert_param(IS_FMC_SDRAM_BANK(Bank));

  /* Set SDRAM device timing parameters */
  if (Bank == FMC_SDRAM_BANK1)
 80069de:	bb0a      	cbnz	r2, 8006a24 <FMC_SDRAM_Timing_Init+0x48>
  {
    MODIFY_REG(Device->SDTR[FMC_SDRAM_BANK1],
 80069e0:	684c      	ldr	r4, [r1, #4]
 80069e2:	6882      	ldr	r2, [r0, #8]
 80069e4:	680d      	ldr	r5, [r1, #0]
 80069e6:	1e63      	subs	r3, r4, #1
 80069e8:	f002 4270 	and.w	r2, r2, #4026531840	; 0xf0000000
 80069ec:	688c      	ldr	r4, [r1, #8]
 80069ee:	1e6e      	subs	r6, r5, #1
 80069f0:	ea42 1303 	orr.w	r3, r2, r3, lsl #4
 80069f4:	1e65      	subs	r5, r4, #1
 80069f6:	68cc      	ldr	r4, [r1, #12]
 80069f8:	4333      	orrs	r3, r6
 80069fa:	690a      	ldr	r2, [r1, #16]
 80069fc:	1e66      	subs	r6, r4, #1
 80069fe:	694c      	ldr	r4, [r1, #20]
 8006a00:	ea43 2305 	orr.w	r3, r3, r5, lsl #8
 8006a04:	1e55      	subs	r5, r2, #1
 8006a06:	698a      	ldr	r2, [r1, #24]
 8006a08:	1e61      	subs	r1, r4, #1
 8006a0a:	ea43 3306 	orr.w	r3, r3, r6, lsl #12
 8006a0e:	3a01      	subs	r2, #1
 8006a10:	ea43 4305 	orr.w	r3, r3, r5, lsl #16
 8006a14:	ea43 5301 	orr.w	r3, r3, r1, lsl #20
 8006a18:	ea43 6302 	orr.w	r3, r3, r2, lsl #24
                (((Timing->WriteRecoveryTime) - 1U)    << FMC_SDTRx_TWR_Pos)  |
                (((Timing->RCDDelay) - 1U)             << FMC_SDTRx_TRCD_Pos)));
  }

  return HAL_OK;
}
 8006a1c:	bc70      	pop	{r4, r5, r6}
    MODIFY_REG(Device->SDTR[FMC_SDRAM_BANK1],
 8006a1e:	6083      	str	r3, [r0, #8]
}
 8006a20:	2000      	movs	r0, #0
 8006a22:	4770      	bx	lr
    MODIFY_REG(Device->SDTR[FMC_SDRAM_BANK1],
 8006a24:	6882      	ldr	r2, [r0, #8]
 8006a26:	68cb      	ldr	r3, [r1, #12]
 8006a28:	4c11      	ldr	r4, [pc, #68]	; (8006a70 <FMC_SDRAM_Timing_Init+0x94>)
 8006a2a:	1e5d      	subs	r5, r3, #1
    MODIFY_REG(Device->SDTR[FMC_SDRAM_BANK2],
 8006a2c:	684b      	ldr	r3, [r1, #4]
    MODIFY_REG(Device->SDTR[FMC_SDRAM_BANK1],
 8006a2e:	4014      	ands	r4, r2
 8006a30:	694a      	ldr	r2, [r1, #20]
    MODIFY_REG(Device->SDTR[FMC_SDRAM_BANK2],
 8006a32:	1e5e      	subs	r6, r3, #1
 8006a34:	680b      	ldr	r3, [r1, #0]
    MODIFY_REG(Device->SDTR[FMC_SDRAM_BANK1],
 8006a36:	3a01      	subs	r2, #1
 8006a38:	ea44 3405 	orr.w	r4, r4, r5, lsl #12
    MODIFY_REG(Device->SDTR[FMC_SDRAM_BANK2],
 8006a3c:	688d      	ldr	r5, [r1, #8]
 8006a3e:	3b01      	subs	r3, #1
    MODIFY_REG(Device->SDTR[FMC_SDRAM_BANK1],
 8006a40:	ea44 5402 	orr.w	r4, r4, r2, lsl #20
    MODIFY_REG(Device->SDTR[FMC_SDRAM_BANK2],
 8006a44:	3d01      	subs	r5, #1
    MODIFY_REG(Device->SDTR[FMC_SDRAM_BANK1],
 8006a46:	6084      	str	r4, [r0, #8]
    MODIFY_REG(Device->SDTR[FMC_SDRAM_BANK2],
 8006a48:	68c2      	ldr	r2, [r0, #12]
 8006a4a:	690c      	ldr	r4, [r1, #16]
 8006a4c:	f002 4270 	and.w	r2, r2, #4026531840	; 0xf0000000
 8006a50:	6989      	ldr	r1, [r1, #24]
 8006a52:	3c01      	subs	r4, #1
 8006a54:	ea42 1206 	orr.w	r2, r2, r6, lsl #4
 8006a58:	3901      	subs	r1, #1
 8006a5a:	4313      	orrs	r3, r2
 8006a5c:	ea43 2305 	orr.w	r3, r3, r5, lsl #8
 8006a60:	ea43 4304 	orr.w	r3, r3, r4, lsl #16
 8006a64:	ea43 6301 	orr.w	r3, r3, r1, lsl #24
}
 8006a68:	bc70      	pop	{r4, r5, r6}
    MODIFY_REG(Device->SDTR[FMC_SDRAM_BANK2],
 8006a6a:	60c3      	str	r3, [r0, #12]
}
 8006a6c:	2000      	movs	r0, #0
 8006a6e:	4770      	bx	lr
 8006a70:	ff0f0fff 	.word	0xff0f0fff

08006a74 <FMC_SDRAM_SendCommand>:
  * @param  Timeout Timeout wait value
  * @retval HAL state
  */
HAL_StatusTypeDef FMC_SDRAM_SendCommand(FMC_SDRAM_TypeDef *Device,
                                        FMC_SDRAM_CommandTypeDef *Command, uint32_t Timeout)
{
 8006a74:	b470      	push	{r4, r5, r6}
 8006a76:	4602      	mov	r2, r0
  assert_param(IS_FMC_COMMAND_TARGET(Command->CommandTarget));
  assert_param(IS_FMC_AUTOREFRESH_NUMBER(Command->AutoRefreshNumber));
  assert_param(IS_FMC_MODE_REGISTER(Command->ModeRegisterDefinition));

  /* Set command register */
  MODIFY_REG(Device->SDCMR, (FMC_SDCMR_MODE | FMC_SDCMR_CTB2 | FMC_SDCMR_CTB1 | 
 8006a78:	68ce      	ldr	r6, [r1, #12]
 8006a7a:	4c08      	ldr	r4, [pc, #32]	; (8006a9c <FMC_SDRAM_SendCommand+0x28>)
             (Command->CommandTarget) | (((Command->AutoRefreshNumber) - 1U) << FMC_SDCMR_NRFS_Pos) |
             ((Command->ModeRegisterDefinition) << FMC_SDCMR_MRD_Pos)));
  /* Prevent unused argument(s) compilation warning */
  UNUSED(Timeout);
  return HAL_OK;
}
 8006a7c:	2000      	movs	r0, #0
  MODIFY_REG(Device->SDCMR, (FMC_SDCMR_MODE | FMC_SDCMR_CTB2 | FMC_SDCMR_CTB1 | 
 8006a7e:	e9d1 3500 	ldrd	r3, r5, [r1]
 8006a82:	6889      	ldr	r1, [r1, #8]
 8006a84:	432b      	orrs	r3, r5
 8006a86:	6915      	ldr	r5, [r2, #16]
 8006a88:	3901      	subs	r1, #1
 8006a8a:	ea43 2346 	orr.w	r3, r3, r6, lsl #9
 8006a8e:	402c      	ands	r4, r5
 8006a90:	4323      	orrs	r3, r4
 8006a92:	ea43 1341 	orr.w	r3, r3, r1, lsl #5
}
 8006a96:	bc70      	pop	{r4, r5, r6}
  MODIFY_REG(Device->SDCMR, (FMC_SDCMR_MODE | FMC_SDCMR_CTB2 | FMC_SDCMR_CTB1 | 
 8006a98:	6113      	str	r3, [r2, #16]
}
 8006a9a:	4770      	bx	lr
 8006a9c:	ffc00000 	.word	0xffc00000

08006aa0 <FMC_SDRAM_ProgramRefreshRate>:
  * @param  Device Pointer to SDRAM device instance
  * @param  RefreshRate The SDRAM refresh rate value.
  * @retval HAL state
  */
HAL_StatusTypeDef FMC_SDRAM_ProgramRefreshRate(FMC_SDRAM_TypeDef *Device, uint32_t RefreshRate)
{
 8006aa0:	4602      	mov	r2, r0
  /* Check the parameters */
  assert_param(IS_FMC_SDRAM_DEVICE(Device));
  assert_param(IS_FMC_REFRESH_RATE(RefreshRate));

  /* Set the refresh rate in command register */
  MODIFY_REG(Device->SDRTR, FMC_SDRTR_COUNT, (RefreshRate << FMC_SDRTR_COUNT_Pos));
 8006aa2:	4b05      	ldr	r3, [pc, #20]	; (8006ab8 <FMC_SDRAM_ProgramRefreshRate+0x18>)

  return HAL_OK;
}
 8006aa4:	2000      	movs	r0, #0
{
 8006aa6:	b410      	push	{r4}
  MODIFY_REG(Device->SDRTR, FMC_SDRTR_COUNT, (RefreshRate << FMC_SDRTR_COUNT_Pos));
 8006aa8:	6954      	ldr	r4, [r2, #20]
 8006aaa:	4023      	ands	r3, r4
}
 8006aac:	f85d 4b04 	ldr.w	r4, [sp], #4
  MODIFY_REG(Device->SDRTR, FMC_SDRTR_COUNT, (RefreshRate << FMC_SDRTR_COUNT_Pos));
 8006ab0:	ea43 0141 	orr.w	r1, r3, r1, lsl #1
 8006ab4:	6151      	str	r1, [r2, #20]
}
 8006ab6:	4770      	bx	lr
 8006ab8:	ffffc001 	.word	0xffffc001

08006abc <UTIL_LCD_SetFuncDriver>:
/**
  * @brief  Link board LCD drivers to STM32 LCD Utility drivers
  * @param  pDrv Structure of LCD functions
  */
void UTIL_LCD_SetFuncDriver(const LCD_UTILS_Drv_t *pDrv)
{
 8006abc:	4603      	mov	r3, r0
 8006abe:	e92d 41f0 	stmdb	sp!, {r4, r5, r6, r7, r8, lr}
  FuncDriver.DrawBitmap     = pDrv->DrawBitmap;
 8006ac2:	4c15      	ldr	r4, [pc, #84]	; (8006b18 <UTIL_LCD_SetFuncDriver+0x5c>)
  FuncDriver.GetXSize       = pDrv->GetXSize;
  FuncDriver.GetYSize       = pDrv->GetYSize;
  FuncDriver.SetLayer       = pDrv->SetLayer;
  FuncDriver.GetFormat      = pDrv->GetFormat;

  DrawProp->LcdLayer = 0;
 8006ac4:	2500      	movs	r5, #0
 8006ac6:	4e15      	ldr	r6, [pc, #84]	; (8006b1c <UTIL_LCD_SetFuncDriver+0x60>)
  DrawProp->LcdDevice = 0;
  FuncDriver.GetXSize(0, &DrawProp->LcdXsize);
 8006ac8:	4628      	mov	r0, r5
 8006aca:	f106 0114 	add.w	r1, r6, #20
  FuncDriver.FillRGBRect    = pDrv->FillRGBRect;
 8006ace:	e9d3 7200 	ldrd	r7, r2, [r3]
 8006ad2:	e9c4 7200 	strd	r7, r2, [r4]
  FuncDriver.DrawVLine      = pDrv->DrawVLine;
 8006ad6:	e9d3 7202 	ldrd	r7, r2, [r3, #8]
  DrawProp->LcdLayer = 0;
 8006ada:	60f5      	str	r5, [r6, #12]
  FuncDriver.DrawVLine      = pDrv->DrawVLine;
 8006adc:	e9c4 7202 	strd	r7, r2, [r4, #8]
  FuncDriver.FillRect       = pDrv->FillRect;
 8006ae0:	691a      	ldr	r2, [r3, #16]
  DrawProp->LcdDevice = 0;
 8006ae2:	6135      	str	r5, [r6, #16]
  FuncDriver.FillRect       = pDrv->FillRect;
 8006ae4:	6122      	str	r2, [r4, #16]
  FuncDriver.SetPixel       = pDrv->SetPixel;
 8006ae6:	e9d3 7205 	ldrd	r7, r2, [r3, #20]
 8006aea:	e9c4 7205 	strd	r7, r2, [r4, #20]
  FuncDriver.SetLayer       = pDrv->SetLayer;
 8006aee:	e9d3 7208 	ldrd	r7, r2, [r3, #32]
 8006af2:	e9c4 7208 	strd	r7, r2, [r4, #32]
  FuncDriver.GetFormat      = pDrv->GetFormat;
 8006af6:	6a9a      	ldr	r2, [r3, #40]	; 0x28
  FuncDriver.GetXSize       = pDrv->GetXSize;
 8006af8:	69db      	ldr	r3, [r3, #28]
  FuncDriver.GetFormat      = pDrv->GetFormat;
 8006afa:	62a2      	str	r2, [r4, #40]	; 0x28
  FuncDriver.GetXSize       = pDrv->GetXSize;
 8006afc:	61e3      	str	r3, [r4, #28]
  FuncDriver.GetXSize(0, &DrawProp->LcdXsize);
 8006afe:	4798      	blx	r3
  FuncDriver.GetYSize(0, &DrawProp->LcdYsize);
 8006b00:	6a23      	ldr	r3, [r4, #32]
 8006b02:	f106 0118 	add.w	r1, r6, #24
 8006b06:	4628      	mov	r0, r5
 8006b08:	4798      	blx	r3
  FuncDriver.GetFormat(0, &DrawProp->LcdPixelFormat);
 8006b0a:	6aa3      	ldr	r3, [r4, #40]	; 0x28
 8006b0c:	f106 011c 	add.w	r1, r6, #28
 8006b10:	4628      	mov	r0, r5
}
 8006b12:	e8bd 41f0 	ldmia.w	sp!, {r4, r5, r6, r7, r8, lr}
  FuncDriver.GetFormat(0, &DrawProp->LcdPixelFormat);
 8006b16:	4718      	bx	r3
 8006b18:	240009fc 	.word	0x240009fc
 8006b1c:	240009bc 	.word	0x240009bc

08006b20 <UTIL_LCD_SetLayer>:
/**
  * @brief  Set the LCD layer.
  * @param  Layer  LCD layer
  */
void UTIL_LCD_SetLayer(uint32_t Layer)
{
 8006b20:	b538      	push	{r3, r4, r5, lr}
  if(FuncDriver.SetLayer != NULL)
 8006b22:	4b05      	ldr	r3, [pc, #20]	; (8006b38 <UTIL_LCD_SetLayer+0x18>)
 8006b24:	6a5b      	ldr	r3, [r3, #36]	; 0x24
 8006b26:	b133      	cbz	r3, 8006b36 <UTIL_LCD_SetLayer+0x16>
  {
    if(FuncDriver.SetLayer(DrawProp->LcdDevice, Layer) == 0)
 8006b28:	4d04      	ldr	r5, [pc, #16]	; (8006b3c <UTIL_LCD_SetLayer+0x1c>)
 8006b2a:	4604      	mov	r4, r0
 8006b2c:	4601      	mov	r1, r0
 8006b2e:	6928      	ldr	r0, [r5, #16]
 8006b30:	4798      	blx	r3
 8006b32:	b900      	cbnz	r0, 8006b36 <UTIL_LCD_SetLayer+0x16>
    {
      DrawProp->LcdLayer = Layer;
 8006b34:	60ec      	str	r4, [r5, #12]
    }
  }
}
 8006b36:	bd38      	pop	{r3, r4, r5, pc}
 8006b38:	240009fc 	.word	0x240009fc
 8006b3c:	240009bc 	.word	0x240009bc

08006b40 <UTIL_LCD_SetTextColor>:
  * @brief  Sets the LCD text color.
  * @param  Color  Text color code
  */
void UTIL_LCD_SetTextColor(uint32_t Color)
{
  DrawProp[DrawProp->LcdLayer].TextColor = Color;
 8006b40:	4a02      	ldr	r2, [pc, #8]	; (8006b4c <UTIL_LCD_SetTextColor+0xc>)
 8006b42:	68d3      	ldr	r3, [r2, #12]
 8006b44:	015b      	lsls	r3, r3, #5
 8006b46:	50d0      	str	r0, [r2, r3]
}
 8006b48:	4770      	bx	lr
 8006b4a:	bf00      	nop
 8006b4c:	240009bc 	.word	0x240009bc

08006b50 <UTIL_LCD_SetBackColor>:
  * @brief  Sets the LCD background color.
  * @param  Color  Layer background color code
  */
void UTIL_LCD_SetBackColor(uint32_t Color)
{
  DrawProp[DrawProp->LcdLayer].BackColor = Color;
 8006b50:	4b02      	ldr	r3, [pc, #8]	; (8006b5c <UTIL_LCD_SetBackColor+0xc>)
 8006b52:	68da      	ldr	r2, [r3, #12]
 8006b54:	eb03 1342 	add.w	r3, r3, r2, lsl #5
 8006b58:	6058      	str	r0, [r3, #4]
}
 8006b5a:	4770      	bx	lr
 8006b5c:	240009bc 	.word	0x240009bc

08006b60 <UTIL_LCD_SetFont>:
  * @brief  Sets the LCD text font.
  * @param  fonts  Layer font to be used
  */
void UTIL_LCD_SetFont(sFONT *fonts)
{
  DrawProp[DrawProp->LcdLayer].pFont = fonts;
 8006b60:	4b02      	ldr	r3, [pc, #8]	; (8006b6c <UTIL_LCD_SetFont+0xc>)
 8006b62:	68da      	ldr	r2, [r3, #12]
 8006b64:	eb03 1342 	add.w	r3, r3, r2, lsl #5
 8006b68:	6098      	str	r0, [r3, #8]
}
 8006b6a:	4770      	bx	lr
 8006b6c:	240009bc 	.word	0x240009bc

08006b70 <UTIL_LCD_GetFont>:
  * @brief  Gets the LCD text font.
  * @retval Used layer font
  */
sFONT *UTIL_LCD_GetFont(void)
{
  return DrawProp[DrawProp->LcdLayer].pFont;
 8006b70:	4b02      	ldr	r3, [pc, #8]	; (8006b7c <UTIL_LCD_GetFont+0xc>)
 8006b72:	68da      	ldr	r2, [r3, #12]
 8006b74:	eb03 1342 	add.w	r3, r3, r2, lsl #5
}
 8006b78:	6898      	ldr	r0, [r3, #8]
 8006b7a:	4770      	bx	lr
 8006b7c:	240009bc 	.word	0x240009bc

08006b80 <UTIL_LCD_DisplayChar>:
  * @param  Ypos Line where to display the character shape.
  * @param  Ascii Character ascii code
  *           This parameter must be a number between Min_Data = 0x20 and Max_Data = 0x7E
  */
void UTIL_LCD_DisplayChar(uint32_t Xpos, uint32_t Ypos, uint8_t Ascii)
{
 8006b80:	e92d 4ff0 	stmdb	sp!, {r4, r5, r6, r7, r8, r9, sl, fp, lr}
  DrawChar(Xpos, Ypos, &DrawProp[DrawProp->LcdLayer].pFont->table[(Ascii-' ') *\
 8006b84:	f8df 814c 	ldr.w	r8, [pc, #332]	; 8006cd4 <UTIL_LCD_DisplayChar+0x154>
{
 8006b88:	4683      	mov	fp, r0
  DrawChar(Xpos, Ypos, &DrawProp[DrawProp->LcdLayer].pFont->table[(Ascii-' ') *\
 8006b8a:	3a20      	subs	r2, #32
{
 8006b8c:	b0ad      	sub	sp, #180	; 0xb4
  DrawChar(Xpos, Ypos, &DrawProp[DrawProp->LcdLayer].pFont->table[(Ascii-' ') *\
 8006b8e:	f8d8 300c 	ldr.w	r3, [r8, #12]
 8006b92:	eb08 1043 	add.w	r0, r8, r3, lsl #5
 8006b96:	ea4f 1c43 	mov.w	ip, r3, lsl #5
 8006b9a:	6880      	ldr	r0, [r0, #8]
  DrawProp[DrawProp->LcdLayer].pFont->Height * ((DrawProp[DrawProp->LcdLayer].pFont->Width + 7) / 8)]);
 8006b9c:	8886      	ldrh	r6, [r0, #4]
 8006b9e:	88c5      	ldrh	r5, [r0, #6]
 8006ba0:	1df7      	adds	r7, r6, #7
  DrawChar(Xpos, Ypos, &DrawProp[DrawProp->LcdLayer].pFont->table[(Ascii-' ') *\
 8006ba2:	6804      	ldr	r4, [r0, #0]
 8006ba4:	fb05 f202 	mul.w	r2, r5, r2
  DrawProp[DrawProp->LcdLayer].pFont->Height * ((DrawProp[DrawProp->LcdLayer].pFont->Width + 7) / 8)]);
 8006ba8:	10f8      	asrs	r0, r7, #3
  height = DrawProp[DrawProp->LcdLayer].pFont->Height;
  width  = DrawProp[DrawProp->LcdLayer].pFont->Width;
  uint16_t rgb565[24];
  uint32_t argb8888[24];

  offset =  8 *((width + 7)/8) -  width ;
 8006baa:	f027 0307 	bic.w	r3, r7, #7
  DrawProp[DrawProp->LcdLayer].pFont->Height * ((DrawProp[DrawProp->LcdLayer].pFont->Width + 7) / 8)]);
 8006bae:	fb00 f202 	mul.w	r2, r0, r2
  offset =  8 *((width + 7)/8) -  width ;
 8006bb2:	9303      	str	r3, [sp, #12]

  for(i = 0; i < height; i++)
 8006bb4:	2d00      	cmp	r5, #0
 8006bb6:	f000 8085 	beq.w	8006cc4 <UTIL_LCD_DisplayChar+0x144>
  {
    pchar = ((uint8_t *)pData + (width + 7)/8 * i);
 8006bba:	08fb      	lsrs	r3, r7, #3
 8006bbc:	4414      	add	r4, r2
 8006bbe:	f8df a118 	ldr.w	sl, [pc, #280]	; 8006cd8 <UTIL_LCD_DisplayChar+0x158>

    if(DrawProp[DrawProp->LcdLayer].LcdPixelFormat == LCD_PIXEL_FORMAT_RGB565)
    {
      for (j = 0; j < width; j++)
      {
        if(line & (1 << (width- j + offset- 1)))
 8006bc2:	f04f 0901 	mov.w	r9, #1
    pchar = ((uint8_t *)pData + (width + 7)/8 * i);
 8006bc6:	9304      	str	r3, [sp, #16]
 8006bc8:	194b      	adds	r3, r1, r5
 8006bca:	1c4d      	adds	r5, r1, #1
    switch(((width + 7)/8))
 8006bcc:	9904      	ldr	r1, [sp, #16]
 8006bce:	9307      	str	r3, [sp, #28]
 8006bd0:	ab14      	add	r3, sp, #80	; 0x50
 8006bd2:	2901      	cmp	r1, #1
 8006bd4:	f105 32ff 	add.w	r2, r5, #4294967295
 8006bd8:	eb03 0386 	add.w	r3, r3, r6, lsl #2
 8006bdc:	9305      	str	r3, [sp, #20]
 8006bde:	ab08      	add	r3, sp, #32
 8006be0:	eb03 0346 	add.w	r3, r3, r6, lsl #1
 8006be4:	9306      	str	r3, [sp, #24]
        if(line & (1 << (width- j + offset- 1)))
 8006be6:	4663      	mov	r3, ip
    switch(((width + 7)/8))
 8006be8:	d038      	beq.n	8006c5c <UTIL_LCD_DisplayChar+0xdc>
 8006bea:	2902      	cmp	r1, #2
 8006bec:	d06d      	beq.n	8006cca <UTIL_LCD_DisplayChar+0x14a>
      line =  (pchar[0]<< 16) | (pchar[1]<< 8) | pchar[2];
 8006bee:	7861      	ldrb	r1, [r4, #1]
 8006bf0:	7827      	ldrb	r7, [r4, #0]
 8006bf2:	0209      	lsls	r1, r1, #8
 8006bf4:	78a0      	ldrb	r0, [r4, #2]
 8006bf6:	ea41 4107 	orr.w	r1, r1, r7, lsl #16
 8006bfa:	4301      	orrs	r1, r0
    if(DrawProp[DrawProp->LcdLayer].LcdPixelFormat == LCD_PIXEL_FORMAT_RGB565)
 8006bfc:	4443      	add	r3, r8
 8006bfe:	69d8      	ldr	r0, [r3, #28]
 8006c00:	2802      	cmp	r0, #2
 8006c02:	d030      	beq.n	8006c66 <UTIL_LCD_DisplayChar+0xe6>
      }
      UTIL_LCD_FillRGBRect(Xpos,  Ypos++, (uint8_t*)&rgb565[0], width, 1);
    }
    else
    {
      for (j = 0; j < width; j++)
 8006c04:	b196      	cbz	r6, 8006c2c <UTIL_LCD_DisplayChar+0xac>
 8006c06:	9803      	ldr	r0, [sp, #12]
      {
        if(line & (1 << (width- j + offset- 1)))
        {
          argb8888[j] = DrawProp[DrawProp->LcdLayer].TextColor;
 8006c08:	f8d3 e000 	ldr.w	lr, [r3]
        }
        else
        {
          argb8888[j] = DrawProp[DrawProp->LcdLayer].BackColor;
 8006c0c:	f8d3 c004 	ldr.w	ip, [r3, #4]
 8006c10:	3801      	subs	r0, #1
 8006c12:	ab14      	add	r3, sp, #80	; 0x50
        if(line & (1 << (width- j + offset- 1)))
 8006c14:	fa09 f700 	lsl.w	r7, r9, r0
          argb8888[j] = DrawProp[DrawProp->LcdLayer].BackColor;
 8006c18:	3801      	subs	r0, #1
 8006c1a:	420f      	tst	r7, r1
 8006c1c:	bf14      	ite	ne
 8006c1e:	4677      	movne	r7, lr
 8006c20:	4667      	moveq	r7, ip
 8006c22:	f843 7b04 	str.w	r7, [r3], #4
      for (j = 0; j < width; j++)
 8006c26:	9f05      	ldr	r7, [sp, #20]
 8006c28:	429f      	cmp	r7, r3
 8006c2a:	d1f3      	bne.n	8006c14 <UTIL_LCD_DisplayChar+0x94>
  FuncDriver.FillRGBRect(DrawProp->LcdDevice, Xpos, Ypos, pData, Width, Height);
 8006c2c:	ab14      	add	r3, sp, #80	; 0x50
 8006c2e:	f8da 7004 	ldr.w	r7, [sl, #4]
 8006c32:	4659      	mov	r1, fp
 8006c34:	f8d8 0010 	ldr.w	r0, [r8, #16]
 8006c38:	e9cd 6900 	strd	r6, r9, [sp]
 8006c3c:	47b8      	blx	r7
  for(i = 0; i < height; i++)
 8006c3e:	9b04      	ldr	r3, [sp, #16]
 8006c40:	441c      	add	r4, r3
 8006c42:	9b07      	ldr	r3, [sp, #28]
 8006c44:	429d      	cmp	r5, r3
 8006c46:	d03d      	beq.n	8006cc4 <UTIL_LCD_DisplayChar+0x144>
    switch(((width + 7)/8))
 8006c48:	9904      	ldr	r1, [sp, #16]
 8006c4a:	3501      	adds	r5, #1
 8006c4c:	f8d8 300c 	ldr.w	r3, [r8, #12]
 8006c50:	2901      	cmp	r1, #1
 8006c52:	f105 32ff 	add.w	r2, r5, #4294967295
 8006c56:	ea4f 1343 	mov.w	r3, r3, lsl #5
 8006c5a:	d1c6      	bne.n	8006bea <UTIL_LCD_DisplayChar+0x6a>
    if(DrawProp[DrawProp->LcdLayer].LcdPixelFormat == LCD_PIXEL_FORMAT_RGB565)
 8006c5c:	4443      	add	r3, r8
      line =  pchar[0];
 8006c5e:	7821      	ldrb	r1, [r4, #0]
    if(DrawProp[DrawProp->LcdLayer].LcdPixelFormat == LCD_PIXEL_FORMAT_RGB565)
 8006c60:	69d8      	ldr	r0, [r3, #28]
 8006c62:	2802      	cmp	r0, #2
 8006c64:	d1ce      	bne.n	8006c04 <UTIL_LCD_DisplayChar+0x84>
      for (j = 0; j < width; j++)
 8006c66:	b1fe      	cbz	r6, 8006ca8 <UTIL_LCD_DisplayChar+0x128>
 8006c68:	9803      	ldr	r0, [sp, #12]
 8006c6a:	f10d 0c20 	add.w	ip, sp, #32
 8006c6e:	ee07 2a90 	vmov	s15, r2
 8006c72:	f100 3eff 	add.w	lr, r0, #4294967295
        if(line & (1 << (width- j + offset- 1)))
 8006c76:	fa09 f00e 	lsl.w	r0, r9, lr
 8006c7a:	f10e 3eff 	add.w	lr, lr, #4294967295
 8006c7e:	4208      	tst	r0, r1
          rgb565[j] = CONVERTARGB88882RGB565(DrawProp[DrawProp->LcdLayer].TextColor);
 8006c80:	bf14      	ite	ne
 8006c82:	681f      	ldrne	r7, [r3, #0]
          rgb565[j] = CONVERTARGB88882RGB565(DrawProp[DrawProp->LcdLayer].BackColor);
 8006c84:	685f      	ldreq	r7, [r3, #4]
 8006c86:	0cfa      	lsrs	r2, r7, #19
 8006c88:	f3c7 00c4 	ubfx	r0, r7, #3, #5
 8006c8c:	097f      	lsrs	r7, r7, #5
 8006c8e:	ea40 20c2 	orr.w	r0, r0, r2, lsl #11
      for (j = 0; j < width; j++)
 8006c92:	9a06      	ldr	r2, [sp, #24]
          rgb565[j] = CONVERTARGB88882RGB565(DrawProp[DrawProp->LcdLayer].BackColor);
 8006c94:	f407 67fc 	and.w	r7, r7, #2016	; 0x7e0
 8006c98:	4338      	orrs	r0, r7
 8006c9a:	b280      	uxth	r0, r0
 8006c9c:	f82c 0b02 	strh.w	r0, [ip], #2
      for (j = 0; j < width; j++)
 8006ca0:	4594      	cmp	ip, r2
 8006ca2:	d1e8      	bne.n	8006c76 <UTIL_LCD_DisplayChar+0xf6>
 8006ca4:	ee17 2a90 	vmov	r2, s15
  FuncDriver.FillRGBRect(DrawProp->LcdDevice, Xpos, Ypos, pData, Width, Height);
 8006ca8:	ab08      	add	r3, sp, #32
 8006caa:	f8da 7004 	ldr.w	r7, [sl, #4]
 8006cae:	4659      	mov	r1, fp
 8006cb0:	f8d8 0010 	ldr.w	r0, [r8, #16]
 8006cb4:	e9cd 6900 	strd	r6, r9, [sp]
 8006cb8:	47b8      	blx	r7
  for(i = 0; i < height; i++)
 8006cba:	9b04      	ldr	r3, [sp, #16]
 8006cbc:	441c      	add	r4, r3
 8006cbe:	9b07      	ldr	r3, [sp, #28]
 8006cc0:	429d      	cmp	r5, r3
 8006cc2:	d1c1      	bne.n	8006c48 <UTIL_LCD_DisplayChar+0xc8>
}
 8006cc4:	b02d      	add	sp, #180	; 0xb4
 8006cc6:	e8bd 8ff0 	ldmia.w	sp!, {r4, r5, r6, r7, r8, r9, sl, fp, pc}
      line =  (pchar[0]<< 8) | pchar[1];
 8006cca:	8821      	ldrh	r1, [r4, #0]
 8006ccc:	ba49      	rev16	r1, r1
 8006cce:	b289      	uxth	r1, r1
      break;
 8006cd0:	e794      	b.n	8006bfc <UTIL_LCD_DisplayChar+0x7c>
 8006cd2:	bf00      	nop
 8006cd4:	240009bc 	.word	0x240009bc
 8006cd8:	240009fc 	.word	0x240009fc

08006cdc <UTIL_LCD_DisplayStringAt>:
{
 8006cdc:	e92d 43f8 	stmdb	sp!, {r3, r4, r5, r6, r7, r8, r9, lr}
 8006ce0:	4689      	mov	r9, r1
  while (*ptr++) size ++ ;
 8006ce2:	4611      	mov	r1, r2
{
 8006ce4:	4616      	mov	r6, r2
 8006ce6:	4605      	mov	r5, r0
  while (*ptr++) size ++ ;
 8006ce8:	f811 2b01 	ldrb.w	r2, [r1], #1
 8006cec:	2a00      	cmp	r2, #0
 8006cee:	d041      	beq.n	8006d74 <UTIL_LCD_DisplayStringAt+0x98>
  uint32_t size = 0, xsize = 0;
 8006cf0:	2000      	movs	r0, #0
  while (*ptr++) size ++ ;
 8006cf2:	f811 4b01 	ldrb.w	r4, [r1], #1
 8006cf6:	3001      	adds	r0, #1
 8006cf8:	2c00      	cmp	r4, #0
 8006cfa:	d1fa      	bne.n	8006cf2 <UTIL_LCD_DisplayStringAt+0x16>
  xsize = (DrawProp->LcdXsize/DrawProp[DrawProp->LcdLayer].pFont->Width);
 8006cfc:	4f1e      	ldr	r7, [pc, #120]	; (8006d78 <UTIL_LCD_DisplayStringAt+0x9c>)
  switch (Mode)
 8006cfe:	2b01      	cmp	r3, #1
  xsize = (DrawProp->LcdXsize/DrawProp[DrawProp->LcdLayer].pFont->Width);
 8006d00:	68fc      	ldr	r4, [r7, #12]
 8006d02:	6979      	ldr	r1, [r7, #20]
 8006d04:	eb07 1444 	add.w	r4, r7, r4, lsl #5
 8006d08:	68a4      	ldr	r4, [r4, #8]
 8006d0a:	f8b4 c004 	ldrh.w	ip, [r4, #4]
 8006d0e:	fbb1 f4fc 	udiv	r4, r1, ip
  switch (Mode)
 8006d12:	d029      	beq.n	8006d68 <UTIL_LCD_DisplayStringAt+0x8c>
 8006d14:	2b02      	cmp	r3, #2
 8006d16:	d103      	bne.n	8006d20 <UTIL_LCD_DisplayStringAt+0x44>
      refcolumn = - Xpos + ((xsize - size)*DrawProp[DrawProp->LcdLayer].pFont->Width);
 8006d18:	1a20      	subs	r0, r4, r0
 8006d1a:	fb0c f000 	mul.w	r0, ip, r0
 8006d1e:	1b45      	subs	r5, r0, r5
  while ((*Text != 0) & (((DrawProp->LcdXsize - (i*DrawProp[DrawProp->LcdLayer].pFont->Width)) & 0xFFFF) >= DrawProp[DrawProp->LcdLayer].pFont->Width))
 8006d20:	b289      	uxth	r1, r1
  if ((refcolumn < 1) || (refcolumn >= 0x8000))
 8006d22:	1e68      	subs	r0, r5, #1
 8006d24:	f647 73fe 	movw	r3, #32766	; 0x7ffe
    refcolumn = 1;
 8006d28:	4298      	cmp	r0, r3
 8006d2a:	bf88      	it	hi
 8006d2c:	2501      	movhi	r5, #1
  while ((*Text != 0) & (((DrawProp->LcdXsize - (i*DrawProp[DrawProp->LcdLayer].pFont->Width)) & 0xFFFF) >= DrawProp[DrawProp->LcdLayer].pFont->Width))
 8006d2e:	458c      	cmp	ip, r1
 8006d30:	d818      	bhi.n	8006d64 <UTIL_LCD_DisplayStringAt+0x88>
 8006d32:	b1ba      	cbz	r2, 8006d64 <UTIL_LCD_DisplayStringAt+0x88>
 8006d34:	f1c6 0801 	rsb	r8, r6, #1
    UTIL_LCD_DisplayChar(refcolumn, Ypos, *Text);
 8006d38:	4628      	mov	r0, r5
 8006d3a:	4649      	mov	r1, r9
 8006d3c:	f7ff ff20 	bl	8006b80 <UTIL_LCD_DisplayChar>
    refcolumn += DrawProp[DrawProp->LcdLayer].pFont->Width;
 8006d40:	68fa      	ldr	r2, [r7, #12]
 8006d42:	eb08 0306 	add.w	r3, r8, r6
  while ((*Text != 0) & (((DrawProp->LcdXsize - (i*DrawProp[DrawProp->LcdLayer].pFont->Width)) & 0xFFFF) >= DrawProp[DrawProp->LcdLayer].pFont->Width))
 8006d46:	6979      	ldr	r1, [r7, #20]
    refcolumn += DrawProp[DrawProp->LcdLayer].pFont->Width;
 8006d48:	eb07 1042 	add.w	r0, r7, r2, lsl #5
  while ((*Text != 0) & (((DrawProp->LcdXsize - (i*DrawProp[DrawProp->LcdLayer].pFont->Width)) & 0xFFFF) >= DrawProp[DrawProp->LcdLayer].pFont->Width))
 8006d4c:	f816 2f01 	ldrb.w	r2, [r6, #1]!
    refcolumn += DrawProp[DrawProp->LcdLayer].pFont->Width;
 8006d50:	6880      	ldr	r0, [r0, #8]
 8006d52:	8884      	ldrh	r4, [r0, #4]
  while ((*Text != 0) & (((DrawProp->LcdXsize - (i*DrawProp[DrawProp->LcdLayer].pFont->Width)) & 0xFFFF) >= DrawProp[DrawProp->LcdLayer].pFont->Width))
 8006d54:	fb03 1314 	mls	r3, r3, r4, r1
    refcolumn += DrawProp[DrawProp->LcdLayer].pFont->Width;
 8006d58:	4425      	add	r5, r4
  while ((*Text != 0) & (((DrawProp->LcdXsize - (i*DrawProp[DrawProp->LcdLayer].pFont->Width)) & 0xFFFF) >= DrawProp[DrawProp->LcdLayer].pFont->Width))
 8006d5a:	b29b      	uxth	r3, r3
 8006d5c:	429c      	cmp	r4, r3
 8006d5e:	d801      	bhi.n	8006d64 <UTIL_LCD_DisplayStringAt+0x88>
 8006d60:	2a00      	cmp	r2, #0
 8006d62:	d1e9      	bne.n	8006d38 <UTIL_LCD_DisplayStringAt+0x5c>
}
 8006d64:	e8bd 83f8 	ldmia.w	sp!, {r3, r4, r5, r6, r7, r8, r9, pc}
      refcolumn = Xpos + ((xsize - size)* DrawProp[DrawProp->LcdLayer].pFont->Width) / 2;
 8006d68:	1a20      	subs	r0, r4, r0
 8006d6a:	fb0c f000 	mul.w	r0, ip, r0
 8006d6e:	eb05 0550 	add.w	r5, r5, r0, lsr #1
      break;
 8006d72:	e7d5      	b.n	8006d20 <UTIL_LCD_DisplayStringAt+0x44>
  uint32_t size = 0, xsize = 0;
 8006d74:	4610      	mov	r0, r2
 8006d76:	e7c1      	b.n	8006cfc <UTIL_LCD_DisplayStringAt+0x20>
 8006d78:	240009bc 	.word	0x240009bc

08006d7c <UTIL_LCD_FillRect>:
{
 8006d7c:	b5f0      	push	{r4, r5, r6, r7, lr}
  if(DrawProp->LcdPixelFormat == LCD_PIXEL_FORMAT_RGB565)
 8006d7e:	4e13      	ldr	r6, [pc, #76]	; (8006dcc <UTIL_LCD_FillRect+0x50>)
{
 8006d80:	4615      	mov	r5, r2
 8006d82:	b083      	sub	sp, #12
 8006d84:	461c      	mov	r4, r3
  if(DrawProp->LcdPixelFormat == LCD_PIXEL_FORMAT_RGB565)
 8006d86:	69f7      	ldr	r7, [r6, #28]
{
 8006d88:	462b      	mov	r3, r5
 8006d8a:	460a      	mov	r2, r1
 8006d8c:	9d08      	ldr	r5, [sp, #32]
  if(DrawProp->LcdPixelFormat == LCD_PIXEL_FORMAT_RGB565)
 8006d8e:	2f02      	cmp	r7, #2
 8006d90:	d008      	beq.n	8006da4 <UTIL_LCD_FillRect+0x28>
    FuncDriver.FillRect(DrawProp->LcdDevice, Xpos, Ypos, Width, Height, Color);
 8006d92:	4f0f      	ldr	r7, [pc, #60]	; (8006dd0 <UTIL_LCD_FillRect+0x54>)
 8006d94:	4601      	mov	r1, r0
 8006d96:	e9cd 4500 	strd	r4, r5, [sp]
 8006d9a:	693c      	ldr	r4, [r7, #16]
 8006d9c:	6930      	ldr	r0, [r6, #16]
 8006d9e:	47a0      	blx	r4
}
 8006da0:	b003      	add	sp, #12
 8006da2:	bdf0      	pop	{r4, r5, r6, r7, pc}
    FuncDriver.FillRect(DrawProp->LcdDevice, Xpos, Ypos, Width, Height, CONVERTARGB88882RGB565(Color));
 8006da4:	096f      	lsrs	r7, r5, #5
 8006da6:	9400      	str	r4, [sp, #0]
 8006da8:	0a29      	lsrs	r1, r5, #8
 8006daa:	f3c5 05c4 	ubfx	r5, r5, #3, #5
 8006dae:	f407 64fc 	and.w	r4, r7, #2016	; 0x7e0
 8006db2:	f401 4778 	and.w	r7, r1, #63488	; 0xf800
 8006db6:	4601      	mov	r1, r0
 8006db8:	6930      	ldr	r0, [r6, #16]
 8006dba:	433c      	orrs	r4, r7
 8006dbc:	4e04      	ldr	r6, [pc, #16]	; (8006dd0 <UTIL_LCD_FillRect+0x54>)
 8006dbe:	4325      	orrs	r5, r4
 8006dc0:	6934      	ldr	r4, [r6, #16]
 8006dc2:	9501      	str	r5, [sp, #4]
 8006dc4:	47a0      	blx	r4
}
 8006dc6:	b003      	add	sp, #12
 8006dc8:	bdf0      	pop	{r4, r5, r6, r7, pc}
 8006dca:	bf00      	nop
 8006dcc:	240009bc 	.word	0x240009bc
 8006dd0:	240009fc 	.word	0x240009fc

08006dd4 <UTIL_LCD_Clear>:
{
 8006dd4:	b500      	push	{lr}
  UTIL_LCD_FillRect(0, 0, DrawProp->LcdXsize, DrawProp->LcdYsize, Color);
 8006dd6:	2100      	movs	r1, #0
{
 8006dd8:	b083      	sub	sp, #12
  UTIL_LCD_FillRect(0, 0, DrawProp->LcdXsize, DrawProp->LcdYsize, Color);
 8006dda:	4a05      	ldr	r2, [pc, #20]	; (8006df0 <UTIL_LCD_Clear+0x1c>)
 8006ddc:	9000      	str	r0, [sp, #0]
 8006dde:	4608      	mov	r0, r1
 8006de0:	6993      	ldr	r3, [r2, #24]
 8006de2:	6952      	ldr	r2, [r2, #20]
 8006de4:	f7ff ffca 	bl	8006d7c <UTIL_LCD_FillRect>
}
 8006de8:	b003      	add	sp, #12
 8006dea:	f85d fb04 	ldr.w	pc, [sp], #4
 8006dee:	bf00      	nop
 8006df0:	240009bc 	.word	0x240009bc

08006df4 <__errno>:
 8006df4:	4b01      	ldr	r3, [pc, #4]	; (8006dfc <__errno+0x8>)
 8006df6:	6818      	ldr	r0, [r3, #0]
 8006df8:	4770      	bx	lr
 8006dfa:	bf00      	nop
 8006dfc:	24000864 	.word	0x24000864

08006e00 <__libc_init_array>:
 8006e00:	b570      	push	{r4, r5, r6, lr}
 8006e02:	4d0d      	ldr	r5, [pc, #52]	; (8006e38 <__libc_init_array+0x38>)
 8006e04:	4c0d      	ldr	r4, [pc, #52]	; (8006e3c <__libc_init_array+0x3c>)
 8006e06:	1b64      	subs	r4, r4, r5
 8006e08:	10a4      	asrs	r4, r4, #2
 8006e0a:	2600      	movs	r6, #0
 8006e0c:	42a6      	cmp	r6, r4
 8006e0e:	d109      	bne.n	8006e24 <__libc_init_array+0x24>
 8006e10:	4d0b      	ldr	r5, [pc, #44]	; (8006e40 <__libc_init_array+0x40>)
 8006e12:	4c0c      	ldr	r4, [pc, #48]	; (8006e44 <__libc_init_array+0x44>)
 8006e14:	f000 fc46 	bl	80076a4 <_init>
 8006e18:	1b64      	subs	r4, r4, r5
 8006e1a:	10a4      	asrs	r4, r4, #2
 8006e1c:	2600      	movs	r6, #0
 8006e1e:	42a6      	cmp	r6, r4
 8006e20:	d105      	bne.n	8006e2e <__libc_init_array+0x2e>
 8006e22:	bd70      	pop	{r4, r5, r6, pc}
 8006e24:	f855 3b04 	ldr.w	r3, [r5], #4
 8006e28:	4798      	blx	r3
 8006e2a:	3601      	adds	r6, #1
 8006e2c:	e7ee      	b.n	8006e0c <__libc_init_array+0xc>
 8006e2e:	f855 3b04 	ldr.w	r3, [r5], #4
 8006e32:	4798      	blx	r3
 8006e34:	3601      	adds	r6, #1
 8006e36:	e7f2      	b.n	8006e1e <__libc_init_array+0x1e>
 8006e38:	080094d8 	.word	0x080094d8
 8006e3c:	080094d8 	.word	0x080094d8
 8006e40:	080094d8 	.word	0x080094d8
 8006e44:	080094dc 	.word	0x080094dc

08006e48 <memcpy>:
 8006e48:	440a      	add	r2, r1
 8006e4a:	4291      	cmp	r1, r2
 8006e4c:	f100 33ff 	add.w	r3, r0, #4294967295
 8006e50:	d100      	bne.n	8006e54 <memcpy+0xc>
 8006e52:	4770      	bx	lr
 8006e54:	b510      	push	{r4, lr}
 8006e56:	f811 4b01 	ldrb.w	r4, [r1], #1
 8006e5a:	f803 4f01 	strb.w	r4, [r3, #1]!
 8006e5e:	4291      	cmp	r1, r2
 8006e60:	d1f9      	bne.n	8006e56 <memcpy+0xe>
 8006e62:	bd10      	pop	{r4, pc}

08006e64 <siprintf>:
 8006e64:	b40e      	push	{r1, r2, r3}
 8006e66:	b500      	push	{lr}
 8006e68:	b09c      	sub	sp, #112	; 0x70
 8006e6a:	ab1d      	add	r3, sp, #116	; 0x74
 8006e6c:	9002      	str	r0, [sp, #8]
 8006e6e:	9006      	str	r0, [sp, #24]
 8006e70:	f06f 4100 	mvn.w	r1, #2147483648	; 0x80000000
 8006e74:	4809      	ldr	r0, [pc, #36]	; (8006e9c <siprintf+0x38>)
 8006e76:	9107      	str	r1, [sp, #28]
 8006e78:	9104      	str	r1, [sp, #16]
 8006e7a:	4909      	ldr	r1, [pc, #36]	; (8006ea0 <siprintf+0x3c>)
 8006e7c:	f853 2b04 	ldr.w	r2, [r3], #4
 8006e80:	9105      	str	r1, [sp, #20]
 8006e82:	6800      	ldr	r0, [r0, #0]
 8006e84:	9301      	str	r3, [sp, #4]
 8006e86:	a902      	add	r1, sp, #8
 8006e88:	f000 f868 	bl	8006f5c <_svfiprintf_r>
 8006e8c:	9b02      	ldr	r3, [sp, #8]
 8006e8e:	2200      	movs	r2, #0
 8006e90:	701a      	strb	r2, [r3, #0]
 8006e92:	b01c      	add	sp, #112	; 0x70
 8006e94:	f85d eb04 	ldr.w	lr, [sp], #4
 8006e98:	b003      	add	sp, #12
 8006e9a:	4770      	bx	lr
 8006e9c:	24000864 	.word	0x24000864
 8006ea0:	ffff0208 	.word	0xffff0208

08006ea4 <__ssputs_r>:
 8006ea4:	e92d 47f0 	stmdb	sp!, {r4, r5, r6, r7, r8, r9, sl, lr}
 8006ea8:	688e      	ldr	r6, [r1, #8]
 8006eaa:	429e      	cmp	r6, r3
 8006eac:	4682      	mov	sl, r0
 8006eae:	460c      	mov	r4, r1
 8006eb0:	4690      	mov	r8, r2
 8006eb2:	461f      	mov	r7, r3
 8006eb4:	d838      	bhi.n	8006f28 <__ssputs_r+0x84>
 8006eb6:	898a      	ldrh	r2, [r1, #12]
 8006eb8:	f412 6f90 	tst.w	r2, #1152	; 0x480
 8006ebc:	d032      	beq.n	8006f24 <__ssputs_r+0x80>
 8006ebe:	6825      	ldr	r5, [r4, #0]
 8006ec0:	6909      	ldr	r1, [r1, #16]
 8006ec2:	eba5 0901 	sub.w	r9, r5, r1
 8006ec6:	6965      	ldr	r5, [r4, #20]
 8006ec8:	eb05 0545 	add.w	r5, r5, r5, lsl #1
 8006ecc:	eb05 75d5 	add.w	r5, r5, r5, lsr #31
 8006ed0:	3301      	adds	r3, #1
 8006ed2:	444b      	add	r3, r9
 8006ed4:	106d      	asrs	r5, r5, #1
 8006ed6:	429d      	cmp	r5, r3
 8006ed8:	bf38      	it	cc
 8006eda:	461d      	movcc	r5, r3
 8006edc:	0553      	lsls	r3, r2, #21
 8006ede:	d531      	bpl.n	8006f44 <__ssputs_r+0xa0>
 8006ee0:	4629      	mov	r1, r5
 8006ee2:	f000 fb39 	bl	8007558 <_malloc_r>
 8006ee6:	4606      	mov	r6, r0
 8006ee8:	b950      	cbnz	r0, 8006f00 <__ssputs_r+0x5c>
 8006eea:	230c      	movs	r3, #12
 8006eec:	f8ca 3000 	str.w	r3, [sl]
 8006ef0:	89a3      	ldrh	r3, [r4, #12]
 8006ef2:	f043 0340 	orr.w	r3, r3, #64	; 0x40
 8006ef6:	81a3      	strh	r3, [r4, #12]
 8006ef8:	f04f 30ff 	mov.w	r0, #4294967295
 8006efc:	e8bd 87f0 	ldmia.w	sp!, {r4, r5, r6, r7, r8, r9, sl, pc}
 8006f00:	6921      	ldr	r1, [r4, #16]
 8006f02:	464a      	mov	r2, r9
 8006f04:	f7ff ffa0 	bl	8006e48 <memcpy>
 8006f08:	89a3      	ldrh	r3, [r4, #12]
 8006f0a:	f423 6390 	bic.w	r3, r3, #1152	; 0x480
 8006f0e:	f043 0380 	orr.w	r3, r3, #128	; 0x80
 8006f12:	81a3      	strh	r3, [r4, #12]
 8006f14:	6126      	str	r6, [r4, #16]
 8006f16:	6165      	str	r5, [r4, #20]
 8006f18:	444e      	add	r6, r9
 8006f1a:	eba5 0509 	sub.w	r5, r5, r9
 8006f1e:	6026      	str	r6, [r4, #0]
 8006f20:	60a5      	str	r5, [r4, #8]
 8006f22:	463e      	mov	r6, r7
 8006f24:	42be      	cmp	r6, r7
 8006f26:	d900      	bls.n	8006f2a <__ssputs_r+0x86>
 8006f28:	463e      	mov	r6, r7
 8006f2a:	4632      	mov	r2, r6
 8006f2c:	6820      	ldr	r0, [r4, #0]
 8006f2e:	4641      	mov	r1, r8
 8006f30:	f000 faa8 	bl	8007484 <memmove>
 8006f34:	68a3      	ldr	r3, [r4, #8]
 8006f36:	6822      	ldr	r2, [r4, #0]
 8006f38:	1b9b      	subs	r3, r3, r6
 8006f3a:	4432      	add	r2, r6
 8006f3c:	60a3      	str	r3, [r4, #8]
 8006f3e:	6022      	str	r2, [r4, #0]
 8006f40:	2000      	movs	r0, #0
 8006f42:	e7db      	b.n	8006efc <__ssputs_r+0x58>
 8006f44:	462a      	mov	r2, r5
 8006f46:	f000 fb61 	bl	800760c <_realloc_r>
 8006f4a:	4606      	mov	r6, r0
 8006f4c:	2800      	cmp	r0, #0
 8006f4e:	d1e1      	bne.n	8006f14 <__ssputs_r+0x70>
 8006f50:	6921      	ldr	r1, [r4, #16]
 8006f52:	4650      	mov	r0, sl
 8006f54:	f000 fab0 	bl	80074b8 <_free_r>
 8006f58:	e7c7      	b.n	8006eea <__ssputs_r+0x46>
	...

08006f5c <_svfiprintf_r>:
 8006f5c:	e92d 4ff0 	stmdb	sp!, {r4, r5, r6, r7, r8, r9, sl, fp, lr}
 8006f60:	4698      	mov	r8, r3
 8006f62:	898b      	ldrh	r3, [r1, #12]
 8006f64:	061b      	lsls	r3, r3, #24
 8006f66:	b09d      	sub	sp, #116	; 0x74
 8006f68:	4607      	mov	r7, r0
 8006f6a:	460d      	mov	r5, r1
 8006f6c:	4614      	mov	r4, r2
 8006f6e:	d50e      	bpl.n	8006f8e <_svfiprintf_r+0x32>
 8006f70:	690b      	ldr	r3, [r1, #16]
 8006f72:	b963      	cbnz	r3, 8006f8e <_svfiprintf_r+0x32>
 8006f74:	2140      	movs	r1, #64	; 0x40
 8006f76:	f000 faef 	bl	8007558 <_malloc_r>
 8006f7a:	6028      	str	r0, [r5, #0]
 8006f7c:	6128      	str	r0, [r5, #16]
 8006f7e:	b920      	cbnz	r0, 8006f8a <_svfiprintf_r+0x2e>
 8006f80:	230c      	movs	r3, #12
 8006f82:	603b      	str	r3, [r7, #0]
 8006f84:	f04f 30ff 	mov.w	r0, #4294967295
 8006f88:	e0d1      	b.n	800712e <_svfiprintf_r+0x1d2>
 8006f8a:	2340      	movs	r3, #64	; 0x40
 8006f8c:	616b      	str	r3, [r5, #20]
 8006f8e:	2300      	movs	r3, #0
 8006f90:	9309      	str	r3, [sp, #36]	; 0x24
 8006f92:	2320      	movs	r3, #32
 8006f94:	f88d 3029 	strb.w	r3, [sp, #41]	; 0x29
 8006f98:	f8cd 800c 	str.w	r8, [sp, #12]
 8006f9c:	2330      	movs	r3, #48	; 0x30
 8006f9e:	f8df 81a8 	ldr.w	r8, [pc, #424]	; 8007148 <_svfiprintf_r+0x1ec>
 8006fa2:	f88d 302a 	strb.w	r3, [sp, #42]	; 0x2a
 8006fa6:	f04f 0901 	mov.w	r9, #1
 8006faa:	4623      	mov	r3, r4
 8006fac:	469a      	mov	sl, r3
 8006fae:	f813 2b01 	ldrb.w	r2, [r3], #1
 8006fb2:	b10a      	cbz	r2, 8006fb8 <_svfiprintf_r+0x5c>
 8006fb4:	2a25      	cmp	r2, #37	; 0x25
 8006fb6:	d1f9      	bne.n	8006fac <_svfiprintf_r+0x50>
 8006fb8:	ebba 0b04 	subs.w	fp, sl, r4
 8006fbc:	d00b      	beq.n	8006fd6 <_svfiprintf_r+0x7a>
 8006fbe:	465b      	mov	r3, fp
 8006fc0:	4622      	mov	r2, r4
 8006fc2:	4629      	mov	r1, r5
 8006fc4:	4638      	mov	r0, r7
 8006fc6:	f7ff ff6d 	bl	8006ea4 <__ssputs_r>
 8006fca:	3001      	adds	r0, #1
 8006fcc:	f000 80aa 	beq.w	8007124 <_svfiprintf_r+0x1c8>
 8006fd0:	9a09      	ldr	r2, [sp, #36]	; 0x24
 8006fd2:	445a      	add	r2, fp
 8006fd4:	9209      	str	r2, [sp, #36]	; 0x24
 8006fd6:	f89a 3000 	ldrb.w	r3, [sl]
 8006fda:	2b00      	cmp	r3, #0
 8006fdc:	f000 80a2 	beq.w	8007124 <_svfiprintf_r+0x1c8>
 8006fe0:	2300      	movs	r3, #0
 8006fe2:	f04f 32ff 	mov.w	r2, #4294967295
 8006fe6:	e9cd 2305 	strd	r2, r3, [sp, #20]
 8006fea:	f10a 0a01 	add.w	sl, sl, #1
 8006fee:	9304      	str	r3, [sp, #16]
 8006ff0:	9307      	str	r3, [sp, #28]
 8006ff2:	f88d 3053 	strb.w	r3, [sp, #83]	; 0x53
 8006ff6:	931a      	str	r3, [sp, #104]	; 0x68
 8006ff8:	4654      	mov	r4, sl
 8006ffa:	2205      	movs	r2, #5
 8006ffc:	f814 1b01 	ldrb.w	r1, [r4], #1
 8007000:	4851      	ldr	r0, [pc, #324]	; (8007148 <_svfiprintf_r+0x1ec>)
 8007002:	f7f9 f96d 	bl	80002e0 <memchr>
 8007006:	9a04      	ldr	r2, [sp, #16]
 8007008:	b9d8      	cbnz	r0, 8007042 <_svfiprintf_r+0xe6>
 800700a:	06d0      	lsls	r0, r2, #27
 800700c:	bf44      	itt	mi
 800700e:	2320      	movmi	r3, #32
 8007010:	f88d 3053 	strbmi.w	r3, [sp, #83]	; 0x53
 8007014:	0711      	lsls	r1, r2, #28
 8007016:	bf44      	itt	mi
 8007018:	232b      	movmi	r3, #43	; 0x2b
 800701a:	f88d 3053 	strbmi.w	r3, [sp, #83]	; 0x53
 800701e:	f89a 3000 	ldrb.w	r3, [sl]
 8007022:	2b2a      	cmp	r3, #42	; 0x2a
 8007024:	d015      	beq.n	8007052 <_svfiprintf_r+0xf6>
 8007026:	9a07      	ldr	r2, [sp, #28]
 8007028:	4654      	mov	r4, sl
 800702a:	2000      	movs	r0, #0
 800702c:	f04f 0c0a 	mov.w	ip, #10
 8007030:	4621      	mov	r1, r4
 8007032:	f811 3b01 	ldrb.w	r3, [r1], #1
 8007036:	3b30      	subs	r3, #48	; 0x30
 8007038:	2b09      	cmp	r3, #9
 800703a:	d94e      	bls.n	80070da <_svfiprintf_r+0x17e>
 800703c:	b1b0      	cbz	r0, 800706c <_svfiprintf_r+0x110>
 800703e:	9207      	str	r2, [sp, #28]
 8007040:	e014      	b.n	800706c <_svfiprintf_r+0x110>
 8007042:	eba0 0308 	sub.w	r3, r0, r8
 8007046:	fa09 f303 	lsl.w	r3, r9, r3
 800704a:	4313      	orrs	r3, r2
 800704c:	9304      	str	r3, [sp, #16]
 800704e:	46a2      	mov	sl, r4
 8007050:	e7d2      	b.n	8006ff8 <_svfiprintf_r+0x9c>
 8007052:	9b03      	ldr	r3, [sp, #12]
 8007054:	1d19      	adds	r1, r3, #4
 8007056:	681b      	ldr	r3, [r3, #0]
 8007058:	9103      	str	r1, [sp, #12]
 800705a:	2b00      	cmp	r3, #0
 800705c:	bfbb      	ittet	lt
 800705e:	425b      	neglt	r3, r3
 8007060:	f042 0202 	orrlt.w	r2, r2, #2
 8007064:	9307      	strge	r3, [sp, #28]
 8007066:	9307      	strlt	r3, [sp, #28]
 8007068:	bfb8      	it	lt
 800706a:	9204      	strlt	r2, [sp, #16]
 800706c:	7823      	ldrb	r3, [r4, #0]
 800706e:	2b2e      	cmp	r3, #46	; 0x2e
 8007070:	d10c      	bne.n	800708c <_svfiprintf_r+0x130>
 8007072:	7863      	ldrb	r3, [r4, #1]
 8007074:	2b2a      	cmp	r3, #42	; 0x2a
 8007076:	d135      	bne.n	80070e4 <_svfiprintf_r+0x188>
 8007078:	9b03      	ldr	r3, [sp, #12]
 800707a:	1d1a      	adds	r2, r3, #4
 800707c:	681b      	ldr	r3, [r3, #0]
 800707e:	9203      	str	r2, [sp, #12]
 8007080:	2b00      	cmp	r3, #0
 8007082:	bfb8      	it	lt
 8007084:	f04f 33ff 	movlt.w	r3, #4294967295
 8007088:	3402      	adds	r4, #2
 800708a:	9305      	str	r3, [sp, #20]
 800708c:	f8df a0c8 	ldr.w	sl, [pc, #200]	; 8007158 <_svfiprintf_r+0x1fc>
 8007090:	7821      	ldrb	r1, [r4, #0]
 8007092:	2203      	movs	r2, #3
 8007094:	4650      	mov	r0, sl
 8007096:	f7f9 f923 	bl	80002e0 <memchr>
 800709a:	b140      	cbz	r0, 80070ae <_svfiprintf_r+0x152>
 800709c:	2340      	movs	r3, #64	; 0x40
 800709e:	eba0 000a 	sub.w	r0, r0, sl
 80070a2:	fa03 f000 	lsl.w	r0, r3, r0
 80070a6:	9b04      	ldr	r3, [sp, #16]
 80070a8:	4303      	orrs	r3, r0
 80070aa:	3401      	adds	r4, #1
 80070ac:	9304      	str	r3, [sp, #16]
 80070ae:	f814 1b01 	ldrb.w	r1, [r4], #1
 80070b2:	4826      	ldr	r0, [pc, #152]	; (800714c <_svfiprintf_r+0x1f0>)
 80070b4:	f88d 1028 	strb.w	r1, [sp, #40]	; 0x28
 80070b8:	2206      	movs	r2, #6
 80070ba:	f7f9 f911 	bl	80002e0 <memchr>
 80070be:	2800      	cmp	r0, #0
 80070c0:	d038      	beq.n	8007134 <_svfiprintf_r+0x1d8>
 80070c2:	4b23      	ldr	r3, [pc, #140]	; (8007150 <_svfiprintf_r+0x1f4>)
 80070c4:	bb1b      	cbnz	r3, 800710e <_svfiprintf_r+0x1b2>
 80070c6:	9b03      	ldr	r3, [sp, #12]
 80070c8:	3307      	adds	r3, #7
 80070ca:	f023 0307 	bic.w	r3, r3, #7
 80070ce:	3308      	adds	r3, #8
 80070d0:	9303      	str	r3, [sp, #12]
 80070d2:	9b09      	ldr	r3, [sp, #36]	; 0x24
 80070d4:	4433      	add	r3, r6
 80070d6:	9309      	str	r3, [sp, #36]	; 0x24
 80070d8:	e767      	b.n	8006faa <_svfiprintf_r+0x4e>
 80070da:	fb0c 3202 	mla	r2, ip, r2, r3
 80070de:	460c      	mov	r4, r1
 80070e0:	2001      	movs	r0, #1
 80070e2:	e7a5      	b.n	8007030 <_svfiprintf_r+0xd4>
 80070e4:	2300      	movs	r3, #0
 80070e6:	3401      	adds	r4, #1
 80070e8:	9305      	str	r3, [sp, #20]
 80070ea:	4619      	mov	r1, r3
 80070ec:	f04f 0c0a 	mov.w	ip, #10
 80070f0:	4620      	mov	r0, r4
 80070f2:	f810 2b01 	ldrb.w	r2, [r0], #1
 80070f6:	3a30      	subs	r2, #48	; 0x30
 80070f8:	2a09      	cmp	r2, #9
 80070fa:	d903      	bls.n	8007104 <_svfiprintf_r+0x1a8>
 80070fc:	2b00      	cmp	r3, #0
 80070fe:	d0c5      	beq.n	800708c <_svfiprintf_r+0x130>
 8007100:	9105      	str	r1, [sp, #20]
 8007102:	e7c3      	b.n	800708c <_svfiprintf_r+0x130>
 8007104:	fb0c 2101 	mla	r1, ip, r1, r2
 8007108:	4604      	mov	r4, r0
 800710a:	2301      	movs	r3, #1
 800710c:	e7f0      	b.n	80070f0 <_svfiprintf_r+0x194>
 800710e:	ab03      	add	r3, sp, #12
 8007110:	9300      	str	r3, [sp, #0]
 8007112:	462a      	mov	r2, r5
 8007114:	4b0f      	ldr	r3, [pc, #60]	; (8007154 <_svfiprintf_r+0x1f8>)
 8007116:	a904      	add	r1, sp, #16
 8007118:	4638      	mov	r0, r7
 800711a:	f3af 8000 	nop.w
 800711e:	1c42      	adds	r2, r0, #1
 8007120:	4606      	mov	r6, r0
 8007122:	d1d6      	bne.n	80070d2 <_svfiprintf_r+0x176>
 8007124:	89ab      	ldrh	r3, [r5, #12]
 8007126:	065b      	lsls	r3, r3, #25
 8007128:	f53f af2c 	bmi.w	8006f84 <_svfiprintf_r+0x28>
 800712c:	9809      	ldr	r0, [sp, #36]	; 0x24
 800712e:	b01d      	add	sp, #116	; 0x74
 8007130:	e8bd 8ff0 	ldmia.w	sp!, {r4, r5, r6, r7, r8, r9, sl, fp, pc}
 8007134:	ab03      	add	r3, sp, #12
 8007136:	9300      	str	r3, [sp, #0]
 8007138:	462a      	mov	r2, r5
 800713a:	4b06      	ldr	r3, [pc, #24]	; (8007154 <_svfiprintf_r+0x1f8>)
 800713c:	a904      	add	r1, sp, #16
 800713e:	4638      	mov	r0, r7
 8007140:	f000 f87a 	bl	8007238 <_printf_i>
 8007144:	e7eb      	b.n	800711e <_svfiprintf_r+0x1c2>
 8007146:	bf00      	nop
 8007148:	080094a4 	.word	0x080094a4
 800714c:	080094ae 	.word	0x080094ae
 8007150:	00000000 	.word	0x00000000
 8007154:	08006ea5 	.word	0x08006ea5
 8007158:	080094aa 	.word	0x080094aa

0800715c <_printf_common>:
 800715c:	e92d 47f0 	stmdb	sp!, {r4, r5, r6, r7, r8, r9, sl, lr}
 8007160:	4616      	mov	r6, r2
 8007162:	4699      	mov	r9, r3
 8007164:	688a      	ldr	r2, [r1, #8]
 8007166:	690b      	ldr	r3, [r1, #16]
 8007168:	f8dd 8020 	ldr.w	r8, [sp, #32]
 800716c:	4293      	cmp	r3, r2
 800716e:	bfb8      	it	lt
 8007170:	4613      	movlt	r3, r2
 8007172:	6033      	str	r3, [r6, #0]
 8007174:	f891 2043 	ldrb.w	r2, [r1, #67]	; 0x43
 8007178:	4607      	mov	r7, r0
 800717a:	460c      	mov	r4, r1
 800717c:	b10a      	cbz	r2, 8007182 <_printf_common+0x26>
 800717e:	3301      	adds	r3, #1
 8007180:	6033      	str	r3, [r6, #0]
 8007182:	6823      	ldr	r3, [r4, #0]
 8007184:	0699      	lsls	r1, r3, #26
 8007186:	bf42      	ittt	mi
 8007188:	6833      	ldrmi	r3, [r6, #0]
 800718a:	3302      	addmi	r3, #2
 800718c:	6033      	strmi	r3, [r6, #0]
 800718e:	6825      	ldr	r5, [r4, #0]
 8007190:	f015 0506 	ands.w	r5, r5, #6
 8007194:	d106      	bne.n	80071a4 <_printf_common+0x48>
 8007196:	f104 0a19 	add.w	sl, r4, #25
 800719a:	68e3      	ldr	r3, [r4, #12]
 800719c:	6832      	ldr	r2, [r6, #0]
 800719e:	1a9b      	subs	r3, r3, r2
 80071a0:	42ab      	cmp	r3, r5
 80071a2:	dc26      	bgt.n	80071f2 <_printf_common+0x96>
 80071a4:	f894 2043 	ldrb.w	r2, [r4, #67]	; 0x43
 80071a8:	1e13      	subs	r3, r2, #0
 80071aa:	6822      	ldr	r2, [r4, #0]
 80071ac:	bf18      	it	ne
 80071ae:	2301      	movne	r3, #1
 80071b0:	0692      	lsls	r2, r2, #26
 80071b2:	d42b      	bmi.n	800720c <_printf_common+0xb0>
 80071b4:	f104 0243 	add.w	r2, r4, #67	; 0x43
 80071b8:	4649      	mov	r1, r9
 80071ba:	4638      	mov	r0, r7
 80071bc:	47c0      	blx	r8
 80071be:	3001      	adds	r0, #1
 80071c0:	d01e      	beq.n	8007200 <_printf_common+0xa4>
 80071c2:	6823      	ldr	r3, [r4, #0]
 80071c4:	68e5      	ldr	r5, [r4, #12]
 80071c6:	6832      	ldr	r2, [r6, #0]
 80071c8:	f003 0306 	and.w	r3, r3, #6
 80071cc:	2b04      	cmp	r3, #4
 80071ce:	bf08      	it	eq
 80071d0:	1aad      	subeq	r5, r5, r2
 80071d2:	68a3      	ldr	r3, [r4, #8]
 80071d4:	6922      	ldr	r2, [r4, #16]
 80071d6:	bf0c      	ite	eq
 80071d8:	ea25 75e5 	biceq.w	r5, r5, r5, asr #31
 80071dc:	2500      	movne	r5, #0
 80071de:	4293      	cmp	r3, r2
 80071e0:	bfc4      	itt	gt
 80071e2:	1a9b      	subgt	r3, r3, r2
 80071e4:	18ed      	addgt	r5, r5, r3
 80071e6:	2600      	movs	r6, #0
 80071e8:	341a      	adds	r4, #26
 80071ea:	42b5      	cmp	r5, r6
 80071ec:	d11a      	bne.n	8007224 <_printf_common+0xc8>
 80071ee:	2000      	movs	r0, #0
 80071f0:	e008      	b.n	8007204 <_printf_common+0xa8>
 80071f2:	2301      	movs	r3, #1
 80071f4:	4652      	mov	r2, sl
 80071f6:	4649      	mov	r1, r9
 80071f8:	4638      	mov	r0, r7
 80071fa:	47c0      	blx	r8
 80071fc:	3001      	adds	r0, #1
 80071fe:	d103      	bne.n	8007208 <_printf_common+0xac>
 8007200:	f04f 30ff 	mov.w	r0, #4294967295
 8007204:	e8bd 87f0 	ldmia.w	sp!, {r4, r5, r6, r7, r8, r9, sl, pc}
 8007208:	3501      	adds	r5, #1
 800720a:	e7c6      	b.n	800719a <_printf_common+0x3e>
 800720c:	18e1      	adds	r1, r4, r3
 800720e:	1c5a      	adds	r2, r3, #1
 8007210:	2030      	movs	r0, #48	; 0x30
 8007212:	f881 0043 	strb.w	r0, [r1, #67]	; 0x43
 8007216:	4422      	add	r2, r4
 8007218:	f894 1045 	ldrb.w	r1, [r4, #69]	; 0x45
 800721c:	f882 1043 	strb.w	r1, [r2, #67]	; 0x43
 8007220:	3302      	adds	r3, #2
 8007222:	e7c7      	b.n	80071b4 <_printf_common+0x58>
 8007224:	2301      	movs	r3, #1
 8007226:	4622      	mov	r2, r4
 8007228:	4649      	mov	r1, r9
 800722a:	4638      	mov	r0, r7
 800722c:	47c0      	blx	r8
 800722e:	3001      	adds	r0, #1
 8007230:	d0e6      	beq.n	8007200 <_printf_common+0xa4>
 8007232:	3601      	adds	r6, #1
 8007234:	e7d9      	b.n	80071ea <_printf_common+0x8e>
	...

08007238 <_printf_i>:
 8007238:	e92d 47ff 	stmdb	sp!, {r0, r1, r2, r3, r4, r5, r6, r7, r8, r9, sl, lr}
 800723c:	460c      	mov	r4, r1
 800723e:	4691      	mov	r9, r2
 8007240:	7e27      	ldrb	r7, [r4, #24]
 8007242:	990c      	ldr	r1, [sp, #48]	; 0x30
 8007244:	2f78      	cmp	r7, #120	; 0x78
 8007246:	4680      	mov	r8, r0
 8007248:	469a      	mov	sl, r3
 800724a:	f104 0243 	add.w	r2, r4, #67	; 0x43
 800724e:	d807      	bhi.n	8007260 <_printf_i+0x28>
 8007250:	2f62      	cmp	r7, #98	; 0x62
 8007252:	d80a      	bhi.n	800726a <_printf_i+0x32>
 8007254:	2f00      	cmp	r7, #0
 8007256:	f000 80d8 	beq.w	800740a <_printf_i+0x1d2>
 800725a:	2f58      	cmp	r7, #88	; 0x58
 800725c:	f000 80a3 	beq.w	80073a6 <_printf_i+0x16e>
 8007260:	f104 0642 	add.w	r6, r4, #66	; 0x42
 8007264:	f884 7042 	strb.w	r7, [r4, #66]	; 0x42
 8007268:	e03a      	b.n	80072e0 <_printf_i+0xa8>
 800726a:	f1a7 0363 	sub.w	r3, r7, #99	; 0x63
 800726e:	2b15      	cmp	r3, #21
 8007270:	d8f6      	bhi.n	8007260 <_printf_i+0x28>
 8007272:	a001      	add	r0, pc, #4	; (adr r0, 8007278 <_printf_i+0x40>)
 8007274:	f850 f023 	ldr.w	pc, [r0, r3, lsl #2]
 8007278:	080072d1 	.word	0x080072d1
 800727c:	080072e5 	.word	0x080072e5
 8007280:	08007261 	.word	0x08007261
 8007284:	08007261 	.word	0x08007261
 8007288:	08007261 	.word	0x08007261
 800728c:	08007261 	.word	0x08007261
 8007290:	080072e5 	.word	0x080072e5
 8007294:	08007261 	.word	0x08007261
 8007298:	08007261 	.word	0x08007261
 800729c:	08007261 	.word	0x08007261
 80072a0:	08007261 	.word	0x08007261
 80072a4:	080073f1 	.word	0x080073f1
 80072a8:	08007315 	.word	0x08007315
 80072ac:	080073d3 	.word	0x080073d3
 80072b0:	08007261 	.word	0x08007261
 80072b4:	08007261 	.word	0x08007261
 80072b8:	08007413 	.word	0x08007413
 80072bc:	08007261 	.word	0x08007261
 80072c0:	08007315 	.word	0x08007315
 80072c4:	08007261 	.word	0x08007261
 80072c8:	08007261 	.word	0x08007261
 80072cc:	080073db 	.word	0x080073db
 80072d0:	680b      	ldr	r3, [r1, #0]
 80072d2:	1d1a      	adds	r2, r3, #4
 80072d4:	681b      	ldr	r3, [r3, #0]
 80072d6:	600a      	str	r2, [r1, #0]
 80072d8:	f104 0642 	add.w	r6, r4, #66	; 0x42
 80072dc:	f884 3042 	strb.w	r3, [r4, #66]	; 0x42
 80072e0:	2301      	movs	r3, #1
 80072e2:	e0a3      	b.n	800742c <_printf_i+0x1f4>
 80072e4:	6825      	ldr	r5, [r4, #0]
 80072e6:	6808      	ldr	r0, [r1, #0]
 80072e8:	062e      	lsls	r6, r5, #24
 80072ea:	f100 0304 	add.w	r3, r0, #4
 80072ee:	d50a      	bpl.n	8007306 <_printf_i+0xce>
 80072f0:	6805      	ldr	r5, [r0, #0]
 80072f2:	600b      	str	r3, [r1, #0]
 80072f4:	2d00      	cmp	r5, #0
 80072f6:	da03      	bge.n	8007300 <_printf_i+0xc8>
 80072f8:	232d      	movs	r3, #45	; 0x2d
 80072fa:	426d      	negs	r5, r5
 80072fc:	f884 3043 	strb.w	r3, [r4, #67]	; 0x43
 8007300:	485e      	ldr	r0, [pc, #376]	; (800747c <_printf_i+0x244>)
 8007302:	230a      	movs	r3, #10
 8007304:	e019      	b.n	800733a <_printf_i+0x102>
 8007306:	f015 0f40 	tst.w	r5, #64	; 0x40
 800730a:	6805      	ldr	r5, [r0, #0]
 800730c:	600b      	str	r3, [r1, #0]
 800730e:	bf18      	it	ne
 8007310:	b22d      	sxthne	r5, r5
 8007312:	e7ef      	b.n	80072f4 <_printf_i+0xbc>
 8007314:	680b      	ldr	r3, [r1, #0]
 8007316:	6825      	ldr	r5, [r4, #0]
 8007318:	1d18      	adds	r0, r3, #4
 800731a:	6008      	str	r0, [r1, #0]
 800731c:	0628      	lsls	r0, r5, #24
 800731e:	d501      	bpl.n	8007324 <_printf_i+0xec>
 8007320:	681d      	ldr	r5, [r3, #0]
 8007322:	e002      	b.n	800732a <_printf_i+0xf2>
 8007324:	0669      	lsls	r1, r5, #25
 8007326:	d5fb      	bpl.n	8007320 <_printf_i+0xe8>
 8007328:	881d      	ldrh	r5, [r3, #0]
 800732a:	4854      	ldr	r0, [pc, #336]	; (800747c <_printf_i+0x244>)
 800732c:	2f6f      	cmp	r7, #111	; 0x6f
 800732e:	bf0c      	ite	eq
 8007330:	2308      	moveq	r3, #8
 8007332:	230a      	movne	r3, #10
 8007334:	2100      	movs	r1, #0
 8007336:	f884 1043 	strb.w	r1, [r4, #67]	; 0x43
 800733a:	6866      	ldr	r6, [r4, #4]
 800733c:	60a6      	str	r6, [r4, #8]
 800733e:	2e00      	cmp	r6, #0
 8007340:	bfa2      	ittt	ge
 8007342:	6821      	ldrge	r1, [r4, #0]
 8007344:	f021 0104 	bicge.w	r1, r1, #4
 8007348:	6021      	strge	r1, [r4, #0]
 800734a:	b90d      	cbnz	r5, 8007350 <_printf_i+0x118>
 800734c:	2e00      	cmp	r6, #0
 800734e:	d04d      	beq.n	80073ec <_printf_i+0x1b4>
 8007350:	4616      	mov	r6, r2
 8007352:	fbb5 f1f3 	udiv	r1, r5, r3
 8007356:	fb03 5711 	mls	r7, r3, r1, r5
 800735a:	5dc7      	ldrb	r7, [r0, r7]
 800735c:	f806 7d01 	strb.w	r7, [r6, #-1]!
 8007360:	462f      	mov	r7, r5
 8007362:	42bb      	cmp	r3, r7
 8007364:	460d      	mov	r5, r1
 8007366:	d9f4      	bls.n	8007352 <_printf_i+0x11a>
 8007368:	2b08      	cmp	r3, #8
 800736a:	d10b      	bne.n	8007384 <_printf_i+0x14c>
 800736c:	6823      	ldr	r3, [r4, #0]
 800736e:	07df      	lsls	r7, r3, #31
 8007370:	d508      	bpl.n	8007384 <_printf_i+0x14c>
 8007372:	6923      	ldr	r3, [r4, #16]
 8007374:	6861      	ldr	r1, [r4, #4]
 8007376:	4299      	cmp	r1, r3
 8007378:	bfde      	ittt	le
 800737a:	2330      	movle	r3, #48	; 0x30
 800737c:	f806 3c01 	strble.w	r3, [r6, #-1]
 8007380:	f106 36ff 	addle.w	r6, r6, #4294967295
 8007384:	1b92      	subs	r2, r2, r6
 8007386:	6122      	str	r2, [r4, #16]
 8007388:	f8cd a000 	str.w	sl, [sp]
 800738c:	464b      	mov	r3, r9
 800738e:	aa03      	add	r2, sp, #12
 8007390:	4621      	mov	r1, r4
 8007392:	4640      	mov	r0, r8
 8007394:	f7ff fee2 	bl	800715c <_printf_common>
 8007398:	3001      	adds	r0, #1
 800739a:	d14c      	bne.n	8007436 <_printf_i+0x1fe>
 800739c:	f04f 30ff 	mov.w	r0, #4294967295
 80073a0:	b004      	add	sp, #16
 80073a2:	e8bd 87f0 	ldmia.w	sp!, {r4, r5, r6, r7, r8, r9, sl, pc}
 80073a6:	4835      	ldr	r0, [pc, #212]	; (800747c <_printf_i+0x244>)
 80073a8:	f884 7045 	strb.w	r7, [r4, #69]	; 0x45
 80073ac:	6823      	ldr	r3, [r4, #0]
 80073ae:	680e      	ldr	r6, [r1, #0]
 80073b0:	061f      	lsls	r7, r3, #24
 80073b2:	f856 5b04 	ldr.w	r5, [r6], #4
 80073b6:	600e      	str	r6, [r1, #0]
 80073b8:	d514      	bpl.n	80073e4 <_printf_i+0x1ac>
 80073ba:	07d9      	lsls	r1, r3, #31
 80073bc:	bf44      	itt	mi
 80073be:	f043 0320 	orrmi.w	r3, r3, #32
 80073c2:	6023      	strmi	r3, [r4, #0]
 80073c4:	b91d      	cbnz	r5, 80073ce <_printf_i+0x196>
 80073c6:	6823      	ldr	r3, [r4, #0]
 80073c8:	f023 0320 	bic.w	r3, r3, #32
 80073cc:	6023      	str	r3, [r4, #0]
 80073ce:	2310      	movs	r3, #16
 80073d0:	e7b0      	b.n	8007334 <_printf_i+0xfc>
 80073d2:	6823      	ldr	r3, [r4, #0]
 80073d4:	f043 0320 	orr.w	r3, r3, #32
 80073d8:	6023      	str	r3, [r4, #0]
 80073da:	2378      	movs	r3, #120	; 0x78
 80073dc:	4828      	ldr	r0, [pc, #160]	; (8007480 <_printf_i+0x248>)
 80073de:	f884 3045 	strb.w	r3, [r4, #69]	; 0x45
 80073e2:	e7e3      	b.n	80073ac <_printf_i+0x174>
 80073e4:	065e      	lsls	r6, r3, #25
 80073e6:	bf48      	it	mi
 80073e8:	b2ad      	uxthmi	r5, r5
 80073ea:	e7e6      	b.n	80073ba <_printf_i+0x182>
 80073ec:	4616      	mov	r6, r2
 80073ee:	e7bb      	b.n	8007368 <_printf_i+0x130>
 80073f0:	680b      	ldr	r3, [r1, #0]
 80073f2:	6826      	ldr	r6, [r4, #0]
 80073f4:	6960      	ldr	r0, [r4, #20]
 80073f6:	1d1d      	adds	r5, r3, #4
 80073f8:	600d      	str	r5, [r1, #0]
 80073fa:	0635      	lsls	r5, r6, #24
 80073fc:	681b      	ldr	r3, [r3, #0]
 80073fe:	d501      	bpl.n	8007404 <_printf_i+0x1cc>
 8007400:	6018      	str	r0, [r3, #0]
 8007402:	e002      	b.n	800740a <_printf_i+0x1d2>
 8007404:	0671      	lsls	r1, r6, #25
 8007406:	d5fb      	bpl.n	8007400 <_printf_i+0x1c8>
 8007408:	8018      	strh	r0, [r3, #0]
 800740a:	2300      	movs	r3, #0
 800740c:	6123      	str	r3, [r4, #16]
 800740e:	4616      	mov	r6, r2
 8007410:	e7ba      	b.n	8007388 <_printf_i+0x150>
 8007412:	680b      	ldr	r3, [r1, #0]
 8007414:	1d1a      	adds	r2, r3, #4
 8007416:	600a      	str	r2, [r1, #0]
 8007418:	681e      	ldr	r6, [r3, #0]
 800741a:	6862      	ldr	r2, [r4, #4]
 800741c:	2100      	movs	r1, #0
 800741e:	4630      	mov	r0, r6
 8007420:	f7f8 ff5e 	bl	80002e0 <memchr>
 8007424:	b108      	cbz	r0, 800742a <_printf_i+0x1f2>
 8007426:	1b80      	subs	r0, r0, r6
 8007428:	6060      	str	r0, [r4, #4]
 800742a:	6863      	ldr	r3, [r4, #4]
 800742c:	6123      	str	r3, [r4, #16]
 800742e:	2300      	movs	r3, #0
 8007430:	f884 3043 	strb.w	r3, [r4, #67]	; 0x43
 8007434:	e7a8      	b.n	8007388 <_printf_i+0x150>
 8007436:	6923      	ldr	r3, [r4, #16]
 8007438:	4632      	mov	r2, r6
 800743a:	4649      	mov	r1, r9
 800743c:	4640      	mov	r0, r8
 800743e:	47d0      	blx	sl
 8007440:	3001      	adds	r0, #1
 8007442:	d0ab      	beq.n	800739c <_printf_i+0x164>
 8007444:	6823      	ldr	r3, [r4, #0]
 8007446:	079b      	lsls	r3, r3, #30
 8007448:	d413      	bmi.n	8007472 <_printf_i+0x23a>
 800744a:	68e0      	ldr	r0, [r4, #12]
 800744c:	9b03      	ldr	r3, [sp, #12]
 800744e:	4298      	cmp	r0, r3
 8007450:	bfb8      	it	lt
 8007452:	4618      	movlt	r0, r3
 8007454:	e7a4      	b.n	80073a0 <_printf_i+0x168>
 8007456:	2301      	movs	r3, #1
 8007458:	4632      	mov	r2, r6
 800745a:	4649      	mov	r1, r9
 800745c:	4640      	mov	r0, r8
 800745e:	47d0      	blx	sl
 8007460:	3001      	adds	r0, #1
 8007462:	d09b      	beq.n	800739c <_printf_i+0x164>
 8007464:	3501      	adds	r5, #1
 8007466:	68e3      	ldr	r3, [r4, #12]
 8007468:	9903      	ldr	r1, [sp, #12]
 800746a:	1a5b      	subs	r3, r3, r1
 800746c:	42ab      	cmp	r3, r5
 800746e:	dcf2      	bgt.n	8007456 <_printf_i+0x21e>
 8007470:	e7eb      	b.n	800744a <_printf_i+0x212>
 8007472:	2500      	movs	r5, #0
 8007474:	f104 0619 	add.w	r6, r4, #25
 8007478:	e7f5      	b.n	8007466 <_printf_i+0x22e>
 800747a:	bf00      	nop
 800747c:	080094b5 	.word	0x080094b5
 8007480:	080094c6 	.word	0x080094c6

08007484 <memmove>:
 8007484:	4288      	cmp	r0, r1
 8007486:	b510      	push	{r4, lr}
 8007488:	eb01 0402 	add.w	r4, r1, r2
 800748c:	d902      	bls.n	8007494 <memmove+0x10>
 800748e:	4284      	cmp	r4, r0
 8007490:	4623      	mov	r3, r4
 8007492:	d807      	bhi.n	80074a4 <memmove+0x20>
 8007494:	1e43      	subs	r3, r0, #1
 8007496:	42a1      	cmp	r1, r4
 8007498:	d008      	beq.n	80074ac <memmove+0x28>
 800749a:	f811 2b01 	ldrb.w	r2, [r1], #1
 800749e:	f803 2f01 	strb.w	r2, [r3, #1]!
 80074a2:	e7f8      	b.n	8007496 <memmove+0x12>
 80074a4:	4402      	add	r2, r0
 80074a6:	4601      	mov	r1, r0
 80074a8:	428a      	cmp	r2, r1
 80074aa:	d100      	bne.n	80074ae <memmove+0x2a>
 80074ac:	bd10      	pop	{r4, pc}
 80074ae:	f813 4d01 	ldrb.w	r4, [r3, #-1]!
 80074b2:	f802 4d01 	strb.w	r4, [r2, #-1]!
 80074b6:	e7f7      	b.n	80074a8 <memmove+0x24>

080074b8 <_free_r>:
 80074b8:	b537      	push	{r0, r1, r2, r4, r5, lr}
 80074ba:	2900      	cmp	r1, #0
 80074bc:	d048      	beq.n	8007550 <_free_r+0x98>
 80074be:	f851 3c04 	ldr.w	r3, [r1, #-4]
 80074c2:	9001      	str	r0, [sp, #4]
 80074c4:	2b00      	cmp	r3, #0
 80074c6:	f1a1 0404 	sub.w	r4, r1, #4
 80074ca:	bfb8      	it	lt
 80074cc:	18e4      	addlt	r4, r4, r3
 80074ce:	f000 f8d3 	bl	8007678 <__malloc_lock>
 80074d2:	4a20      	ldr	r2, [pc, #128]	; (8007554 <_free_r+0x9c>)
 80074d4:	9801      	ldr	r0, [sp, #4]
 80074d6:	6813      	ldr	r3, [r2, #0]
 80074d8:	4615      	mov	r5, r2
 80074da:	b933      	cbnz	r3, 80074ea <_free_r+0x32>
 80074dc:	6063      	str	r3, [r4, #4]
 80074de:	6014      	str	r4, [r2, #0]
 80074e0:	b003      	add	sp, #12
 80074e2:	e8bd 4030 	ldmia.w	sp!, {r4, r5, lr}
 80074e6:	f000 b8cd 	b.w	8007684 <__malloc_unlock>
 80074ea:	42a3      	cmp	r3, r4
 80074ec:	d90b      	bls.n	8007506 <_free_r+0x4e>
 80074ee:	6821      	ldr	r1, [r4, #0]
 80074f0:	1862      	adds	r2, r4, r1
 80074f2:	4293      	cmp	r3, r2
 80074f4:	bf04      	itt	eq
 80074f6:	681a      	ldreq	r2, [r3, #0]
 80074f8:	685b      	ldreq	r3, [r3, #4]
 80074fa:	6063      	str	r3, [r4, #4]
 80074fc:	bf04      	itt	eq
 80074fe:	1852      	addeq	r2, r2, r1
 8007500:	6022      	streq	r2, [r4, #0]
 8007502:	602c      	str	r4, [r5, #0]
 8007504:	e7ec      	b.n	80074e0 <_free_r+0x28>
 8007506:	461a      	mov	r2, r3
 8007508:	685b      	ldr	r3, [r3, #4]
 800750a:	b10b      	cbz	r3, 8007510 <_free_r+0x58>
 800750c:	42a3      	cmp	r3, r4
 800750e:	d9fa      	bls.n	8007506 <_free_r+0x4e>
 8007510:	6811      	ldr	r1, [r2, #0]
 8007512:	1855      	adds	r5, r2, r1
 8007514:	42a5      	cmp	r5, r4
 8007516:	d10b      	bne.n	8007530 <_free_r+0x78>
 8007518:	6824      	ldr	r4, [r4, #0]
 800751a:	4421      	add	r1, r4
 800751c:	1854      	adds	r4, r2, r1
 800751e:	42a3      	cmp	r3, r4
 8007520:	6011      	str	r1, [r2, #0]
 8007522:	d1dd      	bne.n	80074e0 <_free_r+0x28>
 8007524:	681c      	ldr	r4, [r3, #0]
 8007526:	685b      	ldr	r3, [r3, #4]
 8007528:	6053      	str	r3, [r2, #4]
 800752a:	4421      	add	r1, r4
 800752c:	6011      	str	r1, [r2, #0]
 800752e:	e7d7      	b.n	80074e0 <_free_r+0x28>
 8007530:	d902      	bls.n	8007538 <_free_r+0x80>
 8007532:	230c      	movs	r3, #12
 8007534:	6003      	str	r3, [r0, #0]
 8007536:	e7d3      	b.n	80074e0 <_free_r+0x28>
 8007538:	6825      	ldr	r5, [r4, #0]
 800753a:	1961      	adds	r1, r4, r5
 800753c:	428b      	cmp	r3, r1
 800753e:	bf04      	itt	eq
 8007540:	6819      	ldreq	r1, [r3, #0]
 8007542:	685b      	ldreq	r3, [r3, #4]
 8007544:	6063      	str	r3, [r4, #4]
 8007546:	bf04      	itt	eq
 8007548:	1949      	addeq	r1, r1, r5
 800754a:	6021      	streq	r1, [r4, #0]
 800754c:	6054      	str	r4, [r2, #4]
 800754e:	e7c7      	b.n	80074e0 <_free_r+0x28>
 8007550:	b003      	add	sp, #12
 8007552:	bd30      	pop	{r4, r5, pc}
 8007554:	24000a28 	.word	0x24000a28

08007558 <_malloc_r>:
 8007558:	b5f8      	push	{r3, r4, r5, r6, r7, lr}
 800755a:	1ccd      	adds	r5, r1, #3
 800755c:	f025 0503 	bic.w	r5, r5, #3
 8007560:	3508      	adds	r5, #8
 8007562:	2d0c      	cmp	r5, #12
 8007564:	bf38      	it	cc
 8007566:	250c      	movcc	r5, #12
 8007568:	2d00      	cmp	r5, #0
 800756a:	4606      	mov	r6, r0
 800756c:	db01      	blt.n	8007572 <_malloc_r+0x1a>
 800756e:	42a9      	cmp	r1, r5
 8007570:	d903      	bls.n	800757a <_malloc_r+0x22>
 8007572:	230c      	movs	r3, #12
 8007574:	6033      	str	r3, [r6, #0]
 8007576:	2000      	movs	r0, #0
 8007578:	bdf8      	pop	{r3, r4, r5, r6, r7, pc}
 800757a:	f000 f87d 	bl	8007678 <__malloc_lock>
 800757e:	4921      	ldr	r1, [pc, #132]	; (8007604 <_malloc_r+0xac>)
 8007580:	680a      	ldr	r2, [r1, #0]
 8007582:	4614      	mov	r4, r2
 8007584:	b99c      	cbnz	r4, 80075ae <_malloc_r+0x56>
 8007586:	4f20      	ldr	r7, [pc, #128]	; (8007608 <_malloc_r+0xb0>)
 8007588:	683b      	ldr	r3, [r7, #0]
 800758a:	b923      	cbnz	r3, 8007596 <_malloc_r+0x3e>
 800758c:	4621      	mov	r1, r4
 800758e:	4630      	mov	r0, r6
 8007590:	f000 f862 	bl	8007658 <_sbrk_r>
 8007594:	6038      	str	r0, [r7, #0]
 8007596:	4629      	mov	r1, r5
 8007598:	4630      	mov	r0, r6
 800759a:	f000 f85d 	bl	8007658 <_sbrk_r>
 800759e:	1c43      	adds	r3, r0, #1
 80075a0:	d123      	bne.n	80075ea <_malloc_r+0x92>
 80075a2:	230c      	movs	r3, #12
 80075a4:	6033      	str	r3, [r6, #0]
 80075a6:	4630      	mov	r0, r6
 80075a8:	f000 f86c 	bl	8007684 <__malloc_unlock>
 80075ac:	e7e3      	b.n	8007576 <_malloc_r+0x1e>
 80075ae:	6823      	ldr	r3, [r4, #0]
 80075b0:	1b5b      	subs	r3, r3, r5
 80075b2:	d417      	bmi.n	80075e4 <_malloc_r+0x8c>
 80075b4:	2b0b      	cmp	r3, #11
 80075b6:	d903      	bls.n	80075c0 <_malloc_r+0x68>
 80075b8:	6023      	str	r3, [r4, #0]
 80075ba:	441c      	add	r4, r3
 80075bc:	6025      	str	r5, [r4, #0]
 80075be:	e004      	b.n	80075ca <_malloc_r+0x72>
 80075c0:	6863      	ldr	r3, [r4, #4]
 80075c2:	42a2      	cmp	r2, r4
 80075c4:	bf0c      	ite	eq
 80075c6:	600b      	streq	r3, [r1, #0]
 80075c8:	6053      	strne	r3, [r2, #4]
 80075ca:	4630      	mov	r0, r6
 80075cc:	f000 f85a 	bl	8007684 <__malloc_unlock>
 80075d0:	f104 000b 	add.w	r0, r4, #11
 80075d4:	1d23      	adds	r3, r4, #4
 80075d6:	f020 0007 	bic.w	r0, r0, #7
 80075da:	1ac2      	subs	r2, r0, r3
 80075dc:	d0cc      	beq.n	8007578 <_malloc_r+0x20>
 80075de:	1a1b      	subs	r3, r3, r0
 80075e0:	50a3      	str	r3, [r4, r2]
 80075e2:	e7c9      	b.n	8007578 <_malloc_r+0x20>
 80075e4:	4622      	mov	r2, r4
 80075e6:	6864      	ldr	r4, [r4, #4]
 80075e8:	e7cc      	b.n	8007584 <_malloc_r+0x2c>
 80075ea:	1cc4      	adds	r4, r0, #3
 80075ec:	f024 0403 	bic.w	r4, r4, #3
 80075f0:	42a0      	cmp	r0, r4
 80075f2:	d0e3      	beq.n	80075bc <_malloc_r+0x64>
 80075f4:	1a21      	subs	r1, r4, r0
 80075f6:	4630      	mov	r0, r6
 80075f8:	f000 f82e 	bl	8007658 <_sbrk_r>
 80075fc:	3001      	adds	r0, #1
 80075fe:	d1dd      	bne.n	80075bc <_malloc_r+0x64>
 8007600:	e7cf      	b.n	80075a2 <_malloc_r+0x4a>
 8007602:	bf00      	nop
 8007604:	24000a28 	.word	0x24000a28
 8007608:	24000a2c 	.word	0x24000a2c

0800760c <_realloc_r>:
 800760c:	b5f8      	push	{r3, r4, r5, r6, r7, lr}
 800760e:	4607      	mov	r7, r0
 8007610:	4614      	mov	r4, r2
 8007612:	460e      	mov	r6, r1
 8007614:	b921      	cbnz	r1, 8007620 <_realloc_r+0x14>
 8007616:	e8bd 40f8 	ldmia.w	sp!, {r3, r4, r5, r6, r7, lr}
 800761a:	4611      	mov	r1, r2
 800761c:	f7ff bf9c 	b.w	8007558 <_malloc_r>
 8007620:	b922      	cbnz	r2, 800762c <_realloc_r+0x20>
 8007622:	f7ff ff49 	bl	80074b8 <_free_r>
 8007626:	4625      	mov	r5, r4
 8007628:	4628      	mov	r0, r5
 800762a:	bdf8      	pop	{r3, r4, r5, r6, r7, pc}
 800762c:	f000 f830 	bl	8007690 <_malloc_usable_size_r>
 8007630:	42a0      	cmp	r0, r4
 8007632:	d20f      	bcs.n	8007654 <_realloc_r+0x48>
 8007634:	4621      	mov	r1, r4
 8007636:	4638      	mov	r0, r7
 8007638:	f7ff ff8e 	bl	8007558 <_malloc_r>
 800763c:	4605      	mov	r5, r0
 800763e:	2800      	cmp	r0, #0
 8007640:	d0f2      	beq.n	8007628 <_realloc_r+0x1c>
 8007642:	4631      	mov	r1, r6
 8007644:	4622      	mov	r2, r4
 8007646:	f7ff fbff 	bl	8006e48 <memcpy>
 800764a:	4631      	mov	r1, r6
 800764c:	4638      	mov	r0, r7
 800764e:	f7ff ff33 	bl	80074b8 <_free_r>
 8007652:	e7e9      	b.n	8007628 <_realloc_r+0x1c>
 8007654:	4635      	mov	r5, r6
 8007656:	e7e7      	b.n	8007628 <_realloc_r+0x1c>

08007658 <_sbrk_r>:
 8007658:	b538      	push	{r3, r4, r5, lr}
 800765a:	4d06      	ldr	r5, [pc, #24]	; (8007674 <_sbrk_r+0x1c>)
 800765c:	2300      	movs	r3, #0
 800765e:	4604      	mov	r4, r0
 8007660:	4608      	mov	r0, r1
 8007662:	602b      	str	r3, [r5, #0]
 8007664:	f7fa ff54 	bl	8002510 <_sbrk>
 8007668:	1c43      	adds	r3, r0, #1
 800766a:	d102      	bne.n	8007672 <_sbrk_r+0x1a>
 800766c:	682b      	ldr	r3, [r5, #0]
 800766e:	b103      	cbz	r3, 8007672 <_sbrk_r+0x1a>
 8007670:	6023      	str	r3, [r4, #0]
 8007672:	bd38      	pop	{r3, r4, r5, pc}
 8007674:	24010bc0 	.word	0x24010bc0

08007678 <__malloc_lock>:
 8007678:	4801      	ldr	r0, [pc, #4]	; (8007680 <__malloc_lock+0x8>)
 800767a:	f000 b811 	b.w	80076a0 <__retarget_lock_acquire_recursive>
 800767e:	bf00      	nop
 8007680:	24010bc8 	.word	0x24010bc8

08007684 <__malloc_unlock>:
 8007684:	4801      	ldr	r0, [pc, #4]	; (800768c <__malloc_unlock+0x8>)
 8007686:	f000 b80c 	b.w	80076a2 <__retarget_lock_release_recursive>
 800768a:	bf00      	nop
 800768c:	24010bc8 	.word	0x24010bc8

08007690 <_malloc_usable_size_r>:
 8007690:	f851 3c04 	ldr.w	r3, [r1, #-4]
 8007694:	1f18      	subs	r0, r3, #4
 8007696:	2b00      	cmp	r3, #0
 8007698:	bfbc      	itt	lt
 800769a:	580b      	ldrlt	r3, [r1, r0]
 800769c:	18c0      	addlt	r0, r0, r3
 800769e:	4770      	bx	lr

080076a0 <__retarget_lock_acquire_recursive>:
 80076a0:	4770      	bx	lr

080076a2 <__retarget_lock_release_recursive>:
 80076a2:	4770      	bx	lr

080076a4 <_init>:
 80076a4:	b5f8      	push	{r3, r4, r5, r6, r7, lr}
 80076a6:	bf00      	nop
 80076a8:	bcf8      	pop	{r3, r4, r5, r6, r7}
 80076aa:	bc08      	pop	{r3}
 80076ac:	469e      	mov	lr, r3
 80076ae:	4770      	bx	lr

080076b0 <_fini>:
 80076b0:	b5f8      	push	{r3, r4, r5, r6, r7, lr}
 80076b2:	bf00      	nop
 80076b4:	bcf8      	pop	{r3, r4, r5, r6, r7}
 80076b6:	bc08      	pop	{r3}
 80076b8:	469e      	mov	lr, r3
 80076ba:	4770      	bx	lr
